  400eb1:	55                   	push   %rbp
  400eb2:	48 89 e5             	mov    %rsp,%rbp
  400eb5:	48 81 ec 30 01 00 00 	sub    $0x130,%rsp
  400ebc:	48 89 bd 58 fe ff ff 	mov    %rdi,-0x1a8(%rbp)
  400ec3:	c7 45 fc 00 00 00 00 	movl   $0x0,-0x4(%rbp)
  400eca:	e9 7b 0d 00 00       	jmpq   401c4a <_Z11icache_goodPv+0xd99>
  400ecf:	c7 45 f8 00 00 00 00 	movl   $0x0,-0x8(%rbp)
  400ed6:	83 7d fc 63          	cmpl   $0x63,-0x4(%rbp)
  400eda:	0f 87 66 0d 00 00    	ja     401c46 <_Z11icache_goodPv+0xd95>
  400ee0:	8b 45 fc             	mov    -0x4(%rbp),%eax
  400ee3:	48 8b 04 c5 88 3a 40 	mov    0x403a88(,%rax,8),%rax
  400eea:	00 
  400eeb:	ff e0                	jmpq   *%rax
  400eed:	c7 45 f4 00 00 00 00 	movl   $0x0,-0xc(%rbp)
  400ef4:	eb 08                	jmp    400efe <_Z11icache_goodPv+0x4d>
  400ef6:	83 45 f8 01          	addl   $0x1,-0x8(%rbp)
  400efa:	83 45 f4 01          	addl   $0x1,-0xc(%rbp)
  400efe:	83 7d f4 63          	cmpl   $0x63,-0xc(%rbp)
  400f02:	7e f2                	jle    400ef6 <_Z11icache_goodPv+0x45>
  400f04:	e9 3d 0d 00 00       	jmpq   401c46 <_Z11icache_goodPv+0xd95>
  400f09:	c7 45 f0 00 00 00 00 	movl   $0x0,-0x10(%rbp)
  400f10:	eb 08                	jmp    400f1a <_Z11icache_goodPv+0x69>
  400f12:	83 45 f8 01          	addl   $0x1,-0x8(%rbp)
  400f16:	83 45 f0 01          	addl   $0x1,-0x10(%rbp)
  400f1a:	83 7d f0 63          	cmpl   $0x63,-0x10(%rbp)
  400f1e:	7e f2                	jle    400f12 <_Z11icache_goodPv+0x61>
  400f20:	e9 21 0d 00 00       	jmpq   401c46 <_Z11icache_goodPv+0xd95>
  400f25:	c7 45 ec 00 00 00 00 	movl   $0x0,-0x14(%rbp)
  400f2c:	eb 08                	jmp    400f36 <_Z11icache_goodPv+0x85>
  400f2e:	83 45 f8 01          	addl   $0x1,-0x8(%rbp)
  400f32:	83 45 ec 01          	addl   $0x1,-0x14(%rbp)
  400f36:	83 7d ec 63          	cmpl   $0x63,-0x14(%rbp)
  400f3a:	7e f2                	jle    400f2e <_Z11icache_goodPv+0x7d>
  400f3c:	e9 05 0d 00 00       	jmpq   401c46 <_Z11icache_goodPv+0xd95>
  400f41:	c7 45 e8 00 00 00 00 	movl   $0x0,-0x18(%rbp)
  400f48:	eb 08                	jmp    400f52 <_Z11icache_goodPv+0xa1>
  400f4a:	83 45 f8 01          	addl   $0x1,-0x8(%rbp)
  400f4e:	83 45 e8 01          	addl   $0x1,-0x18(%rbp)
  400f52:	83 7d e8 63          	cmpl   $0x63,-0x18(%rbp)
  400f56:	7e f2                	jle    400f4a <_Z11icache_goodPv+0x99>
  400f58:	e9 e9 0c 00 00       	jmpq   401c46 <_Z11icache_goodPv+0xd95>
  400f5d:	c7 45 e4 00 00 00 00 	movl   $0x0,-0x1c(%rbp)
  400f64:	eb 08                	jmp    400f6e <_Z11icache_goodPv+0xbd>
  400f66:	83 45 f8 01          	addl   $0x1,-0x8(%rbp)
  400f6a:	83 45 e4 01          	addl   $0x1,-0x1c(%rbp)
  400f6e:	83 7d e4 63          	cmpl   $0x63,-0x1c(%rbp)
  400f72:	7e f2                	jle    400f66 <_Z11icache_goodPv+0xb5>
  400f74:	e9 cd 0c 00 00       	jmpq   401c46 <_Z11icache_goodPv+0xd95>
  400f79:	c7 45 e0 00 00 00 00 	movl   $0x0,-0x20(%rbp)
  400f80:	eb 08                	jmp    400f8a <_Z11icache_goodPv+0xd9>
  400f82:	83 45 f8 01          	addl   $0x1,-0x8(%rbp)
  400f86:	83 45 e0 01          	addl   $0x1,-0x20(%rbp)
  400f8a:	83 7d e0 63          	cmpl   $0x63,-0x20(%rbp)
  400f8e:	7e f2                	jle    400f82 <_Z11icache_goodPv+0xd1>
  400f90:	e9 b1 0c 00 00       	jmpq   401c46 <_Z11icache_goodPv+0xd95>
  400f95:	c7 45 dc 00 00 00 00 	movl   $0x0,-0x24(%rbp)
  400f9c:	eb 08                	jmp    400fa6 <_Z11icache_goodPv+0xf5>
  400f9e:	83 45 f8 01          	addl   $0x1,-0x8(%rbp)
  400fa2:	83 45 dc 01          	addl   $0x1,-0x24(%rbp)
  400fa6:	83 7d dc 63          	cmpl   $0x63,-0x24(%rbp)
  400faa:	7e f2                	jle    400f9e <_Z11icache_goodPv+0xed>
  400fac:	e9 95 0c 00 00       	jmpq   401c46 <_Z11icache_goodPv+0xd95>
  400fb1:	c7 45 d8 00 00 00 00 	movl   $0x0,-0x28(%rbp)
  400fb8:	eb 08                	jmp    400fc2 <_Z11icache_goodPv+0x111>
  400fba:	83 45 f8 01          	addl   $0x1,-0x8(%rbp)
  400fbe:	83 45 d8 01          	addl   $0x1,-0x28(%rbp)
  400fc2:	83 7d d8 63          	cmpl   $0x63,-0x28(%rbp)
  400fc6:	7e f2                	jle    400fba <_Z11icache_goodPv+0x109>
  400fc8:	e9 79 0c 00 00       	jmpq   401c46 <_Z11icache_goodPv+0xd95>
  400fcd:	c7 45 d4 00 00 00 00 	movl   $0x0,-0x2c(%rbp)
  400fd4:	eb 08                	jmp    400fde <_Z11icache_goodPv+0x12d>
  400fd6:	83 45 f8 01          	addl   $0x1,-0x8(%rbp)
  400fda:	83 45 d4 01          	addl   $0x1,-0x2c(%rbp)
  400fde:	83 7d d4 63          	cmpl   $0x63,-0x2c(%rbp)
  400fe2:	7e f2                	jle    400fd6 <_Z11icache_goodPv+0x125>
  400fe4:	e9 5d 0c 00 00       	jmpq   401c46 <_Z11icache_goodPv+0xd95>
  400fe9:	c7 45 d0 00 00 00 00 	movl   $0x0,-0x30(%rbp)
  400ff0:	eb 08                	jmp    400ffa <_Z11icache_goodPv+0x149>
  400ff2:	83 45 f8 01          	addl   $0x1,-0x8(%rbp)
  400ff6:	83 45 d0 01          	addl   $0x1,-0x30(%rbp)
  400ffa:	83 7d d0 63          	cmpl   $0x63,-0x30(%rbp)
  400ffe:	7e f2                	jle    400ff2 <_Z11icache_goodPv+0x141>
  401000:	e9 41 0c 00 00       	jmpq   401c46 <_Z11icache_goodPv+0xd95>
  401005:	c7 45 cc 00 00 00 00 	movl   $0x0,-0x34(%rbp)
  40100c:	eb 08                	jmp    401016 <_Z11icache_goodPv+0x165>
  40100e:	83 45 f8 01          	addl   $0x1,-0x8(%rbp)
  401012:	83 45 cc 01          	addl   $0x1,-0x34(%rbp)
  401016:	83 7d cc 63          	cmpl   $0x63,-0x34(%rbp)
  40101a:	7e f2                	jle    40100e <_Z11icache_goodPv+0x15d>
  40101c:	e9 25 0c 00 00       	jmpq   401c46 <_Z11icache_goodPv+0xd95>
  401021:	c7 45 c8 00 00 00 00 	movl   $0x0,-0x38(%rbp)
  401028:	eb 08                	jmp    401032 <_Z11icache_goodPv+0x181>
  40102a:	83 45 f8 01          	addl   $0x1,-0x8(%rbp)
  40102e:	83 45 c8 01          	addl   $0x1,-0x38(%rbp)
  401032:	83 7d c8 63          	cmpl   $0x63,-0x38(%rbp)
  401036:	7e f2                	jle    40102a <_Z11icache_goodPv+0x179>
  401038:	e9 09 0c 00 00       	jmpq   401c46 <_Z11icache_goodPv+0xd95>
  40103d:	c7 45 c4 00 00 00 00 	movl   $0x0,-0x3c(%rbp)
  401044:	eb 08                	jmp    40104e <_Z11icache_goodPv+0x19d>
  401046:	83 45 f8 01          	addl   $0x1,-0x8(%rbp)
  40104a:	83 45 c4 01          	addl   $0x1,-0x3c(%rbp)
  40104e:	83 7d c4 63          	cmpl   $0x63,-0x3c(%rbp)
  401052:	7e f2                	jle    401046 <_Z11icache_goodPv+0x195>
  401054:	e9 ed 0b 00 00       	jmpq   401c46 <_Z11icache_goodPv+0xd95>
  401059:	c7 45 c0 00 00 00 00 	movl   $0x0,-0x40(%rbp)
  401060:	eb 08                	jmp    40106a <_Z11icache_goodPv+0x1b9>
  401062:	83 45 f8 01          	addl   $0x1,-0x8(%rbp)
  401066:	83 45 c0 01          	addl   $0x1,-0x40(%rbp)
  40106a:	83 7d c0 63          	cmpl   $0x63,-0x40(%rbp)
  40106e:	7e f2                	jle    401062 <_Z11icache_goodPv+0x1b1>
  401070:	e9 d1 0b 00 00       	jmpq   401c46 <_Z11icache_goodPv+0xd95>
  401075:	c7 45 bc 00 00 00 00 	movl   $0x0,-0x44(%rbp)
  40107c:	eb 08                	jmp    401086 <_Z11icache_goodPv+0x1d5>
  40107e:	83 45 f8 01          	addl   $0x1,-0x8(%rbp)
  401082:	83 45 bc 01          	addl   $0x1,-0x44(%rbp)
  401086:	83 7d bc 63          	cmpl   $0x63,-0x44(%rbp)
  40108a:	7e f2                	jle    40107e <_Z11icache_goodPv+0x1cd>
  40108c:	e9 b5 0b 00 00       	jmpq   401c46 <_Z11icache_goodPv+0xd95>
  401091:	c7 45 b8 00 00 00 00 	movl   $0x0,-0x48(%rbp)
  401098:	eb 08                	jmp    4010a2 <_Z11icache_goodPv+0x1f1>
  40109a:	83 45 f8 01          	addl   $0x1,-0x8(%rbp)
  40109e:	83 45 b8 01          	addl   $0x1,-0x48(%rbp)
  4010a2:	83 7d b8 63          	cmpl   $0x63,-0x48(%rbp)
  4010a6:	7e f2                	jle    40109a <_Z11icache_goodPv+0x1e9>
  4010a8:	e9 99 0b 00 00       	jmpq   401c46 <_Z11icache_goodPv+0xd95>
  4010ad:	c7 45 b4 00 00 00 00 	movl   $0x0,-0x4c(%rbp)
  4010b4:	eb 08                	jmp    4010be <_Z11icache_goodPv+0x20d>
  4010b6:	83 45 f8 01          	addl   $0x1,-0x8(%rbp)
  4010ba:	83 45 b4 01          	addl   $0x1,-0x4c(%rbp)
  4010be:	83 7d b4 63          	cmpl   $0x63,-0x4c(%rbp)
  4010c2:	7e f2                	jle    4010b6 <_Z11icache_goodPv+0x205>
  4010c4:	e9 7d 0b 00 00       	jmpq   401c46 <_Z11icache_goodPv+0xd95>
  4010c9:	c7 45 b0 00 00 00 00 	movl   $0x0,-0x50(%rbp)
  4010d0:	eb 08                	jmp    4010da <_Z11icache_goodPv+0x229>
  4010d2:	83 45 f8 01          	addl   $0x1,-0x8(%rbp)
  4010d6:	83 45 b0 01          	addl   $0x1,-0x50(%rbp)
  4010da:	83 7d b0 63          	cmpl   $0x63,-0x50(%rbp)
  4010de:	7e f2                	jle    4010d2 <_Z11icache_goodPv+0x221>
  4010e0:	e9 61 0b 00 00       	jmpq   401c46 <_Z11icache_goodPv+0xd95>
  4010e5:	c7 45 ac 00 00 00 00 	movl   $0x0,-0x54(%rbp)
  4010ec:	eb 08                	jmp    4010f6 <_Z11icache_goodPv+0x245>
  4010ee:	83 45 f8 01          	addl   $0x1,-0x8(%rbp)
  4010f2:	83 45 ac 01          	addl   $0x1,-0x54(%rbp)
  4010f6:	83 7d ac 63          	cmpl   $0x63,-0x54(%rbp)
  4010fa:	7e f2                	jle    4010ee <_Z11icache_goodPv+0x23d>
  4010fc:	e9 45 0b 00 00       	jmpq   401c46 <_Z11icache_goodPv+0xd95>
  401101:	c7 45 a8 00 00 00 00 	movl   $0x0,-0x58(%rbp)
  401108:	eb 08                	jmp    401112 <_Z11icache_goodPv+0x261>
  40110a:	83 45 f8 01          	addl   $0x1,-0x8(%rbp)
  40110e:	83 45 a8 01          	addl   $0x1,-0x58(%rbp)
  401112:	83 7d a8 63          	cmpl   $0x63,-0x58(%rbp)
  401116:	7e f2                	jle    40110a <_Z11icache_goodPv+0x259>
  401118:	e9 29 0b 00 00       	jmpq   401c46 <_Z11icache_goodPv+0xd95>
  40111d:	c7 45 a4 00 00 00 00 	movl   $0x0,-0x5c(%rbp)
  401124:	eb 08                	jmp    40112e <_Z11icache_goodPv+0x27d>
  401126:	83 45 f8 01          	addl   $0x1,-0x8(%rbp)
  40112a:	83 45 a4 01          	addl   $0x1,-0x5c(%rbp)
  40112e:	83 7d a4 63          	cmpl   $0x63,-0x5c(%rbp)
  401132:	7e f2                	jle    401126 <_Z11icache_goodPv+0x275>
  401134:	e9 0d 0b 00 00       	jmpq   401c46 <_Z11icache_goodPv+0xd95>
  401139:	c7 45 a0 00 00 00 00 	movl   $0x0,-0x60(%rbp)
  401140:	eb 08                	jmp    40114a <_Z11icache_goodPv+0x299>
  401142:	83 45 f8 01          	addl   $0x1,-0x8(%rbp)
  401146:	83 45 a0 01          	addl   $0x1,-0x60(%rbp)
  40114a:	83 7d a0 63          	cmpl   $0x63,-0x60(%rbp)
  40114e:	7e f2                	jle    401142 <_Z11icache_goodPv+0x291>
  401150:	e9 f1 0a 00 00       	jmpq   401c46 <_Z11icache_goodPv+0xd95>
  401155:	c7 45 9c 00 00 00 00 	movl   $0x0,-0x64(%rbp)
  40115c:	eb 08                	jmp    401166 <_Z11icache_goodPv+0x2b5>
  40115e:	83 45 f8 01          	addl   $0x1,-0x8(%rbp)
  401162:	83 45 9c 01          	addl   $0x1,-0x64(%rbp)
  401166:	83 7d 9c 63          	cmpl   $0x63,-0x64(%rbp)
  40116a:	7e f2                	jle    40115e <_Z11icache_goodPv+0x2ad>
  40116c:	e9 d5 0a 00 00       	jmpq   401c46 <_Z11icache_goodPv+0xd95>
  401171:	c7 45 98 00 00 00 00 	movl   $0x0,-0x68(%rbp)
  401178:	eb 08                	jmp    401182 <_Z11icache_goodPv+0x2d1>
  40117a:	83 45 f8 01          	addl   $0x1,-0x8(%rbp)
  40117e:	83 45 98 01          	addl   $0x1,-0x68(%rbp)
  401182:	83 7d 98 63          	cmpl   $0x63,-0x68(%rbp)
  401186:	7e f2                	jle    40117a <_Z11icache_goodPv+0x2c9>
  401188:	e9 b9 0a 00 00       	jmpq   401c46 <_Z11icache_goodPv+0xd95>
  40118d:	c7 45 94 00 00 00 00 	movl   $0x0,-0x6c(%rbp)
  401194:	eb 08                	jmp    40119e <_Z11icache_goodPv+0x2ed>
  401196:	83 45 f8 01          	addl   $0x1,-0x8(%rbp)
  40119a:	83 45 94 01          	addl   $0x1,-0x6c(%rbp)
  40119e:	83 7d 94 63          	cmpl   $0x63,-0x6c(%rbp)
  4011a2:	7e f2                	jle    401196 <_Z11icache_goodPv+0x2e5>
  4011a4:	e9 9d 0a 00 00       	jmpq   401c46 <_Z11icache_goodPv+0xd95>
  4011a9:	c7 45 90 00 00 00 00 	movl   $0x0,-0x70(%rbp)
  4011b0:	eb 08                	jmp    4011ba <_Z11icache_goodPv+0x309>
  4011b2:	83 45 f8 01          	addl   $0x1,-0x8(%rbp)
  4011b6:	83 45 90 01          	addl   $0x1,-0x70(%rbp)
  4011ba:	83 7d 90 63          	cmpl   $0x63,-0x70(%rbp)
  4011be:	7e f2                	jle    4011b2 <_Z11icache_goodPv+0x301>
  4011c0:	e9 81 0a 00 00       	jmpq   401c46 <_Z11icache_goodPv+0xd95>
  4011c5:	c7 45 8c 00 00 00 00 	movl   $0x0,-0x74(%rbp)
  4011cc:	eb 08                	jmp    4011d6 <_Z11icache_goodPv+0x325>
  4011ce:	83 45 f8 01          	addl   $0x1,-0x8(%rbp)
  4011d2:	83 45 8c 01          	addl   $0x1,-0x74(%rbp)
  4011d6:	83 7d 8c 63          	cmpl   $0x63,-0x74(%rbp)
  4011da:	7e f2                	jle    4011ce <_Z11icache_goodPv+0x31d>
  4011dc:	e9 65 0a 00 00       	jmpq   401c46 <_Z11icache_goodPv+0xd95>
  4011e1:	c7 45 88 00 00 00 00 	movl   $0x0,-0x78(%rbp)
  4011e8:	eb 08                	jmp    4011f2 <_Z11icache_goodPv+0x341>
  4011ea:	83 45 f8 01          	addl   $0x1,-0x8(%rbp)
  4011ee:	83 45 88 01          	addl   $0x1,-0x78(%rbp)
  4011f2:	83 7d 88 63          	cmpl   $0x63,-0x78(%rbp)
  4011f6:	7e f2                	jle    4011ea <_Z11icache_goodPv+0x339>
  4011f8:	e9 49 0a 00 00       	jmpq   401c46 <_Z11icache_goodPv+0xd95>
  4011fd:	c7 45 84 00 00 00 00 	movl   $0x0,-0x7c(%rbp)
  401204:	eb 08                	jmp    40120e <_Z11icache_goodPv+0x35d>
  401206:	83 45 f8 01          	addl   $0x1,-0x8(%rbp)
  40120a:	83 45 84 01          	addl   $0x1,-0x7c(%rbp)
  40120e:	83 7d 84 63          	cmpl   $0x63,-0x7c(%rbp)
  401212:	7e f2                	jle    401206 <_Z11icache_goodPv+0x355>
  401214:	e9 2d 0a 00 00       	jmpq   401c46 <_Z11icache_goodPv+0xd95>
  401219:	c7 45 80 00 00 00 00 	movl   $0x0,-0x80(%rbp)
  401220:	eb 08                	jmp    40122a <_Z11icache_goodPv+0x379>
  401222:	83 45 f8 01          	addl   $0x1,-0x8(%rbp)
  401226:	83 45 80 01          	addl   $0x1,-0x80(%rbp)
  40122a:	83 7d 80 63          	cmpl   $0x63,-0x80(%rbp)
  40122e:	7e f2                	jle    401222 <_Z11icache_goodPv+0x371>
  401230:	e9 11 0a 00 00       	jmpq   401c46 <_Z11icache_goodPv+0xd95>
  401235:	c7 85 7c ff ff ff 00 	movl   $0x0,-0x84(%rbp)
  40123c:	00 00 00 
  40123f:	eb 0b                	jmp    40124c <_Z11icache_goodPv+0x39b>
  401241:	83 45 f8 01          	addl   $0x1,-0x8(%rbp)
  401245:	83 85 7c ff ff ff 01 	addl   $0x1,-0x84(%rbp)
  40124c:	83 bd 7c ff ff ff 63 	cmpl   $0x63,-0x84(%rbp)
  401253:	7e ec                	jle    401241 <_Z11icache_goodPv+0x390>
  401255:	e9 ec 09 00 00       	jmpq   401c46 <_Z11icache_goodPv+0xd95>
  40125a:	c7 85 78 ff ff ff 00 	movl   $0x0,-0x88(%rbp)
  401261:	00 00 00 
  401264:	eb 0b                	jmp    401271 <_Z11icache_goodPv+0x3c0>
  401266:	83 45 f8 01          	addl   $0x1,-0x8(%rbp)
  40126a:	83 85 78 ff ff ff 01 	addl   $0x1,-0x88(%rbp)
  401271:	83 bd 78 ff ff ff 63 	cmpl   $0x63,-0x88(%rbp)
  401278:	7e ec                	jle    401266 <_Z11icache_goodPv+0x3b5>
  40127a:	e9 c7 09 00 00       	jmpq   401c46 <_Z11icache_goodPv+0xd95>
  40127f:	c7 85 74 ff ff ff 00 	movl   $0x0,-0x8c(%rbp)
  401286:	00 00 00 
  401289:	eb 0b                	jmp    401296 <_Z11icache_goodPv+0x3e5>
  40128b:	83 45 f8 01          	addl   $0x1,-0x8(%rbp)
  40128f:	83 85 74 ff ff ff 01 	addl   $0x1,-0x8c(%rbp)
  401296:	83 bd 74 ff ff ff 63 	cmpl   $0x63,-0x8c(%rbp)
  40129d:	7e ec                	jle    40128b <_Z11icache_goodPv+0x3da>
  40129f:	e9 a2 09 00 00       	jmpq   401c46 <_Z11icache_goodPv+0xd95>
  4012a4:	c7 85 70 ff ff ff 00 	movl   $0x0,-0x90(%rbp)
  4012ab:	00 00 00 
  4012ae:	eb 0b                	jmp    4012bb <_Z11icache_goodPv+0x40a>
  4012b0:	83 45 f8 01          	addl   $0x1,-0x8(%rbp)
  4012b4:	83 85 70 ff ff ff 01 	addl   $0x1,-0x90(%rbp)
  4012bb:	83 bd 70 ff ff ff 63 	cmpl   $0x63,-0x90(%rbp)
  4012c2:	7e ec                	jle    4012b0 <_Z11icache_goodPv+0x3ff>
  4012c4:	e9 7d 09 00 00       	jmpq   401c46 <_Z11icache_goodPv+0xd95>
  4012c9:	c7 85 6c ff ff ff 00 	movl   $0x0,-0x94(%rbp)
  4012d0:	00 00 00 
  4012d3:	eb 0b                	jmp    4012e0 <_Z11icache_goodPv+0x42f>
  4012d5:	83 45 f8 01          	addl   $0x1,-0x8(%rbp)
  4012d9:	83 85 6c ff ff ff 01 	addl   $0x1,-0x94(%rbp)
  4012e0:	83 bd 6c ff ff ff 63 	cmpl   $0x63,-0x94(%rbp)
  4012e7:	7e ec                	jle    4012d5 <_Z11icache_goodPv+0x424>
  4012e9:	e9 58 09 00 00       	jmpq   401c46 <_Z11icache_goodPv+0xd95>
  4012ee:	c7 85 68 ff ff ff 00 	movl   $0x0,-0x98(%rbp)
  4012f5:	00 00 00 
  4012f8:	eb 0b                	jmp    401305 <_Z11icache_goodPv+0x454>
  4012fa:	83 45 f8 01          	addl   $0x1,-0x8(%rbp)
  4012fe:	83 85 68 ff ff ff 01 	addl   $0x1,-0x98(%rbp)
  401305:	83 bd 68 ff ff ff 63 	cmpl   $0x63,-0x98(%rbp)
  40130c:	7e ec                	jle    4012fa <_Z11icache_goodPv+0x449>
  40130e:	e9 33 09 00 00       	jmpq   401c46 <_Z11icache_goodPv+0xd95>
  401313:	c7 85 64 ff ff ff 00 	movl   $0x0,-0x9c(%rbp)
  40131a:	00 00 00 
  40131d:	eb 0b                	jmp    40132a <_Z11icache_goodPv+0x479>
  40131f:	83 45 f8 01          	addl   $0x1,-0x8(%rbp)
  401323:	83 85 64 ff ff ff 01 	addl   $0x1,-0x9c(%rbp)
  40132a:	83 bd 64 ff ff ff 63 	cmpl   $0x63,-0x9c(%rbp)
  401331:	7e ec                	jle    40131f <_Z11icache_goodPv+0x46e>
  401333:	e9 0e 09 00 00       	jmpq   401c46 <_Z11icache_goodPv+0xd95>
  401338:	c7 85 60 ff ff ff 00 	movl   $0x0,-0xa0(%rbp)
  40133f:	00 00 00 
  401342:	eb 0b                	jmp    40134f <_Z11icache_goodPv+0x49e>
  401344:	83 45 f8 01          	addl   $0x1,-0x8(%rbp)
  401348:	83 85 60 ff ff ff 01 	addl   $0x1,-0xa0(%rbp)
  40134f:	83 bd 60 ff ff ff 63 	cmpl   $0x63,-0xa0(%rbp)
  401356:	7e ec                	jle    401344 <_Z11icache_goodPv+0x493>
  401358:	e9 e9 08 00 00       	jmpq   401c46 <_Z11icache_goodPv+0xd95>
  40135d:	c7 85 5c ff ff ff 00 	movl   $0x0,-0xa4(%rbp)
  401364:	00 00 00 
  401367:	eb 0b                	jmp    401374 <_Z11icache_goodPv+0x4c3>
  401369:	83 45 f8 01          	addl   $0x1,-0x8(%rbp)
  40136d:	83 85 5c ff ff ff 01 	addl   $0x1,-0xa4(%rbp)
  401374:	83 bd 5c ff ff ff 63 	cmpl   $0x63,-0xa4(%rbp)
  40137b:	7e ec                	jle    401369 <_Z11icache_goodPv+0x4b8>
  40137d:	e9 c4 08 00 00       	jmpq   401c46 <_Z11icache_goodPv+0xd95>
  401382:	c7 85 58 ff ff ff 00 	movl   $0x0,-0xa8(%rbp)
  401389:	00 00 00 
  40138c:	eb 0b                	jmp    401399 <_Z11icache_goodPv+0x4e8>
  40138e:	83 45 f8 01          	addl   $0x1,-0x8(%rbp)
  401392:	83 85 58 ff ff ff 01 	addl   $0x1,-0xa8(%rbp)
  401399:	83 bd 58 ff ff ff 63 	cmpl   $0x63,-0xa8(%rbp)
  4013a0:	7e ec                	jle    40138e <_Z11icache_goodPv+0x4dd>
  4013a2:	e9 9f 08 00 00       	jmpq   401c46 <_Z11icache_goodPv+0xd95>
  4013a7:	c7 85 54 ff ff ff 00 	movl   $0x0,-0xac(%rbp)
  4013ae:	00 00 00 
  4013b1:	eb 0b                	jmp    4013be <_Z11icache_goodPv+0x50d>
  4013b3:	83 45 f8 01          	addl   $0x1,-0x8(%rbp)
  4013b7:	83 85 54 ff ff ff 01 	addl   $0x1,-0xac(%rbp)
  4013be:	83 bd 54 ff ff ff 63 	cmpl   $0x63,-0xac(%rbp)
  4013c5:	7e ec                	jle    4013b3 <_Z11icache_goodPv+0x502>
  4013c7:	e9 7a 08 00 00       	jmpq   401c46 <_Z11icache_goodPv+0xd95>
  4013cc:	c7 85 50 ff ff ff 00 	movl   $0x0,-0xb0(%rbp)
  4013d3:	00 00 00 
  4013d6:	eb 0b                	jmp    4013e3 <_Z11icache_goodPv+0x532>
  4013d8:	83 45 f8 01          	addl   $0x1,-0x8(%rbp)
  4013dc:	83 85 50 ff ff ff 01 	addl   $0x1,-0xb0(%rbp)
  4013e3:	83 bd 50 ff ff ff 63 	cmpl   $0x63,-0xb0(%rbp)
  4013ea:	7e ec                	jle    4013d8 <_Z11icache_goodPv+0x527>
  4013ec:	e9 55 08 00 00       	jmpq   401c46 <_Z11icache_goodPv+0xd95>
  4013f1:	c7 85 4c ff ff ff 00 	movl   $0x0,-0xb4(%rbp)
  4013f8:	00 00 00 
  4013fb:	eb 0b                	jmp    401408 <_Z11icache_goodPv+0x557>
  4013fd:	83 45 f8 01          	addl   $0x1,-0x8(%rbp)
  401401:	83 85 4c ff ff ff 01 	addl   $0x1,-0xb4(%rbp)
  401408:	83 bd 4c ff ff ff 63 	cmpl   $0x63,-0xb4(%rbp)
  40140f:	7e ec                	jle    4013fd <_Z11icache_goodPv+0x54c>
  401411:	e9 30 08 00 00       	jmpq   401c46 <_Z11icache_goodPv+0xd95>
  401416:	c7 85 48 ff ff ff 00 	movl   $0x0,-0xb8(%rbp)
  40141d:	00 00 00 
  401420:	eb 0b                	jmp    40142d <_Z11icache_goodPv+0x57c>
  401422:	83 45 f8 01          	addl   $0x1,-0x8(%rbp)
  401426:	83 85 48 ff ff ff 01 	addl   $0x1,-0xb8(%rbp)
  40142d:	83 bd 48 ff ff ff 63 	cmpl   $0x63,-0xb8(%rbp)
  401434:	7e ec                	jle    401422 <_Z11icache_goodPv+0x571>
  401436:	e9 0b 08 00 00       	jmpq   401c46 <_Z11icache_goodPv+0xd95>
  40143b:	c7 85 44 ff ff ff 00 	movl   $0x0,-0xbc(%rbp)
  401442:	00 00 00 
  401445:	eb 0b                	jmp    401452 <_Z11icache_goodPv+0x5a1>
  401447:	83 45 f8 01          	addl   $0x1,-0x8(%rbp)
  40144b:	83 85 44 ff ff ff 01 	addl   $0x1,-0xbc(%rbp)
  401452:	83 bd 44 ff ff ff 63 	cmpl   $0x63,-0xbc(%rbp)
  401459:	7e ec                	jle    401447 <_Z11icache_goodPv+0x596>
  40145b:	e9 e6 07 00 00       	jmpq   401c46 <_Z11icache_goodPv+0xd95>
  401460:	c7 85 40 ff ff ff 00 	movl   $0x0,-0xc0(%rbp)
  401467:	00 00 00 
  40146a:	eb 0b                	jmp    401477 <_Z11icache_goodPv+0x5c6>
  40146c:	83 45 f8 01          	addl   $0x1,-0x8(%rbp)
  401470:	83 85 40 ff ff ff 01 	addl   $0x1,-0xc0(%rbp)
  401477:	83 bd 40 ff ff ff 63 	cmpl   $0x63,-0xc0(%rbp)
  40147e:	7e ec                	jle    40146c <_Z11icache_goodPv+0x5bb>
  401480:	e9 c1 07 00 00       	jmpq   401c46 <_Z11icache_goodPv+0xd95>
  401485:	c7 85 3c ff ff ff 00 	movl   $0x0,-0xc4(%rbp)
  40148c:	00 00 00 
  40148f:	eb 0b                	jmp    40149c <_Z11icache_goodPv+0x5eb>
  401491:	83 45 f8 01          	addl   $0x1,-0x8(%rbp)
  401495:	83 85 3c ff ff ff 01 	addl   $0x1,-0xc4(%rbp)
  40149c:	83 bd 3c ff ff ff 63 	cmpl   $0x63,-0xc4(%rbp)
  4014a3:	7e ec                	jle    401491 <_Z11icache_goodPv+0x5e0>
  4014a5:	e9 9c 07 00 00       	jmpq   401c46 <_Z11icache_goodPv+0xd95>
  4014aa:	c7 85 38 ff ff ff 00 	movl   $0x0,-0xc8(%rbp)
  4014b1:	00 00 00 
  4014b4:	eb 0b                	jmp    4014c1 <_Z11icache_goodPv+0x610>
  4014b6:	83 45 f8 01          	addl   $0x1,-0x8(%rbp)
  4014ba:	83 85 38 ff ff ff 01 	addl   $0x1,-0xc8(%rbp)
  4014c1:	83 bd 38 ff ff ff 63 	cmpl   $0x63,-0xc8(%rbp)
  4014c8:	7e ec                	jle    4014b6 <_Z11icache_goodPv+0x605>
  4014ca:	e9 77 07 00 00       	jmpq   401c46 <_Z11icache_goodPv+0xd95>
  4014cf:	c7 85 34 ff ff ff 00 	movl   $0x0,-0xcc(%rbp)
  4014d6:	00 00 00 
  4014d9:	eb 0b                	jmp    4014e6 <_Z11icache_goodPv+0x635>
  4014db:	83 45 f8 01          	addl   $0x1,-0x8(%rbp)
  4014df:	83 85 34 ff ff ff 01 	addl   $0x1,-0xcc(%rbp)
  4014e6:	83 bd 34 ff ff ff 63 	cmpl   $0x63,-0xcc(%rbp)
  4014ed:	7e ec                	jle    4014db <_Z11icache_goodPv+0x62a>
  4014ef:	e9 52 07 00 00       	jmpq   401c46 <_Z11icache_goodPv+0xd95>
  4014f4:	c7 85 30 ff ff ff 00 	movl   $0x0,-0xd0(%rbp)
  4014fb:	00 00 00 
  4014fe:	eb 0b                	jmp    40150b <_Z11icache_goodPv+0x65a>
  401500:	83 45 f8 01          	addl   $0x1,-0x8(%rbp)
  401504:	83 85 30 ff ff ff 01 	addl   $0x1,-0xd0(%rbp)
  40150b:	83 bd 30 ff ff ff 63 	cmpl   $0x63,-0xd0(%rbp)
  401512:	7e ec                	jle    401500 <_Z11icache_goodPv+0x64f>
  401514:	e9 2d 07 00 00       	jmpq   401c46 <_Z11icache_goodPv+0xd95>
  401519:	c7 85 2c ff ff ff 00 	movl   $0x0,-0xd4(%rbp)
  401520:	00 00 00 
  401523:	eb 0b                	jmp    401530 <_Z11icache_goodPv+0x67f>
  401525:	83 45 f8 01          	addl   $0x1,-0x8(%rbp)
  401529:	83 85 2c ff ff ff 01 	addl   $0x1,-0xd4(%rbp)
  401530:	83 bd 2c ff ff ff 63 	cmpl   $0x63,-0xd4(%rbp)
  401537:	7e ec                	jle    401525 <_Z11icache_goodPv+0x674>
  401539:	e9 08 07 00 00       	jmpq   401c46 <_Z11icache_goodPv+0xd95>
  40153e:	c7 85 28 ff ff ff 00 	movl   $0x0,-0xd8(%rbp)
  401545:	00 00 00 
  401548:	eb 0b                	jmp    401555 <_Z11icache_goodPv+0x6a4>
  40154a:	83 45 f8 01          	addl   $0x1,-0x8(%rbp)
  40154e:	83 85 28 ff ff ff 01 	addl   $0x1,-0xd8(%rbp)
  401555:	83 bd 28 ff ff ff 63 	cmpl   $0x63,-0xd8(%rbp)
  40155c:	7e ec                	jle    40154a <_Z11icache_goodPv+0x699>
  40155e:	e9 e3 06 00 00       	jmpq   401c46 <_Z11icache_goodPv+0xd95>
  401563:	c7 85 24 ff ff ff 00 	movl   $0x0,-0xdc(%rbp)
  40156a:	00 00 00 
  40156d:	eb 0b                	jmp    40157a <_Z11icache_goodPv+0x6c9>
  40156f:	83 45 f8 01          	addl   $0x1,-0x8(%rbp)
  401573:	83 85 24 ff ff ff 01 	addl   $0x1,-0xdc(%rbp)
  40157a:	83 bd 24 ff ff ff 63 	cmpl   $0x63,-0xdc(%rbp)
  401581:	7e ec                	jle    40156f <_Z11icache_goodPv+0x6be>
  401583:	e9 be 06 00 00       	jmpq   401c46 <_Z11icache_goodPv+0xd95>
  401588:	c7 85 20 ff ff ff 00 	movl   $0x0,-0xe0(%rbp)
  40158f:	00 00 00 
  401592:	eb 0b                	jmp    40159f <_Z11icache_goodPv+0x6ee>
  401594:	83 45 f8 01          	addl   $0x1,-0x8(%rbp)
  401598:	83 85 20 ff ff ff 01 	addl   $0x1,-0xe0(%rbp)
  40159f:	83 bd 20 ff ff ff 63 	cmpl   $0x63,-0xe0(%rbp)
  4015a6:	7e ec                	jle    401594 <_Z11icache_goodPv+0x6e3>
  4015a8:	e9 99 06 00 00       	jmpq   401c46 <_Z11icache_goodPv+0xd95>
  4015ad:	c7 85 1c ff ff ff 00 	movl   $0x0,-0xe4(%rbp)
  4015b4:	00 00 00 
  4015b7:	eb 0b                	jmp    4015c4 <_Z11icache_goodPv+0x713>
  4015b9:	83 45 f8 01          	addl   $0x1,-0x8(%rbp)
  4015bd:	83 85 1c ff ff ff 01 	addl   $0x1,-0xe4(%rbp)
  4015c4:	83 bd 1c ff ff ff 63 	cmpl   $0x63,-0xe4(%rbp)
  4015cb:	7e ec                	jle    4015b9 <_Z11icache_goodPv+0x708>
  4015cd:	e9 74 06 00 00       	jmpq   401c46 <_Z11icache_goodPv+0xd95>
  4015d2:	c7 85 18 ff ff ff 00 	movl   $0x0,-0xe8(%rbp)
  4015d9:	00 00 00 
  4015dc:	eb 0b                	jmp    4015e9 <_Z11icache_goodPv+0x738>
  4015de:	83 45 f8 01          	addl   $0x1,-0x8(%rbp)
  4015e2:	83 85 18 ff ff ff 01 	addl   $0x1,-0xe8(%rbp)
  4015e9:	83 bd 18 ff ff ff 63 	cmpl   $0x63,-0xe8(%rbp)
  4015f0:	7e ec                	jle    4015de <_Z11icache_goodPv+0x72d>
  4015f2:	e9 4f 06 00 00       	jmpq   401c46 <_Z11icache_goodPv+0xd95>
  4015f7:	c7 85 14 ff ff ff 00 	movl   $0x0,-0xec(%rbp)
  4015fe:	00 00 00 
  401601:	eb 0b                	jmp    40160e <_Z11icache_goodPv+0x75d>
  401603:	83 45 f8 01          	addl   $0x1,-0x8(%rbp)
  401607:	83 85 14 ff ff ff 01 	addl   $0x1,-0xec(%rbp)
  40160e:	83 bd 14 ff ff ff 63 	cmpl   $0x63,-0xec(%rbp)
  401615:	7e ec                	jle    401603 <_Z11icache_goodPv+0x752>
  401617:	e9 2a 06 00 00       	jmpq   401c46 <_Z11icache_goodPv+0xd95>
  40161c:	c7 85 10 ff ff ff 00 	movl   $0x0,-0xf0(%rbp)
  401623:	00 00 00 
  401626:	eb 0b                	jmp    401633 <_Z11icache_goodPv+0x782>
  401628:	83 45 f8 01          	addl   $0x1,-0x8(%rbp)
  40162c:	83 85 10 ff ff ff 01 	addl   $0x1,-0xf0(%rbp)
  401633:	83 bd 10 ff ff ff 63 	cmpl   $0x63,-0xf0(%rbp)
  40163a:	7e ec                	jle    401628 <_Z11icache_goodPv+0x777>
  40163c:	e9 05 06 00 00       	jmpq   401c46 <_Z11icache_goodPv+0xd95>
  401641:	c7 85 0c ff ff ff 00 	movl   $0x0,-0xf4(%rbp)
  401648:	00 00 00 
  40164b:	eb 0b                	jmp    401658 <_Z11icache_goodPv+0x7a7>
  40164d:	83 45 f8 01          	addl   $0x1,-0x8(%rbp)
  401651:	83 85 0c ff ff ff 01 	addl   $0x1,-0xf4(%rbp)
  401658:	83 bd 0c ff ff ff 63 	cmpl   $0x63,-0xf4(%rbp)
  40165f:	7e ec                	jle    40164d <_Z11icache_goodPv+0x79c>
  401661:	e9 e0 05 00 00       	jmpq   401c46 <_Z11icache_goodPv+0xd95>
  401666:	c7 85 08 ff ff ff 00 	movl   $0x0,-0xf8(%rbp)
  40166d:	00 00 00 
  401670:	eb 0b                	jmp    40167d <_Z11icache_goodPv+0x7cc>
  401672:	83 45 f8 01          	addl   $0x1,-0x8(%rbp)
  401676:	83 85 08 ff ff ff 01 	addl   $0x1,-0xf8(%rbp)
  40167d:	83 bd 08 ff ff ff 63 	cmpl   $0x63,-0xf8(%rbp)
  401684:	7e ec                	jle    401672 <_Z11icache_goodPv+0x7c1>
  401686:	e9 bb 05 00 00       	jmpq   401c46 <_Z11icache_goodPv+0xd95>
  40168b:	c7 85 04 ff ff ff 00 	movl   $0x0,-0xfc(%rbp)
  401692:	00 00 00 
  401695:	eb 0b                	jmp    4016a2 <_Z11icache_goodPv+0x7f1>
  401697:	83 45 f8 01          	addl   $0x1,-0x8(%rbp)
  40169b:	83 85 04 ff ff ff 01 	addl   $0x1,-0xfc(%rbp)
  4016a2:	83 bd 04 ff ff ff 63 	cmpl   $0x63,-0xfc(%rbp)
  4016a9:	7e ec                	jle    401697 <_Z11icache_goodPv+0x7e6>
  4016ab:	e9 96 05 00 00       	jmpq   401c46 <_Z11icache_goodPv+0xd95>
  4016b0:	c7 85 00 ff ff ff 00 	movl   $0x0,-0x100(%rbp)
  4016b7:	00 00 00 
  4016ba:	eb 0b                	jmp    4016c7 <_Z11icache_goodPv+0x816>
  4016bc:	83 45 f8 01          	addl   $0x1,-0x8(%rbp)
  4016c0:	83 85 00 ff ff ff 01 	addl   $0x1,-0x100(%rbp)
  4016c7:	83 bd 00 ff ff ff 63 	cmpl   $0x63,-0x100(%rbp)
  4016ce:	7e ec                	jle    4016bc <_Z11icache_goodPv+0x80b>
  4016d0:	e9 71 05 00 00       	jmpq   401c46 <_Z11icache_goodPv+0xd95>
  4016d5:	c7 85 fc fe ff ff 00 	movl   $0x0,-0x104(%rbp)
  4016dc:	00 00 00 
  4016df:	eb 0b                	jmp    4016ec <_Z11icache_goodPv+0x83b>
  4016e1:	83 45 f8 01          	addl   $0x1,-0x8(%rbp)
  4016e5:	83 85 fc fe ff ff 01 	addl   $0x1,-0x104(%rbp)
  4016ec:	83 bd fc fe ff ff 63 	cmpl   $0x63,-0x104(%rbp)
  4016f3:	7e ec                	jle    4016e1 <_Z11icache_goodPv+0x830>
  4016f5:	e9 4c 05 00 00       	jmpq   401c46 <_Z11icache_goodPv+0xd95>
  4016fa:	c7 85 f8 fe ff ff 00 	movl   $0x0,-0x108(%rbp)
  401701:	00 00 00 
  401704:	eb 0b                	jmp    401711 <_Z11icache_goodPv+0x860>
  401706:	83 45 f8 01          	addl   $0x1,-0x8(%rbp)
  40170a:	83 85 f8 fe ff ff 01 	addl   $0x1,-0x108(%rbp)
  401711:	83 bd f8 fe ff ff 63 	cmpl   $0x63,-0x108(%rbp)
  401718:	7e ec                	jle    401706 <_Z11icache_goodPv+0x855>
  40171a:	e9 27 05 00 00       	jmpq   401c46 <_Z11icache_goodPv+0xd95>
  40171f:	c7 85 f4 fe ff ff 00 	movl   $0x0,-0x10c(%rbp)
  401726:	00 00 00 
  401729:	eb 0b                	jmp    401736 <_Z11icache_goodPv+0x885>
  40172b:	83 45 f8 01          	addl   $0x1,-0x8(%rbp)
  40172f:	83 85 f4 fe ff ff 01 	addl   $0x1,-0x10c(%rbp)
  401736:	83 bd f4 fe ff ff 63 	cmpl   $0x63,-0x10c(%rbp)
  40173d:	7e ec                	jle    40172b <_Z11icache_goodPv+0x87a>
  40173f:	e9 02 05 00 00       	jmpq   401c46 <_Z11icache_goodPv+0xd95>
  401744:	c7 85 f0 fe ff ff 00 	movl   $0x0,-0x110(%rbp)
  40174b:	00 00 00 
  40174e:	eb 0b                	jmp    40175b <_Z11icache_goodPv+0x8aa>
  401750:	83 45 f8 01          	addl   $0x1,-0x8(%rbp)
  401754:	83 85 f0 fe ff ff 01 	addl   $0x1,-0x110(%rbp)
  40175b:	83 bd f0 fe ff ff 63 	cmpl   $0x63,-0x110(%rbp)
  401762:	7e ec                	jle    401750 <_Z11icache_goodPv+0x89f>
  401764:	e9 dd 04 00 00       	jmpq   401c46 <_Z11icache_goodPv+0xd95>
  401769:	c7 85 ec fe ff ff 00 	movl   $0x0,-0x114(%rbp)
  401770:	00 00 00 
  401773:	eb 0b                	jmp    401780 <_Z11icache_goodPv+0x8cf>
  401775:	83 45 f8 01          	addl   $0x1,-0x8(%rbp)
  401779:	83 85 ec fe ff ff 01 	addl   $0x1,-0x114(%rbp)
  401780:	83 bd ec fe ff ff 63 	cmpl   $0x63,-0x114(%rbp)
  401787:	7e ec                	jle    401775 <_Z11icache_goodPv+0x8c4>
  401789:	e9 b8 04 00 00       	jmpq   401c46 <_Z11icache_goodPv+0xd95>
  40178e:	c7 85 e8 fe ff ff 00 	movl   $0x0,-0x118(%rbp)
  401795:	00 00 00 
  401798:	eb 0b                	jmp    4017a5 <_Z11icache_goodPv+0x8f4>
  40179a:	83 45 f8 01          	addl   $0x1,-0x8(%rbp)
  40179e:	83 85 e8 fe ff ff 01 	addl   $0x1,-0x118(%rbp)
  4017a5:	83 bd e8 fe ff ff 63 	cmpl   $0x63,-0x118(%rbp)
  4017ac:	7e ec                	jle    40179a <_Z11icache_goodPv+0x8e9>
  4017ae:	e9 93 04 00 00       	jmpq   401c46 <_Z11icache_goodPv+0xd95>
  4017b3:	c7 85 e4 fe ff ff 00 	movl   $0x0,-0x11c(%rbp)
  4017ba:	00 00 00 
  4017bd:	eb 0b                	jmp    4017ca <_Z11icache_goodPv+0x919>
  4017bf:	83 45 f8 01          	addl   $0x1,-0x8(%rbp)
  4017c3:	83 85 e4 fe ff ff 01 	addl   $0x1,-0x11c(%rbp)
  4017ca:	83 bd e4 fe ff ff 63 	cmpl   $0x63,-0x11c(%rbp)
  4017d1:	7e ec                	jle    4017bf <_Z11icache_goodPv+0x90e>
  4017d3:	e9 6e 04 00 00       	jmpq   401c46 <_Z11icache_goodPv+0xd95>
  4017d8:	c7 85 e0 fe ff ff 00 	movl   $0x0,-0x120(%rbp)
  4017df:	00 00 00 
  4017e2:	eb 0b                	jmp    4017ef <_Z11icache_goodPv+0x93e>
  4017e4:	83 45 f8 01          	addl   $0x1,-0x8(%rbp)
  4017e8:	83 85 e0 fe ff ff 01 	addl   $0x1,-0x120(%rbp)
  4017ef:	83 bd e0 fe ff ff 63 	cmpl   $0x63,-0x120(%rbp)
  4017f6:	7e ec                	jle    4017e4 <_Z11icache_goodPv+0x933>
  4017f8:	e9 49 04 00 00       	jmpq   401c46 <_Z11icache_goodPv+0xd95>
  4017fd:	c7 85 dc fe ff ff 00 	movl   $0x0,-0x124(%rbp)
  401804:	00 00 00 
  401807:	eb 0b                	jmp    401814 <_Z11icache_goodPv+0x963>
  401809:	83 45 f8 01          	addl   $0x1,-0x8(%rbp)
  40180d:	83 85 dc fe ff ff 01 	addl   $0x1,-0x124(%rbp)
  401814:	83 bd dc fe ff ff 63 	cmpl   $0x63,-0x124(%rbp)
  40181b:	7e ec                	jle    401809 <_Z11icache_goodPv+0x958>
  40181d:	e9 24 04 00 00       	jmpq   401c46 <_Z11icache_goodPv+0xd95>
  401822:	c7 85 d8 fe ff ff 00 	movl   $0x0,-0x128(%rbp)
  401829:	00 00 00 
  40182c:	eb 0b                	jmp    401839 <_Z11icache_goodPv+0x988>
  40182e:	83 45 f8 01          	addl   $0x1,-0x8(%rbp)
  401832:	83 85 d8 fe ff ff 01 	addl   $0x1,-0x128(%rbp)
  401839:	83 bd d8 fe ff ff 63 	cmpl   $0x63,-0x128(%rbp)
  401840:	7e ec                	jle    40182e <_Z11icache_goodPv+0x97d>
  401842:	e9 ff 03 00 00       	jmpq   401c46 <_Z11icache_goodPv+0xd95>
  401847:	c7 85 d4 fe ff ff 00 	movl   $0x0,-0x12c(%rbp)
  40184e:	00 00 00 
  401851:	eb 0b                	jmp    40185e <_Z11icache_goodPv+0x9ad>
  401853:	83 45 f8 01          	addl   $0x1,-0x8(%rbp)
  401857:	83 85 d4 fe ff ff 01 	addl   $0x1,-0x12c(%rbp)
  40185e:	83 bd d4 fe ff ff 63 	cmpl   $0x63,-0x12c(%rbp)
  401865:	7e ec                	jle    401853 <_Z11icache_goodPv+0x9a2>
  401867:	e9 da 03 00 00       	jmpq   401c46 <_Z11icache_goodPv+0xd95>
  40186c:	c7 85 d0 fe ff ff 00 	movl   $0x0,-0x130(%rbp)
  401873:	00 00 00 
  401876:	eb 0b                	jmp    401883 <_Z11icache_goodPv+0x9d2>
  401878:	83 45 f8 01          	addl   $0x1,-0x8(%rbp)
  40187c:	83 85 d0 fe ff ff 01 	addl   $0x1,-0x130(%rbp)
  401883:	83 bd d0 fe ff ff 63 	cmpl   $0x63,-0x130(%rbp)
  40188a:	7e ec                	jle    401878 <_Z11icache_goodPv+0x9c7>
  40188c:	e9 b5 03 00 00       	jmpq   401c46 <_Z11icache_goodPv+0xd95>
  401891:	c7 85 cc fe ff ff 00 	movl   $0x0,-0x134(%rbp)
  401898:	00 00 00 
  40189b:	eb 0b                	jmp    4018a8 <_Z11icache_goodPv+0x9f7>
  40189d:	83 45 f8 01          	addl   $0x1,-0x8(%rbp)
  4018a1:	83 85 cc fe ff ff 01 	addl   $0x1,-0x134(%rbp)
  4018a8:	83 bd cc fe ff ff 63 	cmpl   $0x63,-0x134(%rbp)
  4018af:	7e ec                	jle    40189d <_Z11icache_goodPv+0x9ec>
  4018b1:	e9 90 03 00 00       	jmpq   401c46 <_Z11icache_goodPv+0xd95>
  4018b6:	c7 85 c8 fe ff ff 00 	movl   $0x0,-0x138(%rbp)
  4018bd:	00 00 00 
  4018c0:	eb 0b                	jmp    4018cd <_Z11icache_goodPv+0xa1c>
  4018c2:	83 45 f8 01          	addl   $0x1,-0x8(%rbp)
  4018c6:	83 85 c8 fe ff ff 01 	addl   $0x1,-0x138(%rbp)
  4018cd:	83 bd c8 fe ff ff 63 	cmpl   $0x63,-0x138(%rbp)
  4018d4:	7e ec                	jle    4018c2 <_Z11icache_goodPv+0xa11>
  4018d6:	e9 6b 03 00 00       	jmpq   401c46 <_Z11icache_goodPv+0xd95>
  4018db:	c7 85 c4 fe ff ff 00 	movl   $0x0,-0x13c(%rbp)
  4018e2:	00 00 00 
  4018e5:	eb 0b                	jmp    4018f2 <_Z11icache_goodPv+0xa41>
  4018e7:	83 45 f8 01          	addl   $0x1,-0x8(%rbp)
  4018eb:	83 85 c4 fe ff ff 01 	addl   $0x1,-0x13c(%rbp)
  4018f2:	83 bd c4 fe ff ff 63 	cmpl   $0x63,-0x13c(%rbp)
  4018f9:	7e ec                	jle    4018e7 <_Z11icache_goodPv+0xa36>
  4018fb:	e9 46 03 00 00       	jmpq   401c46 <_Z11icache_goodPv+0xd95>
  401900:	c7 85 c0 fe ff ff 00 	movl   $0x0,-0x140(%rbp)
  401907:	00 00 00 
  40190a:	eb 0b                	jmp    401917 <_Z11icache_goodPv+0xa66>
  40190c:	83 45 f8 01          	addl   $0x1,-0x8(%rbp)
  401910:	83 85 c0 fe ff ff 01 	addl   $0x1,-0x140(%rbp)
  401917:	83 bd c0 fe ff ff 63 	cmpl   $0x63,-0x140(%rbp)
  40191e:	7e ec                	jle    40190c <_Z11icache_goodPv+0xa5b>
  401920:	e9 21 03 00 00       	jmpq   401c46 <_Z11icache_goodPv+0xd95>
  401925:	c7 85 bc fe ff ff 00 	movl   $0x0,-0x144(%rbp)
  40192c:	00 00 00 
  40192f:	eb 0b                	jmp    40193c <_Z11icache_goodPv+0xa8b>
  401931:	83 45 f8 01          	addl   $0x1,-0x8(%rbp)
  401935:	83 85 bc fe ff ff 01 	addl   $0x1,-0x144(%rbp)
  40193c:	83 bd bc fe ff ff 63 	cmpl   $0x63,-0x144(%rbp)
  401943:	7e ec                	jle    401931 <_Z11icache_goodPv+0xa80>
  401945:	e9 fc 02 00 00       	jmpq   401c46 <_Z11icache_goodPv+0xd95>
  40194a:	c7 85 b8 fe ff ff 00 	movl   $0x0,-0x148(%rbp)
  401951:	00 00 00 
  401954:	eb 0b                	jmp    401961 <_Z11icache_goodPv+0xab0>
  401956:	83 45 f8 01          	addl   $0x1,-0x8(%rbp)
  40195a:	83 85 b8 fe ff ff 01 	addl   $0x1,-0x148(%rbp)
  401961:	83 bd b8 fe ff ff 63 	cmpl   $0x63,-0x148(%rbp)
  401968:	7e ec                	jle    401956 <_Z11icache_goodPv+0xaa5>
  40196a:	e9 d7 02 00 00       	jmpq   401c46 <_Z11icache_goodPv+0xd95>
  40196f:	c7 85 b4 fe ff ff 00 	movl   $0x0,-0x14c(%rbp)
  401976:	00 00 00 
  401979:	eb 0b                	jmp    401986 <_Z11icache_goodPv+0xad5>
  40197b:	83 45 f8 01          	addl   $0x1,-0x8(%rbp)
  40197f:	83 85 b4 fe ff ff 01 	addl   $0x1,-0x14c(%rbp)
  401986:	83 bd b4 fe ff ff 63 	cmpl   $0x63,-0x14c(%rbp)
  40198d:	7e ec                	jle    40197b <_Z11icache_goodPv+0xaca>
  40198f:	e9 b2 02 00 00       	jmpq   401c46 <_Z11icache_goodPv+0xd95>
  401994:	c7 85 b0 fe ff ff 00 	movl   $0x0,-0x150(%rbp)
  40199b:	00 00 00 
  40199e:	eb 0b                	jmp    4019ab <_Z11icache_goodPv+0xafa>
  4019a0:	83 45 f8 01          	addl   $0x1,-0x8(%rbp)
  4019a4:	83 85 b0 fe ff ff 01 	addl   $0x1,-0x150(%rbp)
  4019ab:	83 bd b0 fe ff ff 63 	cmpl   $0x63,-0x150(%rbp)
  4019b2:	7e ec                	jle    4019a0 <_Z11icache_goodPv+0xaef>
  4019b4:	e9 8d 02 00 00       	jmpq   401c46 <_Z11icache_goodPv+0xd95>
  4019b9:	c7 85 ac fe ff ff 00 	movl   $0x0,-0x154(%rbp)
  4019c0:	00 00 00 
  4019c3:	eb 0b                	jmp    4019d0 <_Z11icache_goodPv+0xb1f>
  4019c5:	83 45 f8 01          	addl   $0x1,-0x8(%rbp)
  4019c9:	83 85 ac fe ff ff 01 	addl   $0x1,-0x154(%rbp)
  4019d0:	83 bd ac fe ff ff 63 	cmpl   $0x63,-0x154(%rbp)
  4019d7:	7e ec                	jle    4019c5 <_Z11icache_goodPv+0xb14>
  4019d9:	e9 68 02 00 00       	jmpq   401c46 <_Z11icache_goodPv+0xd95>
  4019de:	c7 85 a8 fe ff ff 00 	movl   $0x0,-0x158(%rbp)
  4019e5:	00 00 00 
  4019e8:	eb 0b                	jmp    4019f5 <_Z11icache_goodPv+0xb44>
  4019ea:	83 45 f8 01          	addl   $0x1,-0x8(%rbp)
  4019ee:	83 85 a8 fe ff ff 01 	addl   $0x1,-0x158(%rbp)
  4019f5:	83 bd a8 fe ff ff 63 	cmpl   $0x63,-0x158(%rbp)
  4019fc:	7e ec                	jle    4019ea <_Z11icache_goodPv+0xb39>
  4019fe:	e9 43 02 00 00       	jmpq   401c46 <_Z11icache_goodPv+0xd95>
  401a03:	c7 85 a4 fe ff ff 00 	movl   $0x0,-0x15c(%rbp)
  401a0a:	00 00 00 
  401a0d:	eb 0b                	jmp    401a1a <_Z11icache_goodPv+0xb69>
  401a0f:	83 45 f8 01          	addl   $0x1,-0x8(%rbp)
  401a13:	83 85 a4 fe ff ff 01 	addl   $0x1,-0x15c(%rbp)
  401a1a:	83 bd a4 fe ff ff 63 	cmpl   $0x63,-0x15c(%rbp)
  401a21:	7e ec                	jle    401a0f <_Z11icache_goodPv+0xb5e>
  401a23:	e9 1e 02 00 00       	jmpq   401c46 <_Z11icache_goodPv+0xd95>
  401a28:	c7 85 a0 fe ff ff 00 	movl   $0x0,-0x160(%rbp)
  401a2f:	00 00 00 
  401a32:	eb 0b                	jmp    401a3f <_Z11icache_goodPv+0xb8e>
  401a34:	83 45 f8 01          	addl   $0x1,-0x8(%rbp)
  401a38:	83 85 a0 fe ff ff 01 	addl   $0x1,-0x160(%rbp)
  401a3f:	83 bd a0 fe ff ff 63 	cmpl   $0x63,-0x160(%rbp)
  401a46:	7e ec                	jle    401a34 <_Z11icache_goodPv+0xb83>
  401a48:	e9 f9 01 00 00       	jmpq   401c46 <_Z11icache_goodPv+0xd95>
  401a4d:	c7 85 9c fe ff ff 00 	movl   $0x0,-0x164(%rbp)
  401a54:	00 00 00 
  401a57:	eb 0b                	jmp    401a64 <_Z11icache_goodPv+0xbb3>
  401a59:	83 45 f8 01          	addl   $0x1,-0x8(%rbp)
  401a5d:	83 85 9c fe ff ff 01 	addl   $0x1,-0x164(%rbp)
  401a64:	83 bd 9c fe ff ff 63 	cmpl   $0x63,-0x164(%rbp)
  401a6b:	7e ec                	jle    401a59 <_Z11icache_goodPv+0xba8>
  401a6d:	e9 d4 01 00 00       	jmpq   401c46 <_Z11icache_goodPv+0xd95>
  401a72:	c7 85 98 fe ff ff 00 	movl   $0x0,-0x168(%rbp)
  401a79:	00 00 00 
  401a7c:	eb 0b                	jmp    401a89 <_Z11icache_goodPv+0xbd8>
  401a7e:	83 45 f8 01          	addl   $0x1,-0x8(%rbp)
  401a82:	83 85 98 fe ff ff 01 	addl   $0x1,-0x168(%rbp)
  401a89:	83 bd 98 fe ff ff 63 	cmpl   $0x63,-0x168(%rbp)
  401a90:	7e ec                	jle    401a7e <_Z11icache_goodPv+0xbcd>
  401a92:	e9 af 01 00 00       	jmpq   401c46 <_Z11icache_goodPv+0xd95>
  401a97:	c7 85 94 fe ff ff 00 	movl   $0x0,-0x16c(%rbp)
  401a9e:	00 00 00 
  401aa1:	eb 0b                	jmp    401aae <_Z11icache_goodPv+0xbfd>
  401aa3:	83 45 f8 01          	addl   $0x1,-0x8(%rbp)
  401aa7:	83 85 94 fe ff ff 01 	addl   $0x1,-0x16c(%rbp)
  401aae:	83 bd 94 fe ff ff 63 	cmpl   $0x63,-0x16c(%rbp)
  401ab5:	7e ec                	jle    401aa3 <_Z11icache_goodPv+0xbf2>
  401ab7:	e9 8a 01 00 00       	jmpq   401c46 <_Z11icache_goodPv+0xd95>
  401abc:	c7 85 90 fe ff ff 00 	movl   $0x0,-0x170(%rbp)
  401ac3:	00 00 00 
  401ac6:	eb 0b                	jmp    401ad3 <_Z11icache_goodPv+0xc22>
  401ac8:	83 45 f8 01          	addl   $0x1,-0x8(%rbp)
  401acc:	83 85 90 fe ff ff 01 	addl   $0x1,-0x170(%rbp)
  401ad3:	83 bd 90 fe ff ff 63 	cmpl   $0x63,-0x170(%rbp)
  401ada:	7e ec                	jle    401ac8 <_Z11icache_goodPv+0xc17>
  401adc:	e9 65 01 00 00       	jmpq   401c46 <_Z11icache_goodPv+0xd95>
  401ae1:	c7 85 8c fe ff ff 00 	movl   $0x0,-0x174(%rbp)
  401ae8:	00 00 00 
  401aeb:	eb 0b                	jmp    401af8 <_Z11icache_goodPv+0xc47>
  401aed:	83 45 f8 01          	addl   $0x1,-0x8(%rbp)
  401af1:	83 85 8c fe ff ff 01 	addl   $0x1,-0x174(%rbp)
  401af8:	83 bd 8c fe ff ff 63 	cmpl   $0x63,-0x174(%rbp)
  401aff:	7e ec                	jle    401aed <_Z11icache_goodPv+0xc3c>
  401b01:	e9 40 01 00 00       	jmpq   401c46 <_Z11icache_goodPv+0xd95>
  401b06:	c7 85 88 fe ff ff 00 	movl   $0x0,-0x178(%rbp)
  401b0d:	00 00 00 
  401b10:	eb 0b                	jmp    401b1d <_Z11icache_goodPv+0xc6c>
  401b12:	83 45 f8 01          	addl   $0x1,-0x8(%rbp)
  401b16:	83 85 88 fe ff ff 01 	addl   $0x1,-0x178(%rbp)
  401b1d:	83 bd 88 fe ff ff 63 	cmpl   $0x63,-0x178(%rbp)
  401b24:	7e ec                	jle    401b12 <_Z11icache_goodPv+0xc61>
  401b26:	e9 1b 01 00 00       	jmpq   401c46 <_Z11icache_goodPv+0xd95>
  401b2b:	c7 85 84 fe ff ff 00 	movl   $0x0,-0x17c(%rbp)
  401b32:	00 00 00 
  401b35:	eb 0b                	jmp    401b42 <_Z11icache_goodPv+0xc91>
  401b37:	83 45 f8 01          	addl   $0x1,-0x8(%rbp)
  401b3b:	83 85 84 fe ff ff 01 	addl   $0x1,-0x17c(%rbp)
  401b42:	83 bd 84 fe ff ff 63 	cmpl   $0x63,-0x17c(%rbp)
  401b49:	7e ec                	jle    401b37 <_Z11icache_goodPv+0xc86>
  401b4b:	e9 f6 00 00 00       	jmpq   401c46 <_Z11icache_goodPv+0xd95>
  401b50:	c7 85 80 fe ff ff 00 	movl   $0x0,-0x180(%rbp)
  401b57:	00 00 00 
  401b5a:	eb 0b                	jmp    401b67 <_Z11icache_goodPv+0xcb6>
  401b5c:	83 45 f8 01          	addl   $0x1,-0x8(%rbp)
  401b60:	83 85 80 fe ff ff 01 	addl   $0x1,-0x180(%rbp)
  401b67:	83 bd 80 fe ff ff 63 	cmpl   $0x63,-0x180(%rbp)
  401b6e:	7e ec                	jle    401b5c <_Z11icache_goodPv+0xcab>
  401b70:	e9 d1 00 00 00       	jmpq   401c46 <_Z11icache_goodPv+0xd95>
  401b75:	c7 85 7c fe ff ff 00 	movl   $0x0,-0x184(%rbp)
  401b7c:	00 00 00 
  401b7f:	eb 0b                	jmp    401b8c <_Z11icache_goodPv+0xcdb>
  401b81:	83 45 f8 01          	addl   $0x1,-0x8(%rbp)
  401b85:	83 85 7c fe ff ff 01 	addl   $0x1,-0x184(%rbp)
  401b8c:	83 bd 7c fe ff ff 63 	cmpl   $0x63,-0x184(%rbp)
  401b93:	7e ec                	jle    401b81 <_Z11icache_goodPv+0xcd0>
  401b95:	e9 ac 00 00 00       	jmpq   401c46 <_Z11icache_goodPv+0xd95>
  401b9a:	c7 85 78 fe ff ff 00 	movl   $0x0,-0x188(%rbp)
  401ba1:	00 00 00 
  401ba4:	eb 0b                	jmp    401bb1 <_Z11icache_goodPv+0xd00>
  401ba6:	83 45 f8 01          	addl   $0x1,-0x8(%rbp)
  401baa:	83 85 78 fe ff ff 01 	addl   $0x1,-0x188(%rbp)
  401bb1:	83 bd 78 fe ff ff 63 	cmpl   $0x63,-0x188(%rbp)
  401bb8:	7e ec                	jle    401ba6 <_Z11icache_goodPv+0xcf5>
  401bba:	e9 87 00 00 00       	jmpq   401c46 <_Z11icache_goodPv+0xd95>
  401bbf:	c7 85 74 fe ff ff 00 	movl   $0x0,-0x18c(%rbp)
  401bc6:	00 00 00 
  401bc9:	eb 0b                	jmp    401bd6 <_Z11icache_goodPv+0xd25>
  401bcb:	83 45 f8 01          	addl   $0x1,-0x8(%rbp)
  401bcf:	83 85 74 fe ff ff 01 	addl   $0x1,-0x18c(%rbp)
  401bd6:	83 bd 74 fe ff ff 63 	cmpl   $0x63,-0x18c(%rbp)
  401bdd:	7e ec                	jle    401bcb <_Z11icache_goodPv+0xd1a>
  401bdf:	eb 65                	jmp    401c46 <_Z11icache_goodPv+0xd95>
  401be1:	c7 85 70 fe ff ff 00 	movl   $0x0,-0x190(%rbp)
  401be8:	00 00 00 
  401beb:	eb 0b                	jmp    401bf8 <_Z11icache_goodPv+0xd47>
  401bed:	83 45 f8 01          	addl   $0x1,-0x8(%rbp)
  401bf1:	83 85 70 fe ff ff 01 	addl   $0x1,-0x190(%rbp)
  401bf8:	83 bd 70 fe ff ff 63 	cmpl   $0x63,-0x190(%rbp)
  401bff:	7e ec                	jle    401bed <_Z11icache_goodPv+0xd3c>
  401c01:	eb 43                	jmp    401c46 <_Z11icache_goodPv+0xd95>
  401c03:	c7 85 6c fe ff ff 00 	movl   $0x0,-0x194(%rbp)
  401c0a:	00 00 00 
  401c0d:	eb 0b                	jmp    401c1a <_Z11icache_goodPv+0xd69>
  401c0f:	83 45 f8 01          	addl   $0x1,-0x8(%rbp)
  401c13:	83 85 6c fe ff ff 01 	addl   $0x1,-0x194(%rbp)
  401c1a:	83 bd 6c fe ff ff 63 	cmpl   $0x63,-0x194(%rbp)
  401c21:	7e ec                	jle    401c0f <_Z11icache_goodPv+0xd5e>
  401c23:	eb 21                	jmp    401c46 <_Z11icache_goodPv+0xd95>
  401c25:	c7 85 68 fe ff ff 00 	movl   $0x0,-0x198(%rbp)
  401c2c:	00 00 00 
  401c2f:	eb 0b                	jmp    401c3c <_Z11icache_goodPv+0xd8b>
  401c31:	83 45 f8 01          	addl   $0x1,-0x8(%rbp)
  401c35:	83 85 68 fe ff ff 01 	addl   $0x1,-0x198(%rbp)
  401c3c:	83 bd 68 fe ff ff 63 	cmpl   $0x63,-0x198(%rbp)
  401c43:	7e ec                	jle    401c31 <_Z11icache_goodPv+0xd80>
  401c45:	90                   	nop
  401c46:	83 45 fc 01          	addl   $0x1,-0x4(%rbp)
  401c4a:	81 7d fc 0f 27 00 00 	cmpl   $0x270f,-0x4(%rbp)
  401c51:	0f 8e 78 f2 ff ff    	jle    400ecf <_Z11icache_goodPv+0x1e>
  401c57:	c9                   	leaveq 
  401c58:	c3                   	retq   

