  401c59:	55                   	push   %rbp
  401c5a:	48 89 e5             	mov    %rsp,%rbp
  401c5d:	48 81 ec c0 01 00 00 	sub    $0x1c0,%rsp
  401c64:	48 89 bd 48 fe ff ff 	mov    %rdi,-0x1b8(%rbp)
  401c6b:	48 8d 85 60 fe ff ff 	lea    -0x1a0(%rbp),%rax
  401c72:	be 01 00 00 00       	mov    $0x1,%esi
  401c77:	48 89 c7             	mov    %rax,%rdi
  401c7a:	e8 4d 0e 00 00       	callq  402acc <_ZNSt26linear_congruential_engineImLm16807ELm0ELm2147483647EEC1Em>
  401c7f:	48 8d 85 50 fe ff ff 	lea    -0x1b0(%rbp),%rax
  401c86:	ba 64 00 00 00       	mov    $0x64,%edx
  401c8b:	be 00 00 00 00       	mov    $0x0,%esi
  401c90:	48 89 c7             	mov    %rax,%rdi
  401c93:	e8 5a 0e 00 00       	callq  402af2 <_ZNSt24uniform_int_distributionIiEC1Eii>
  401c98:	c7 45 fc 00 00 00 00 	movl   $0x0,-0x4(%rbp)
  401c9f:	e9 92 0d 00 00       	jmpq   402a36 <_Z11icache_missPv+0xddd>
  401ca4:	c7 45 f8 00 00 00 00 	movl   $0x0,-0x8(%rbp)
  401cab:	48 8d 95 60 fe ff ff 	lea    -0x1a0(%rbp),%rdx
  401cb2:	48 8d 85 50 fe ff ff 	lea    -0x1b0(%rbp),%rax
  401cb9:	48 89 d6             	mov    %rdx,%rsi
  401cbc:	48 89 c7             	mov    %rax,%rdi
  401cbf:	e8 56 0e 00 00       	callq  402b1a <_ZNSt24uniform_int_distributionIiEclISt26linear_congruential_engineImLm16807ELm0ELm2147483647EEEEiRT_>
  401cc4:	83 f8 63             	cmp    $0x63,%eax
  401cc7:	0f 87 65 0d 00 00    	ja     402a32 <_Z11icache_missPv+0xdd9>
  401ccd:	89 c0                	mov    %eax,%eax
  401ccf:	48 8b 04 c5 a8 3d 40 	mov    0x403da8(,%rax,8),%rax
  401cd6:	00 
  401cd7:	ff e0                	jmpq   *%rax
  401cd9:	c7 45 f4 00 00 00 00 	movl   $0x0,-0xc(%rbp)
  401ce0:	eb 08                	jmp    401cea <_Z11icache_missPv+0x91>
  401ce2:	83 45 f8 01          	addl   $0x1,-0x8(%rbp)
  401ce6:	83 45 f4 01          	addl   $0x1,-0xc(%rbp)
  401cea:	83 7d f4 63          	cmpl   $0x63,-0xc(%rbp)
  401cee:	7e f2                	jle    401ce2 <_Z11icache_missPv+0x89>
  401cf0:	e9 3d 0d 00 00       	jmpq   402a32 <_Z11icache_missPv+0xdd9>
  401cf5:	c7 45 f0 00 00 00 00 	movl   $0x0,-0x10(%rbp)
  401cfc:	eb 08                	jmp    401d06 <_Z11icache_missPv+0xad>
  401cfe:	83 45 f8 01          	addl   $0x1,-0x8(%rbp)
  401d02:	83 45 f0 01          	addl   $0x1,-0x10(%rbp)
  401d06:	83 7d f0 63          	cmpl   $0x63,-0x10(%rbp)
  401d0a:	7e f2                	jle    401cfe <_Z11icache_missPv+0xa5>
  401d0c:	e9 21 0d 00 00       	jmpq   402a32 <_Z11icache_missPv+0xdd9>
  401d11:	c7 45 ec 00 00 00 00 	movl   $0x0,-0x14(%rbp)
  401d18:	eb 08                	jmp    401d22 <_Z11icache_missPv+0xc9>
  401d1a:	83 45 f8 01          	addl   $0x1,-0x8(%rbp)
  401d1e:	83 45 ec 01          	addl   $0x1,-0x14(%rbp)
  401d22:	83 7d ec 63          	cmpl   $0x63,-0x14(%rbp)
  401d26:	7e f2                	jle    401d1a <_Z11icache_missPv+0xc1>
  401d28:	e9 05 0d 00 00       	jmpq   402a32 <_Z11icache_missPv+0xdd9>
  401d2d:	c7 45 e8 00 00 00 00 	movl   $0x0,-0x18(%rbp)
  401d34:	eb 08                	jmp    401d3e <_Z11icache_missPv+0xe5>
  401d36:	83 45 f8 01          	addl   $0x1,-0x8(%rbp)
  401d3a:	83 45 e8 01          	addl   $0x1,-0x18(%rbp)
  401d3e:	83 7d e8 63          	cmpl   $0x63,-0x18(%rbp)
  401d42:	7e f2                	jle    401d36 <_Z11icache_missPv+0xdd>
  401d44:	e9 e9 0c 00 00       	jmpq   402a32 <_Z11icache_missPv+0xdd9>
  401d49:	c7 45 e4 00 00 00 00 	movl   $0x0,-0x1c(%rbp)
  401d50:	eb 08                	jmp    401d5a <_Z11icache_missPv+0x101>
  401d52:	83 45 f8 01          	addl   $0x1,-0x8(%rbp)
  401d56:	83 45 e4 01          	addl   $0x1,-0x1c(%rbp)
  401d5a:	83 7d e4 63          	cmpl   $0x63,-0x1c(%rbp)
  401d5e:	7e f2                	jle    401d52 <_Z11icache_missPv+0xf9>
  401d60:	e9 cd 0c 00 00       	jmpq   402a32 <_Z11icache_missPv+0xdd9>
  401d65:	c7 45 e0 00 00 00 00 	movl   $0x0,-0x20(%rbp)
  401d6c:	eb 08                	jmp    401d76 <_Z11icache_missPv+0x11d>
  401d6e:	83 45 f8 01          	addl   $0x1,-0x8(%rbp)
  401d72:	83 45 e0 01          	addl   $0x1,-0x20(%rbp)
  401d76:	83 7d e0 63          	cmpl   $0x63,-0x20(%rbp)
  401d7a:	7e f2                	jle    401d6e <_Z11icache_missPv+0x115>
  401d7c:	e9 b1 0c 00 00       	jmpq   402a32 <_Z11icache_missPv+0xdd9>
  401d81:	c7 45 dc 00 00 00 00 	movl   $0x0,-0x24(%rbp)
  401d88:	eb 08                	jmp    401d92 <_Z11icache_missPv+0x139>
  401d8a:	83 45 f8 01          	addl   $0x1,-0x8(%rbp)
  401d8e:	83 45 dc 01          	addl   $0x1,-0x24(%rbp)
  401d92:	83 7d dc 63          	cmpl   $0x63,-0x24(%rbp)
  401d96:	7e f2                	jle    401d8a <_Z11icache_missPv+0x131>
  401d98:	e9 95 0c 00 00       	jmpq   402a32 <_Z11icache_missPv+0xdd9>
  401d9d:	c7 45 d8 00 00 00 00 	movl   $0x0,-0x28(%rbp)
  401da4:	eb 08                	jmp    401dae <_Z11icache_missPv+0x155>
  401da6:	83 45 f8 01          	addl   $0x1,-0x8(%rbp)
  401daa:	83 45 d8 01          	addl   $0x1,-0x28(%rbp)
  401dae:	83 7d d8 63          	cmpl   $0x63,-0x28(%rbp)
  401db2:	7e f2                	jle    401da6 <_Z11icache_missPv+0x14d>
  401db4:	e9 79 0c 00 00       	jmpq   402a32 <_Z11icache_missPv+0xdd9>
  401db9:	c7 45 d4 00 00 00 00 	movl   $0x0,-0x2c(%rbp)
  401dc0:	eb 08                	jmp    401dca <_Z11icache_missPv+0x171>
  401dc2:	83 45 f8 01          	addl   $0x1,-0x8(%rbp)
  401dc6:	83 45 d4 01          	addl   $0x1,-0x2c(%rbp)
  401dca:	83 7d d4 63          	cmpl   $0x63,-0x2c(%rbp)
  401dce:	7e f2                	jle    401dc2 <_Z11icache_missPv+0x169>
  401dd0:	e9 5d 0c 00 00       	jmpq   402a32 <_Z11icache_missPv+0xdd9>
  401dd5:	c7 45 d0 00 00 00 00 	movl   $0x0,-0x30(%rbp)
  401ddc:	eb 08                	jmp    401de6 <_Z11icache_missPv+0x18d>
  401dde:	83 45 f8 01          	addl   $0x1,-0x8(%rbp)
  401de2:	83 45 d0 01          	addl   $0x1,-0x30(%rbp)
  401de6:	83 7d d0 63          	cmpl   $0x63,-0x30(%rbp)
  401dea:	7e f2                	jle    401dde <_Z11icache_missPv+0x185>
  401dec:	e9 41 0c 00 00       	jmpq   402a32 <_Z11icache_missPv+0xdd9>
  401df1:	c7 45 cc 00 00 00 00 	movl   $0x0,-0x34(%rbp)
  401df8:	eb 08                	jmp    401e02 <_Z11icache_missPv+0x1a9>
  401dfa:	83 45 f8 01          	addl   $0x1,-0x8(%rbp)
  401dfe:	83 45 cc 01          	addl   $0x1,-0x34(%rbp)
  401e02:	83 7d cc 63          	cmpl   $0x63,-0x34(%rbp)
  401e06:	7e f2                	jle    401dfa <_Z11icache_missPv+0x1a1>
  401e08:	e9 25 0c 00 00       	jmpq   402a32 <_Z11icache_missPv+0xdd9>
  401e0d:	c7 45 c8 00 00 00 00 	movl   $0x0,-0x38(%rbp)
  401e14:	eb 08                	jmp    401e1e <_Z11icache_missPv+0x1c5>
  401e16:	83 45 f8 01          	addl   $0x1,-0x8(%rbp)
  401e1a:	83 45 c8 01          	addl   $0x1,-0x38(%rbp)
  401e1e:	83 7d c8 63          	cmpl   $0x63,-0x38(%rbp)
  401e22:	7e f2                	jle    401e16 <_Z11icache_missPv+0x1bd>
  401e24:	e9 09 0c 00 00       	jmpq   402a32 <_Z11icache_missPv+0xdd9>
  401e29:	c7 45 c4 00 00 00 00 	movl   $0x0,-0x3c(%rbp)
  401e30:	eb 08                	jmp    401e3a <_Z11icache_missPv+0x1e1>
  401e32:	83 45 f8 01          	addl   $0x1,-0x8(%rbp)
  401e36:	83 45 c4 01          	addl   $0x1,-0x3c(%rbp)
  401e3a:	83 7d c4 63          	cmpl   $0x63,-0x3c(%rbp)
  401e3e:	7e f2                	jle    401e32 <_Z11icache_missPv+0x1d9>
  401e40:	e9 ed 0b 00 00       	jmpq   402a32 <_Z11icache_missPv+0xdd9>
  401e45:	c7 45 c0 00 00 00 00 	movl   $0x0,-0x40(%rbp)
  401e4c:	eb 08                	jmp    401e56 <_Z11icache_missPv+0x1fd>
  401e4e:	83 45 f8 01          	addl   $0x1,-0x8(%rbp)
  401e52:	83 45 c0 01          	addl   $0x1,-0x40(%rbp)
  401e56:	83 7d c0 63          	cmpl   $0x63,-0x40(%rbp)
  401e5a:	7e f2                	jle    401e4e <_Z11icache_missPv+0x1f5>
  401e5c:	e9 d1 0b 00 00       	jmpq   402a32 <_Z11icache_missPv+0xdd9>
  401e61:	c7 45 bc 00 00 00 00 	movl   $0x0,-0x44(%rbp)
  401e68:	eb 08                	jmp    401e72 <_Z11icache_missPv+0x219>
  401e6a:	83 45 f8 01          	addl   $0x1,-0x8(%rbp)
  401e6e:	83 45 bc 01          	addl   $0x1,-0x44(%rbp)
  401e72:	83 7d bc 63          	cmpl   $0x63,-0x44(%rbp)
  401e76:	7e f2                	jle    401e6a <_Z11icache_missPv+0x211>
  401e78:	e9 b5 0b 00 00       	jmpq   402a32 <_Z11icache_missPv+0xdd9>
  401e7d:	c7 45 b8 00 00 00 00 	movl   $0x0,-0x48(%rbp)
  401e84:	eb 08                	jmp    401e8e <_Z11icache_missPv+0x235>
  401e86:	83 45 f8 01          	addl   $0x1,-0x8(%rbp)
  401e8a:	83 45 b8 01          	addl   $0x1,-0x48(%rbp)
  401e8e:	83 7d b8 63          	cmpl   $0x63,-0x48(%rbp)
  401e92:	7e f2                	jle    401e86 <_Z11icache_missPv+0x22d>
  401e94:	e9 99 0b 00 00       	jmpq   402a32 <_Z11icache_missPv+0xdd9>
  401e99:	c7 45 b4 00 00 00 00 	movl   $0x0,-0x4c(%rbp)
  401ea0:	eb 08                	jmp    401eaa <_Z11icache_missPv+0x251>
  401ea2:	83 45 f8 01          	addl   $0x1,-0x8(%rbp)
  401ea6:	83 45 b4 01          	addl   $0x1,-0x4c(%rbp)
  401eaa:	83 7d b4 63          	cmpl   $0x63,-0x4c(%rbp)
  401eae:	7e f2                	jle    401ea2 <_Z11icache_missPv+0x249>
  401eb0:	e9 7d 0b 00 00       	jmpq   402a32 <_Z11icache_missPv+0xdd9>
  401eb5:	c7 45 b0 00 00 00 00 	movl   $0x0,-0x50(%rbp)
  401ebc:	eb 08                	jmp    401ec6 <_Z11icache_missPv+0x26d>
  401ebe:	83 45 f8 01          	addl   $0x1,-0x8(%rbp)
  401ec2:	83 45 b0 01          	addl   $0x1,-0x50(%rbp)
  401ec6:	83 7d b0 63          	cmpl   $0x63,-0x50(%rbp)
  401eca:	7e f2                	jle    401ebe <_Z11icache_missPv+0x265>
  401ecc:	e9 61 0b 00 00       	jmpq   402a32 <_Z11icache_missPv+0xdd9>
  401ed1:	c7 45 ac 00 00 00 00 	movl   $0x0,-0x54(%rbp)
  401ed8:	eb 08                	jmp    401ee2 <_Z11icache_missPv+0x289>
  401eda:	83 45 f8 01          	addl   $0x1,-0x8(%rbp)
  401ede:	83 45 ac 01          	addl   $0x1,-0x54(%rbp)
  401ee2:	83 7d ac 63          	cmpl   $0x63,-0x54(%rbp)
  401ee6:	7e f2                	jle    401eda <_Z11icache_missPv+0x281>
  401ee8:	e9 45 0b 00 00       	jmpq   402a32 <_Z11icache_missPv+0xdd9>
  401eed:	c7 45 a8 00 00 00 00 	movl   $0x0,-0x58(%rbp)
  401ef4:	eb 08                	jmp    401efe <_Z11icache_missPv+0x2a5>
  401ef6:	83 45 f8 01          	addl   $0x1,-0x8(%rbp)
  401efa:	83 45 a8 01          	addl   $0x1,-0x58(%rbp)
  401efe:	83 7d a8 63          	cmpl   $0x63,-0x58(%rbp)
  401f02:	7e f2                	jle    401ef6 <_Z11icache_missPv+0x29d>
  401f04:	e9 29 0b 00 00       	jmpq   402a32 <_Z11icache_missPv+0xdd9>
  401f09:	c7 45 a4 00 00 00 00 	movl   $0x0,-0x5c(%rbp)
  401f10:	eb 08                	jmp    401f1a <_Z11icache_missPv+0x2c1>
  401f12:	83 45 f8 01          	addl   $0x1,-0x8(%rbp)
  401f16:	83 45 a4 01          	addl   $0x1,-0x5c(%rbp)
  401f1a:	83 7d a4 63          	cmpl   $0x63,-0x5c(%rbp)
  401f1e:	7e f2                	jle    401f12 <_Z11icache_missPv+0x2b9>
  401f20:	e9 0d 0b 00 00       	jmpq   402a32 <_Z11icache_missPv+0xdd9>
  401f25:	c7 45 a0 00 00 00 00 	movl   $0x0,-0x60(%rbp)
  401f2c:	eb 08                	jmp    401f36 <_Z11icache_missPv+0x2dd>
  401f2e:	83 45 f8 01          	addl   $0x1,-0x8(%rbp)
  401f32:	83 45 a0 01          	addl   $0x1,-0x60(%rbp)
  401f36:	83 7d a0 63          	cmpl   $0x63,-0x60(%rbp)
  401f3a:	7e f2                	jle    401f2e <_Z11icache_missPv+0x2d5>
  401f3c:	e9 f1 0a 00 00       	jmpq   402a32 <_Z11icache_missPv+0xdd9>
  401f41:	c7 45 9c 00 00 00 00 	movl   $0x0,-0x64(%rbp)
  401f48:	eb 08                	jmp    401f52 <_Z11icache_missPv+0x2f9>
  401f4a:	83 45 f8 01          	addl   $0x1,-0x8(%rbp)
  401f4e:	83 45 9c 01          	addl   $0x1,-0x64(%rbp)
  401f52:	83 7d 9c 63          	cmpl   $0x63,-0x64(%rbp)
  401f56:	7e f2                	jle    401f4a <_Z11icache_missPv+0x2f1>
  401f58:	e9 d5 0a 00 00       	jmpq   402a32 <_Z11icache_missPv+0xdd9>
  401f5d:	c7 45 98 00 00 00 00 	movl   $0x0,-0x68(%rbp)
  401f64:	eb 08                	jmp    401f6e <_Z11icache_missPv+0x315>
  401f66:	83 45 f8 01          	addl   $0x1,-0x8(%rbp)
  401f6a:	83 45 98 01          	addl   $0x1,-0x68(%rbp)
  401f6e:	83 7d 98 63          	cmpl   $0x63,-0x68(%rbp)
  401f72:	7e f2                	jle    401f66 <_Z11icache_missPv+0x30d>
  401f74:	e9 b9 0a 00 00       	jmpq   402a32 <_Z11icache_missPv+0xdd9>
  401f79:	c7 45 94 00 00 00 00 	movl   $0x0,-0x6c(%rbp)
  401f80:	eb 08                	jmp    401f8a <_Z11icache_missPv+0x331>
  401f82:	83 45 f8 01          	addl   $0x1,-0x8(%rbp)
  401f86:	83 45 94 01          	addl   $0x1,-0x6c(%rbp)
  401f8a:	83 7d 94 63          	cmpl   $0x63,-0x6c(%rbp)
  401f8e:	7e f2                	jle    401f82 <_Z11icache_missPv+0x329>
  401f90:	e9 9d 0a 00 00       	jmpq   402a32 <_Z11icache_missPv+0xdd9>
  401f95:	c7 45 90 00 00 00 00 	movl   $0x0,-0x70(%rbp)
  401f9c:	eb 08                	jmp    401fa6 <_Z11icache_missPv+0x34d>
  401f9e:	83 45 f8 01          	addl   $0x1,-0x8(%rbp)
  401fa2:	83 45 90 01          	addl   $0x1,-0x70(%rbp)
  401fa6:	83 7d 90 63          	cmpl   $0x63,-0x70(%rbp)
  401faa:	7e f2                	jle    401f9e <_Z11icache_missPv+0x345>
  401fac:	e9 81 0a 00 00       	jmpq   402a32 <_Z11icache_missPv+0xdd9>
  401fb1:	c7 45 8c 00 00 00 00 	movl   $0x0,-0x74(%rbp)
  401fb8:	eb 08                	jmp    401fc2 <_Z11icache_missPv+0x369>
  401fba:	83 45 f8 01          	addl   $0x1,-0x8(%rbp)
  401fbe:	83 45 8c 01          	addl   $0x1,-0x74(%rbp)
  401fc2:	83 7d 8c 63          	cmpl   $0x63,-0x74(%rbp)
  401fc6:	7e f2                	jle    401fba <_Z11icache_missPv+0x361>
  401fc8:	e9 65 0a 00 00       	jmpq   402a32 <_Z11icache_missPv+0xdd9>
  401fcd:	c7 45 88 00 00 00 00 	movl   $0x0,-0x78(%rbp)
  401fd4:	eb 08                	jmp    401fde <_Z11icache_missPv+0x385>
  401fd6:	83 45 f8 01          	addl   $0x1,-0x8(%rbp)
  401fda:	83 45 88 01          	addl   $0x1,-0x78(%rbp)
  401fde:	83 7d 88 63          	cmpl   $0x63,-0x78(%rbp)
  401fe2:	7e f2                	jle    401fd6 <_Z11icache_missPv+0x37d>
  401fe4:	e9 49 0a 00 00       	jmpq   402a32 <_Z11icache_missPv+0xdd9>
  401fe9:	c7 45 84 00 00 00 00 	movl   $0x0,-0x7c(%rbp)
  401ff0:	eb 08                	jmp    401ffa <_Z11icache_missPv+0x3a1>
  401ff2:	83 45 f8 01          	addl   $0x1,-0x8(%rbp)
  401ff6:	83 45 84 01          	addl   $0x1,-0x7c(%rbp)
  401ffa:	83 7d 84 63          	cmpl   $0x63,-0x7c(%rbp)
  401ffe:	7e f2                	jle    401ff2 <_Z11icache_missPv+0x399>
  402000:	e9 2d 0a 00 00       	jmpq   402a32 <_Z11icache_missPv+0xdd9>
  402005:	c7 45 80 00 00 00 00 	movl   $0x0,-0x80(%rbp)
  40200c:	eb 08                	jmp    402016 <_Z11icache_missPv+0x3bd>
  40200e:	83 45 f8 01          	addl   $0x1,-0x8(%rbp)
  402012:	83 45 80 01          	addl   $0x1,-0x80(%rbp)
  402016:	83 7d 80 63          	cmpl   $0x63,-0x80(%rbp)
  40201a:	7e f2                	jle    40200e <_Z11icache_missPv+0x3b5>
  40201c:	e9 11 0a 00 00       	jmpq   402a32 <_Z11icache_missPv+0xdd9>
  402021:	c7 85 7c ff ff ff 00 	movl   $0x0,-0x84(%rbp)
  402028:	00 00 00 
  40202b:	eb 0b                	jmp    402038 <_Z11icache_missPv+0x3df>
  40202d:	83 45 f8 01          	addl   $0x1,-0x8(%rbp)
  402031:	83 85 7c ff ff ff 01 	addl   $0x1,-0x84(%rbp)
  402038:	83 bd 7c ff ff ff 63 	cmpl   $0x63,-0x84(%rbp)
  40203f:	7e ec                	jle    40202d <_Z11icache_missPv+0x3d4>
  402041:	e9 ec 09 00 00       	jmpq   402a32 <_Z11icache_missPv+0xdd9>
  402046:	c7 85 78 ff ff ff 00 	movl   $0x0,-0x88(%rbp)
  40204d:	00 00 00 
  402050:	eb 0b                	jmp    40205d <_Z11icache_missPv+0x404>
  402052:	83 45 f8 01          	addl   $0x1,-0x8(%rbp)
  402056:	83 85 78 ff ff ff 01 	addl   $0x1,-0x88(%rbp)
  40205d:	83 bd 78 ff ff ff 63 	cmpl   $0x63,-0x88(%rbp)
  402064:	7e ec                	jle    402052 <_Z11icache_missPv+0x3f9>
  402066:	e9 c7 09 00 00       	jmpq   402a32 <_Z11icache_missPv+0xdd9>
  40206b:	c7 85 74 ff ff ff 00 	movl   $0x0,-0x8c(%rbp)
  402072:	00 00 00 
  402075:	eb 0b                	jmp    402082 <_Z11icache_missPv+0x429>
  402077:	83 45 f8 01          	addl   $0x1,-0x8(%rbp)
  40207b:	83 85 74 ff ff ff 01 	addl   $0x1,-0x8c(%rbp)
  402082:	83 bd 74 ff ff ff 63 	cmpl   $0x63,-0x8c(%rbp)
  402089:	7e ec                	jle    402077 <_Z11icache_missPv+0x41e>
  40208b:	e9 a2 09 00 00       	jmpq   402a32 <_Z11icache_missPv+0xdd9>
  402090:	c7 85 70 ff ff ff 00 	movl   $0x0,-0x90(%rbp)
  402097:	00 00 00 
  40209a:	eb 0b                	jmp    4020a7 <_Z11icache_missPv+0x44e>
  40209c:	83 45 f8 01          	addl   $0x1,-0x8(%rbp)
  4020a0:	83 85 70 ff ff ff 01 	addl   $0x1,-0x90(%rbp)
  4020a7:	83 bd 70 ff ff ff 63 	cmpl   $0x63,-0x90(%rbp)
  4020ae:	7e ec                	jle    40209c <_Z11icache_missPv+0x443>
  4020b0:	e9 7d 09 00 00       	jmpq   402a32 <_Z11icache_missPv+0xdd9>
  4020b5:	c7 85 6c ff ff ff 00 	movl   $0x0,-0x94(%rbp)
  4020bc:	00 00 00 
  4020bf:	eb 0b                	jmp    4020cc <_Z11icache_missPv+0x473>
  4020c1:	83 45 f8 01          	addl   $0x1,-0x8(%rbp)
  4020c5:	83 85 6c ff ff ff 01 	addl   $0x1,-0x94(%rbp)
  4020cc:	83 bd 6c ff ff ff 63 	cmpl   $0x63,-0x94(%rbp)
  4020d3:	7e ec                	jle    4020c1 <_Z11icache_missPv+0x468>
  4020d5:	e9 58 09 00 00       	jmpq   402a32 <_Z11icache_missPv+0xdd9>
  4020da:	c7 85 68 ff ff ff 00 	movl   $0x0,-0x98(%rbp)
  4020e1:	00 00 00 
  4020e4:	eb 0b                	jmp    4020f1 <_Z11icache_missPv+0x498>
  4020e6:	83 45 f8 01          	addl   $0x1,-0x8(%rbp)
  4020ea:	83 85 68 ff ff ff 01 	addl   $0x1,-0x98(%rbp)
  4020f1:	83 bd 68 ff ff ff 63 	cmpl   $0x63,-0x98(%rbp)
  4020f8:	7e ec                	jle    4020e6 <_Z11icache_missPv+0x48d>
  4020fa:	e9 33 09 00 00       	jmpq   402a32 <_Z11icache_missPv+0xdd9>
  4020ff:	c7 85 64 ff ff ff 00 	movl   $0x0,-0x9c(%rbp)
  402106:	00 00 00 
  402109:	eb 0b                	jmp    402116 <_Z11icache_missPv+0x4bd>
  40210b:	83 45 f8 01          	addl   $0x1,-0x8(%rbp)
  40210f:	83 85 64 ff ff ff 01 	addl   $0x1,-0x9c(%rbp)
  402116:	83 bd 64 ff ff ff 63 	cmpl   $0x63,-0x9c(%rbp)
  40211d:	7e ec                	jle    40210b <_Z11icache_missPv+0x4b2>
  40211f:	e9 0e 09 00 00       	jmpq   402a32 <_Z11icache_missPv+0xdd9>
  402124:	c7 85 60 ff ff ff 00 	movl   $0x0,-0xa0(%rbp)
  40212b:	00 00 00 
  40212e:	eb 0b                	jmp    40213b <_Z11icache_missPv+0x4e2>
  402130:	83 45 f8 01          	addl   $0x1,-0x8(%rbp)
  402134:	83 85 60 ff ff ff 01 	addl   $0x1,-0xa0(%rbp)
  40213b:	83 bd 60 ff ff ff 63 	cmpl   $0x63,-0xa0(%rbp)
  402142:	7e ec                	jle    402130 <_Z11icache_missPv+0x4d7>
  402144:	e9 e9 08 00 00       	jmpq   402a32 <_Z11icache_missPv+0xdd9>
  402149:	c7 85 5c ff ff ff 00 	movl   $0x0,-0xa4(%rbp)
  402150:	00 00 00 
  402153:	eb 0b                	jmp    402160 <_Z11icache_missPv+0x507>
  402155:	83 45 f8 01          	addl   $0x1,-0x8(%rbp)
  402159:	83 85 5c ff ff ff 01 	addl   $0x1,-0xa4(%rbp)
  402160:	83 bd 5c ff ff ff 63 	cmpl   $0x63,-0xa4(%rbp)
  402167:	7e ec                	jle    402155 <_Z11icache_missPv+0x4fc>
  402169:	e9 c4 08 00 00       	jmpq   402a32 <_Z11icache_missPv+0xdd9>
  40216e:	c7 85 58 ff ff ff 00 	movl   $0x0,-0xa8(%rbp)
  402175:	00 00 00 
  402178:	eb 0b                	jmp    402185 <_Z11icache_missPv+0x52c>
  40217a:	83 45 f8 01          	addl   $0x1,-0x8(%rbp)
  40217e:	83 85 58 ff ff ff 01 	addl   $0x1,-0xa8(%rbp)
  402185:	83 bd 58 ff ff ff 63 	cmpl   $0x63,-0xa8(%rbp)
  40218c:	7e ec                	jle    40217a <_Z11icache_missPv+0x521>
  40218e:	e9 9f 08 00 00       	jmpq   402a32 <_Z11icache_missPv+0xdd9>
  402193:	c7 85 54 ff ff ff 00 	movl   $0x0,-0xac(%rbp)
  40219a:	00 00 00 
  40219d:	eb 0b                	jmp    4021aa <_Z11icache_missPv+0x551>
  40219f:	83 45 f8 01          	addl   $0x1,-0x8(%rbp)
  4021a3:	83 85 54 ff ff ff 01 	addl   $0x1,-0xac(%rbp)
  4021aa:	83 bd 54 ff ff ff 63 	cmpl   $0x63,-0xac(%rbp)
  4021b1:	7e ec                	jle    40219f <_Z11icache_missPv+0x546>
  4021b3:	e9 7a 08 00 00       	jmpq   402a32 <_Z11icache_missPv+0xdd9>
  4021b8:	c7 85 50 ff ff ff 00 	movl   $0x0,-0xb0(%rbp)
  4021bf:	00 00 00 
  4021c2:	eb 0b                	jmp    4021cf <_Z11icache_missPv+0x576>
  4021c4:	83 45 f8 01          	addl   $0x1,-0x8(%rbp)
  4021c8:	83 85 50 ff ff ff 01 	addl   $0x1,-0xb0(%rbp)
  4021cf:	83 bd 50 ff ff ff 63 	cmpl   $0x63,-0xb0(%rbp)
  4021d6:	7e ec                	jle    4021c4 <_Z11icache_missPv+0x56b>
  4021d8:	e9 55 08 00 00       	jmpq   402a32 <_Z11icache_missPv+0xdd9>
  4021dd:	c7 85 4c ff ff ff 00 	movl   $0x0,-0xb4(%rbp)
  4021e4:	00 00 00 
  4021e7:	eb 0b                	jmp    4021f4 <_Z11icache_missPv+0x59b>
  4021e9:	83 45 f8 01          	addl   $0x1,-0x8(%rbp)
  4021ed:	83 85 4c ff ff ff 01 	addl   $0x1,-0xb4(%rbp)
  4021f4:	83 bd 4c ff ff ff 63 	cmpl   $0x63,-0xb4(%rbp)
  4021fb:	7e ec                	jle    4021e9 <_Z11icache_missPv+0x590>
  4021fd:	e9 30 08 00 00       	jmpq   402a32 <_Z11icache_missPv+0xdd9>
  402202:	c7 85 48 ff ff ff 00 	movl   $0x0,-0xb8(%rbp)
  402209:	00 00 00 
  40220c:	eb 0b                	jmp    402219 <_Z11icache_missPv+0x5c0>
  40220e:	83 45 f8 01          	addl   $0x1,-0x8(%rbp)
  402212:	83 85 48 ff ff ff 01 	addl   $0x1,-0xb8(%rbp)
  402219:	83 bd 48 ff ff ff 63 	cmpl   $0x63,-0xb8(%rbp)
  402220:	7e ec                	jle    40220e <_Z11icache_missPv+0x5b5>
  402222:	e9 0b 08 00 00       	jmpq   402a32 <_Z11icache_missPv+0xdd9>
  402227:	c7 85 44 ff ff ff 00 	movl   $0x0,-0xbc(%rbp)
  40222e:	00 00 00 
  402231:	eb 0b                	jmp    40223e <_Z11icache_missPv+0x5e5>
  402233:	83 45 f8 01          	addl   $0x1,-0x8(%rbp)
  402237:	83 85 44 ff ff ff 01 	addl   $0x1,-0xbc(%rbp)
  40223e:	83 bd 44 ff ff ff 63 	cmpl   $0x63,-0xbc(%rbp)
  402245:	7e ec                	jle    402233 <_Z11icache_missPv+0x5da>
  402247:	e9 e6 07 00 00       	jmpq   402a32 <_Z11icache_missPv+0xdd9>
  40224c:	c7 85 40 ff ff ff 00 	movl   $0x0,-0xc0(%rbp)
  402253:	00 00 00 
  402256:	eb 0b                	jmp    402263 <_Z11icache_missPv+0x60a>
  402258:	83 45 f8 01          	addl   $0x1,-0x8(%rbp)
  40225c:	83 85 40 ff ff ff 01 	addl   $0x1,-0xc0(%rbp)
  402263:	83 bd 40 ff ff ff 63 	cmpl   $0x63,-0xc0(%rbp)
  40226a:	7e ec                	jle    402258 <_Z11icache_missPv+0x5ff>
  40226c:	e9 c1 07 00 00       	jmpq   402a32 <_Z11icache_missPv+0xdd9>
  402271:	c7 85 3c ff ff ff 00 	movl   $0x0,-0xc4(%rbp)
  402278:	00 00 00 
  40227b:	eb 0b                	jmp    402288 <_Z11icache_missPv+0x62f>
  40227d:	83 45 f8 01          	addl   $0x1,-0x8(%rbp)
  402281:	83 85 3c ff ff ff 01 	addl   $0x1,-0xc4(%rbp)
  402288:	83 bd 3c ff ff ff 63 	cmpl   $0x63,-0xc4(%rbp)
  40228f:	7e ec                	jle    40227d <_Z11icache_missPv+0x624>
  402291:	e9 9c 07 00 00       	jmpq   402a32 <_Z11icache_missPv+0xdd9>
  402296:	c7 85 38 ff ff ff 00 	movl   $0x0,-0xc8(%rbp)
  40229d:	00 00 00 
  4022a0:	eb 0b                	jmp    4022ad <_Z11icache_missPv+0x654>
  4022a2:	83 45 f8 01          	addl   $0x1,-0x8(%rbp)
  4022a6:	83 85 38 ff ff ff 01 	addl   $0x1,-0xc8(%rbp)
  4022ad:	83 bd 38 ff ff ff 63 	cmpl   $0x63,-0xc8(%rbp)
  4022b4:	7e ec                	jle    4022a2 <_Z11icache_missPv+0x649>
  4022b6:	e9 77 07 00 00       	jmpq   402a32 <_Z11icache_missPv+0xdd9>
  4022bb:	c7 85 34 ff ff ff 00 	movl   $0x0,-0xcc(%rbp)
  4022c2:	00 00 00 
  4022c5:	eb 0b                	jmp    4022d2 <_Z11icache_missPv+0x679>
  4022c7:	83 45 f8 01          	addl   $0x1,-0x8(%rbp)
  4022cb:	83 85 34 ff ff ff 01 	addl   $0x1,-0xcc(%rbp)
  4022d2:	83 bd 34 ff ff ff 63 	cmpl   $0x63,-0xcc(%rbp)
  4022d9:	7e ec                	jle    4022c7 <_Z11icache_missPv+0x66e>
  4022db:	e9 52 07 00 00       	jmpq   402a32 <_Z11icache_missPv+0xdd9>
  4022e0:	c7 85 30 ff ff ff 00 	movl   $0x0,-0xd0(%rbp)
  4022e7:	00 00 00 
  4022ea:	eb 0b                	jmp    4022f7 <_Z11icache_missPv+0x69e>
  4022ec:	83 45 f8 01          	addl   $0x1,-0x8(%rbp)
  4022f0:	83 85 30 ff ff ff 01 	addl   $0x1,-0xd0(%rbp)
  4022f7:	83 bd 30 ff ff ff 63 	cmpl   $0x63,-0xd0(%rbp)
  4022fe:	7e ec                	jle    4022ec <_Z11icache_missPv+0x693>
  402300:	e9 2d 07 00 00       	jmpq   402a32 <_Z11icache_missPv+0xdd9>
  402305:	c7 85 2c ff ff ff 00 	movl   $0x0,-0xd4(%rbp)
  40230c:	00 00 00 
  40230f:	eb 0b                	jmp    40231c <_Z11icache_missPv+0x6c3>
  402311:	83 45 f8 01          	addl   $0x1,-0x8(%rbp)
  402315:	83 85 2c ff ff ff 01 	addl   $0x1,-0xd4(%rbp)
  40231c:	83 bd 2c ff ff ff 63 	cmpl   $0x63,-0xd4(%rbp)
  402323:	7e ec                	jle    402311 <_Z11icache_missPv+0x6b8>
  402325:	e9 08 07 00 00       	jmpq   402a32 <_Z11icache_missPv+0xdd9>
  40232a:	c7 85 28 ff ff ff 00 	movl   $0x0,-0xd8(%rbp)
  402331:	00 00 00 
  402334:	eb 0b                	jmp    402341 <_Z11icache_missPv+0x6e8>
  402336:	83 45 f8 01          	addl   $0x1,-0x8(%rbp)
  40233a:	83 85 28 ff ff ff 01 	addl   $0x1,-0xd8(%rbp)
  402341:	83 bd 28 ff ff ff 63 	cmpl   $0x63,-0xd8(%rbp)
  402348:	7e ec                	jle    402336 <_Z11icache_missPv+0x6dd>
  40234a:	e9 e3 06 00 00       	jmpq   402a32 <_Z11icache_missPv+0xdd9>
  40234f:	c7 85 24 ff ff ff 00 	movl   $0x0,-0xdc(%rbp)
  402356:	00 00 00 
  402359:	eb 0b                	jmp    402366 <_Z11icache_missPv+0x70d>
  40235b:	83 45 f8 01          	addl   $0x1,-0x8(%rbp)
  40235f:	83 85 24 ff ff ff 01 	addl   $0x1,-0xdc(%rbp)
  402366:	83 bd 24 ff ff ff 63 	cmpl   $0x63,-0xdc(%rbp)
  40236d:	7e ec                	jle    40235b <_Z11icache_missPv+0x702>
  40236f:	e9 be 06 00 00       	jmpq   402a32 <_Z11icache_missPv+0xdd9>
  402374:	c7 85 20 ff ff ff 00 	movl   $0x0,-0xe0(%rbp)
  40237b:	00 00 00 
  40237e:	eb 0b                	jmp    40238b <_Z11icache_missPv+0x732>
  402380:	83 45 f8 01          	addl   $0x1,-0x8(%rbp)
  402384:	83 85 20 ff ff ff 01 	addl   $0x1,-0xe0(%rbp)
  40238b:	83 bd 20 ff ff ff 63 	cmpl   $0x63,-0xe0(%rbp)
  402392:	7e ec                	jle    402380 <_Z11icache_missPv+0x727>
  402394:	e9 99 06 00 00       	jmpq   402a32 <_Z11icache_missPv+0xdd9>
  402399:	c7 85 1c ff ff ff 00 	movl   $0x0,-0xe4(%rbp)
  4023a0:	00 00 00 
  4023a3:	eb 0b                	jmp    4023b0 <_Z11icache_missPv+0x757>
  4023a5:	83 45 f8 01          	addl   $0x1,-0x8(%rbp)
  4023a9:	83 85 1c ff ff ff 01 	addl   $0x1,-0xe4(%rbp)
  4023b0:	83 bd 1c ff ff ff 63 	cmpl   $0x63,-0xe4(%rbp)
  4023b7:	7e ec                	jle    4023a5 <_Z11icache_missPv+0x74c>
  4023b9:	e9 74 06 00 00       	jmpq   402a32 <_Z11icache_missPv+0xdd9>
  4023be:	c7 85 18 ff ff ff 00 	movl   $0x0,-0xe8(%rbp)
  4023c5:	00 00 00 
  4023c8:	eb 0b                	jmp    4023d5 <_Z11icache_missPv+0x77c>
  4023ca:	83 45 f8 01          	addl   $0x1,-0x8(%rbp)
  4023ce:	83 85 18 ff ff ff 01 	addl   $0x1,-0xe8(%rbp)
  4023d5:	83 bd 18 ff ff ff 63 	cmpl   $0x63,-0xe8(%rbp)
  4023dc:	7e ec                	jle    4023ca <_Z11icache_missPv+0x771>
  4023de:	e9 4f 06 00 00       	jmpq   402a32 <_Z11icache_missPv+0xdd9>
  4023e3:	c7 85 14 ff ff ff 00 	movl   $0x0,-0xec(%rbp)
  4023ea:	00 00 00 
  4023ed:	eb 0b                	jmp    4023fa <_Z11icache_missPv+0x7a1>
  4023ef:	83 45 f8 01          	addl   $0x1,-0x8(%rbp)
  4023f3:	83 85 14 ff ff ff 01 	addl   $0x1,-0xec(%rbp)
  4023fa:	83 bd 14 ff ff ff 63 	cmpl   $0x63,-0xec(%rbp)
  402401:	7e ec                	jle    4023ef <_Z11icache_missPv+0x796>
  402403:	e9 2a 06 00 00       	jmpq   402a32 <_Z11icache_missPv+0xdd9>
  402408:	c7 85 10 ff ff ff 00 	movl   $0x0,-0xf0(%rbp)
  40240f:	00 00 00 
  402412:	eb 0b                	jmp    40241f <_Z11icache_missPv+0x7c6>
  402414:	83 45 f8 01          	addl   $0x1,-0x8(%rbp)
  402418:	83 85 10 ff ff ff 01 	addl   $0x1,-0xf0(%rbp)
  40241f:	83 bd 10 ff ff ff 63 	cmpl   $0x63,-0xf0(%rbp)
  402426:	7e ec                	jle    402414 <_Z11icache_missPv+0x7bb>
  402428:	e9 05 06 00 00       	jmpq   402a32 <_Z11icache_missPv+0xdd9>
  40242d:	c7 85 0c ff ff ff 00 	movl   $0x0,-0xf4(%rbp)
  402434:	00 00 00 
  402437:	eb 0b                	jmp    402444 <_Z11icache_missPv+0x7eb>
  402439:	83 45 f8 01          	addl   $0x1,-0x8(%rbp)
  40243d:	83 85 0c ff ff ff 01 	addl   $0x1,-0xf4(%rbp)
  402444:	83 bd 0c ff ff ff 63 	cmpl   $0x63,-0xf4(%rbp)
  40244b:	7e ec                	jle    402439 <_Z11icache_missPv+0x7e0>
  40244d:	e9 e0 05 00 00       	jmpq   402a32 <_Z11icache_missPv+0xdd9>
  402452:	c7 85 08 ff ff ff 00 	movl   $0x0,-0xf8(%rbp)
  402459:	00 00 00 
  40245c:	eb 0b                	jmp    402469 <_Z11icache_missPv+0x810>
  40245e:	83 45 f8 01          	addl   $0x1,-0x8(%rbp)
  402462:	83 85 08 ff ff ff 01 	addl   $0x1,-0xf8(%rbp)
  402469:	83 bd 08 ff ff ff 63 	cmpl   $0x63,-0xf8(%rbp)
  402470:	7e ec                	jle    40245e <_Z11icache_missPv+0x805>
  402472:	e9 bb 05 00 00       	jmpq   402a32 <_Z11icache_missPv+0xdd9>
  402477:	c7 85 04 ff ff ff 00 	movl   $0x0,-0xfc(%rbp)
  40247e:	00 00 00 
  402481:	eb 0b                	jmp    40248e <_Z11icache_missPv+0x835>
  402483:	83 45 f8 01          	addl   $0x1,-0x8(%rbp)
  402487:	83 85 04 ff ff ff 01 	addl   $0x1,-0xfc(%rbp)
  40248e:	83 bd 04 ff ff ff 63 	cmpl   $0x63,-0xfc(%rbp)
  402495:	7e ec                	jle    402483 <_Z11icache_missPv+0x82a>
  402497:	e9 96 05 00 00       	jmpq   402a32 <_Z11icache_missPv+0xdd9>
  40249c:	c7 85 00 ff ff ff 00 	movl   $0x0,-0x100(%rbp)
  4024a3:	00 00 00 
  4024a6:	eb 0b                	jmp    4024b3 <_Z11icache_missPv+0x85a>
  4024a8:	83 45 f8 01          	addl   $0x1,-0x8(%rbp)
  4024ac:	83 85 00 ff ff ff 01 	addl   $0x1,-0x100(%rbp)
  4024b3:	83 bd 00 ff ff ff 63 	cmpl   $0x63,-0x100(%rbp)
  4024ba:	7e ec                	jle    4024a8 <_Z11icache_missPv+0x84f>
  4024bc:	e9 71 05 00 00       	jmpq   402a32 <_Z11icache_missPv+0xdd9>
  4024c1:	c7 85 fc fe ff ff 00 	movl   $0x0,-0x104(%rbp)
  4024c8:	00 00 00 
  4024cb:	eb 0b                	jmp    4024d8 <_Z11icache_missPv+0x87f>
  4024cd:	83 45 f8 01          	addl   $0x1,-0x8(%rbp)
  4024d1:	83 85 fc fe ff ff 01 	addl   $0x1,-0x104(%rbp)
  4024d8:	83 bd fc fe ff ff 63 	cmpl   $0x63,-0x104(%rbp)
  4024df:	7e ec                	jle    4024cd <_Z11icache_missPv+0x874>
  4024e1:	e9 4c 05 00 00       	jmpq   402a32 <_Z11icache_missPv+0xdd9>
  4024e6:	c7 85 f8 fe ff ff 00 	movl   $0x0,-0x108(%rbp)
  4024ed:	00 00 00 
  4024f0:	eb 0b                	jmp    4024fd <_Z11icache_missPv+0x8a4>
  4024f2:	83 45 f8 01          	addl   $0x1,-0x8(%rbp)
  4024f6:	83 85 f8 fe ff ff 01 	addl   $0x1,-0x108(%rbp)
  4024fd:	83 bd f8 fe ff ff 63 	cmpl   $0x63,-0x108(%rbp)
  402504:	7e ec                	jle    4024f2 <_Z11icache_missPv+0x899>
  402506:	e9 27 05 00 00       	jmpq   402a32 <_Z11icache_missPv+0xdd9>
  40250b:	c7 85 f4 fe ff ff 00 	movl   $0x0,-0x10c(%rbp)
  402512:	00 00 00 
  402515:	eb 0b                	jmp    402522 <_Z11icache_missPv+0x8c9>
  402517:	83 45 f8 01          	addl   $0x1,-0x8(%rbp)
  40251b:	83 85 f4 fe ff ff 01 	addl   $0x1,-0x10c(%rbp)
  402522:	83 bd f4 fe ff ff 63 	cmpl   $0x63,-0x10c(%rbp)
  402529:	7e ec                	jle    402517 <_Z11icache_missPv+0x8be>
  40252b:	e9 02 05 00 00       	jmpq   402a32 <_Z11icache_missPv+0xdd9>
  402530:	c7 85 f0 fe ff ff 00 	movl   $0x0,-0x110(%rbp)
  402537:	00 00 00 
  40253a:	eb 0b                	jmp    402547 <_Z11icache_missPv+0x8ee>
  40253c:	83 45 f8 01          	addl   $0x1,-0x8(%rbp)
  402540:	83 85 f0 fe ff ff 01 	addl   $0x1,-0x110(%rbp)
  402547:	83 bd f0 fe ff ff 63 	cmpl   $0x63,-0x110(%rbp)
  40254e:	7e ec                	jle    40253c <_Z11icache_missPv+0x8e3>
  402550:	e9 dd 04 00 00       	jmpq   402a32 <_Z11icache_missPv+0xdd9>
  402555:	c7 85 ec fe ff ff 00 	movl   $0x0,-0x114(%rbp)
  40255c:	00 00 00 
  40255f:	eb 0b                	jmp    40256c <_Z11icache_missPv+0x913>
  402561:	83 45 f8 01          	addl   $0x1,-0x8(%rbp)
  402565:	83 85 ec fe ff ff 01 	addl   $0x1,-0x114(%rbp)
  40256c:	83 bd ec fe ff ff 63 	cmpl   $0x63,-0x114(%rbp)
  402573:	7e ec                	jle    402561 <_Z11icache_missPv+0x908>
  402575:	e9 b8 04 00 00       	jmpq   402a32 <_Z11icache_missPv+0xdd9>
  40257a:	c7 85 e8 fe ff ff 00 	movl   $0x0,-0x118(%rbp)
  402581:	00 00 00 
  402584:	eb 0b                	jmp    402591 <_Z11icache_missPv+0x938>
  402586:	83 45 f8 01          	addl   $0x1,-0x8(%rbp)
  40258a:	83 85 e8 fe ff ff 01 	addl   $0x1,-0x118(%rbp)
  402591:	83 bd e8 fe ff ff 63 	cmpl   $0x63,-0x118(%rbp)
  402598:	7e ec                	jle    402586 <_Z11icache_missPv+0x92d>
  40259a:	e9 93 04 00 00       	jmpq   402a32 <_Z11icache_missPv+0xdd9>
  40259f:	c7 85 e4 fe ff ff 00 	movl   $0x0,-0x11c(%rbp)
  4025a6:	00 00 00 
  4025a9:	eb 0b                	jmp    4025b6 <_Z11icache_missPv+0x95d>
  4025ab:	83 45 f8 01          	addl   $0x1,-0x8(%rbp)
  4025af:	83 85 e4 fe ff ff 01 	addl   $0x1,-0x11c(%rbp)
  4025b6:	83 bd e4 fe ff ff 63 	cmpl   $0x63,-0x11c(%rbp)
  4025bd:	7e ec                	jle    4025ab <_Z11icache_missPv+0x952>
  4025bf:	e9 6e 04 00 00       	jmpq   402a32 <_Z11icache_missPv+0xdd9>
  4025c4:	c7 85 e0 fe ff ff 00 	movl   $0x0,-0x120(%rbp)
  4025cb:	00 00 00 
  4025ce:	eb 0b                	jmp    4025db <_Z11icache_missPv+0x982>
  4025d0:	83 45 f8 01          	addl   $0x1,-0x8(%rbp)
  4025d4:	83 85 e0 fe ff ff 01 	addl   $0x1,-0x120(%rbp)
  4025db:	83 bd e0 fe ff ff 63 	cmpl   $0x63,-0x120(%rbp)
  4025e2:	7e ec                	jle    4025d0 <_Z11icache_missPv+0x977>
  4025e4:	e9 49 04 00 00       	jmpq   402a32 <_Z11icache_missPv+0xdd9>
  4025e9:	c7 85 dc fe ff ff 00 	movl   $0x0,-0x124(%rbp)
  4025f0:	00 00 00 
  4025f3:	eb 0b                	jmp    402600 <_Z11icache_missPv+0x9a7>
  4025f5:	83 45 f8 01          	addl   $0x1,-0x8(%rbp)
  4025f9:	83 85 dc fe ff ff 01 	addl   $0x1,-0x124(%rbp)
  402600:	83 bd dc fe ff ff 63 	cmpl   $0x63,-0x124(%rbp)
  402607:	7e ec                	jle    4025f5 <_Z11icache_missPv+0x99c>
  402609:	e9 24 04 00 00       	jmpq   402a32 <_Z11icache_missPv+0xdd9>
  40260e:	c7 85 d8 fe ff ff 00 	movl   $0x0,-0x128(%rbp)
  402615:	00 00 00 
  402618:	eb 0b                	jmp    402625 <_Z11icache_missPv+0x9cc>
  40261a:	83 45 f8 01          	addl   $0x1,-0x8(%rbp)
  40261e:	83 85 d8 fe ff ff 01 	addl   $0x1,-0x128(%rbp)
  402625:	83 bd d8 fe ff ff 63 	cmpl   $0x63,-0x128(%rbp)
  40262c:	7e ec                	jle    40261a <_Z11icache_missPv+0x9c1>
  40262e:	e9 ff 03 00 00       	jmpq   402a32 <_Z11icache_missPv+0xdd9>
  402633:	c7 85 d4 fe ff ff 00 	movl   $0x0,-0x12c(%rbp)
  40263a:	00 00 00 
  40263d:	eb 0b                	jmp    40264a <_Z11icache_missPv+0x9f1>
  40263f:	83 45 f8 01          	addl   $0x1,-0x8(%rbp)
  402643:	83 85 d4 fe ff ff 01 	addl   $0x1,-0x12c(%rbp)
  40264a:	83 bd d4 fe ff ff 63 	cmpl   $0x63,-0x12c(%rbp)
  402651:	7e ec                	jle    40263f <_Z11icache_missPv+0x9e6>
  402653:	e9 da 03 00 00       	jmpq   402a32 <_Z11icache_missPv+0xdd9>
  402658:	c7 85 d0 fe ff ff 00 	movl   $0x0,-0x130(%rbp)
  40265f:	00 00 00 
  402662:	eb 0b                	jmp    40266f <_Z11icache_missPv+0xa16>
  402664:	83 45 f8 01          	addl   $0x1,-0x8(%rbp)
  402668:	83 85 d0 fe ff ff 01 	addl   $0x1,-0x130(%rbp)
  40266f:	83 bd d0 fe ff ff 63 	cmpl   $0x63,-0x130(%rbp)
  402676:	7e ec                	jle    402664 <_Z11icache_missPv+0xa0b>
  402678:	e9 b5 03 00 00       	jmpq   402a32 <_Z11icache_missPv+0xdd9>
  40267d:	c7 85 cc fe ff ff 00 	movl   $0x0,-0x134(%rbp)
  402684:	00 00 00 
  402687:	eb 0b                	jmp    402694 <_Z11icache_missPv+0xa3b>
  402689:	83 45 f8 01          	addl   $0x1,-0x8(%rbp)
  40268d:	83 85 cc fe ff ff 01 	addl   $0x1,-0x134(%rbp)
  402694:	83 bd cc fe ff ff 63 	cmpl   $0x63,-0x134(%rbp)
  40269b:	7e ec                	jle    402689 <_Z11icache_missPv+0xa30>
  40269d:	e9 90 03 00 00       	jmpq   402a32 <_Z11icache_missPv+0xdd9>
  4026a2:	c7 85 c8 fe ff ff 00 	movl   $0x0,-0x138(%rbp)
  4026a9:	00 00 00 
  4026ac:	eb 0b                	jmp    4026b9 <_Z11icache_missPv+0xa60>
  4026ae:	83 45 f8 01          	addl   $0x1,-0x8(%rbp)
  4026b2:	83 85 c8 fe ff ff 01 	addl   $0x1,-0x138(%rbp)
  4026b9:	83 bd c8 fe ff ff 63 	cmpl   $0x63,-0x138(%rbp)
  4026c0:	7e ec                	jle    4026ae <_Z11icache_missPv+0xa55>
  4026c2:	e9 6b 03 00 00       	jmpq   402a32 <_Z11icache_missPv+0xdd9>
  4026c7:	c7 85 c4 fe ff ff 00 	movl   $0x0,-0x13c(%rbp)
  4026ce:	00 00 00 
  4026d1:	eb 0b                	jmp    4026de <_Z11icache_missPv+0xa85>
  4026d3:	83 45 f8 01          	addl   $0x1,-0x8(%rbp)
  4026d7:	83 85 c4 fe ff ff 01 	addl   $0x1,-0x13c(%rbp)
  4026de:	83 bd c4 fe ff ff 63 	cmpl   $0x63,-0x13c(%rbp)
  4026e5:	7e ec                	jle    4026d3 <_Z11icache_missPv+0xa7a>
  4026e7:	e9 46 03 00 00       	jmpq   402a32 <_Z11icache_missPv+0xdd9>
  4026ec:	c7 85 c0 fe ff ff 00 	movl   $0x0,-0x140(%rbp)
  4026f3:	00 00 00 
  4026f6:	eb 0b                	jmp    402703 <_Z11icache_missPv+0xaaa>
  4026f8:	83 45 f8 01          	addl   $0x1,-0x8(%rbp)
  4026fc:	83 85 c0 fe ff ff 01 	addl   $0x1,-0x140(%rbp)
  402703:	83 bd c0 fe ff ff 63 	cmpl   $0x63,-0x140(%rbp)
  40270a:	7e ec                	jle    4026f8 <_Z11icache_missPv+0xa9f>
  40270c:	e9 21 03 00 00       	jmpq   402a32 <_Z11icache_missPv+0xdd9>
  402711:	c7 85 bc fe ff ff 00 	movl   $0x0,-0x144(%rbp)
  402718:	00 00 00 
  40271b:	eb 0b                	jmp    402728 <_Z11icache_missPv+0xacf>
  40271d:	83 45 f8 01          	addl   $0x1,-0x8(%rbp)
  402721:	83 85 bc fe ff ff 01 	addl   $0x1,-0x144(%rbp)
  402728:	83 bd bc fe ff ff 63 	cmpl   $0x63,-0x144(%rbp)
  40272f:	7e ec                	jle    40271d <_Z11icache_missPv+0xac4>
  402731:	e9 fc 02 00 00       	jmpq   402a32 <_Z11icache_missPv+0xdd9>
  402736:	c7 85 b8 fe ff ff 00 	movl   $0x0,-0x148(%rbp)
  40273d:	00 00 00 
  402740:	eb 0b                	jmp    40274d <_Z11icache_missPv+0xaf4>
  402742:	83 45 f8 01          	addl   $0x1,-0x8(%rbp)
  402746:	83 85 b8 fe ff ff 01 	addl   $0x1,-0x148(%rbp)
  40274d:	83 bd b8 fe ff ff 63 	cmpl   $0x63,-0x148(%rbp)
  402754:	7e ec                	jle    402742 <_Z11icache_missPv+0xae9>
  402756:	e9 d7 02 00 00       	jmpq   402a32 <_Z11icache_missPv+0xdd9>
  40275b:	c7 85 b4 fe ff ff 00 	movl   $0x0,-0x14c(%rbp)
  402762:	00 00 00 
  402765:	eb 0b                	jmp    402772 <_Z11icache_missPv+0xb19>
  402767:	83 45 f8 01          	addl   $0x1,-0x8(%rbp)
  40276b:	83 85 b4 fe ff ff 01 	addl   $0x1,-0x14c(%rbp)
  402772:	83 bd b4 fe ff ff 63 	cmpl   $0x63,-0x14c(%rbp)
  402779:	7e ec                	jle    402767 <_Z11icache_missPv+0xb0e>
  40277b:	e9 b2 02 00 00       	jmpq   402a32 <_Z11icache_missPv+0xdd9>
  402780:	c7 85 b0 fe ff ff 00 	movl   $0x0,-0x150(%rbp)
  402787:	00 00 00 
  40278a:	eb 0b                	jmp    402797 <_Z11icache_missPv+0xb3e>
  40278c:	83 45 f8 01          	addl   $0x1,-0x8(%rbp)
  402790:	83 85 b0 fe ff ff 01 	addl   $0x1,-0x150(%rbp)
  402797:	83 bd b0 fe ff ff 63 	cmpl   $0x63,-0x150(%rbp)
  40279e:	7e ec                	jle    40278c <_Z11icache_missPv+0xb33>
  4027a0:	e9 8d 02 00 00       	jmpq   402a32 <_Z11icache_missPv+0xdd9>
  4027a5:	c7 85 ac fe ff ff 00 	movl   $0x0,-0x154(%rbp)
  4027ac:	00 00 00 
  4027af:	eb 0b                	jmp    4027bc <_Z11icache_missPv+0xb63>
  4027b1:	83 45 f8 01          	addl   $0x1,-0x8(%rbp)
  4027b5:	83 85 ac fe ff ff 01 	addl   $0x1,-0x154(%rbp)
  4027bc:	83 bd ac fe ff ff 63 	cmpl   $0x63,-0x154(%rbp)
  4027c3:	7e ec                	jle    4027b1 <_Z11icache_missPv+0xb58>
  4027c5:	e9 68 02 00 00       	jmpq   402a32 <_Z11icache_missPv+0xdd9>
  4027ca:	c7 85 a8 fe ff ff 00 	movl   $0x0,-0x158(%rbp)
  4027d1:	00 00 00 
  4027d4:	eb 0b                	jmp    4027e1 <_Z11icache_missPv+0xb88>
  4027d6:	83 45 f8 01          	addl   $0x1,-0x8(%rbp)
  4027da:	83 85 a8 fe ff ff 01 	addl   $0x1,-0x158(%rbp)
  4027e1:	83 bd a8 fe ff ff 63 	cmpl   $0x63,-0x158(%rbp)
  4027e8:	7e ec                	jle    4027d6 <_Z11icache_missPv+0xb7d>
  4027ea:	e9 43 02 00 00       	jmpq   402a32 <_Z11icache_missPv+0xdd9>
  4027ef:	c7 85 a4 fe ff ff 00 	movl   $0x0,-0x15c(%rbp)
  4027f6:	00 00 00 
  4027f9:	eb 0b                	jmp    402806 <_Z11icache_missPv+0xbad>
  4027fb:	83 45 f8 01          	addl   $0x1,-0x8(%rbp)
  4027ff:	83 85 a4 fe ff ff 01 	addl   $0x1,-0x15c(%rbp)
  402806:	83 bd a4 fe ff ff 63 	cmpl   $0x63,-0x15c(%rbp)
  40280d:	7e ec                	jle    4027fb <_Z11icache_missPv+0xba2>
  40280f:	e9 1e 02 00 00       	jmpq   402a32 <_Z11icache_missPv+0xdd9>
  402814:	c7 85 a0 fe ff ff 00 	movl   $0x0,-0x160(%rbp)
  40281b:	00 00 00 
  40281e:	eb 0b                	jmp    40282b <_Z11icache_missPv+0xbd2>
  402820:	83 45 f8 01          	addl   $0x1,-0x8(%rbp)
  402824:	83 85 a0 fe ff ff 01 	addl   $0x1,-0x160(%rbp)
  40282b:	83 bd a0 fe ff ff 63 	cmpl   $0x63,-0x160(%rbp)
  402832:	7e ec                	jle    402820 <_Z11icache_missPv+0xbc7>
  402834:	e9 f9 01 00 00       	jmpq   402a32 <_Z11icache_missPv+0xdd9>
  402839:	c7 85 9c fe ff ff 00 	movl   $0x0,-0x164(%rbp)
  402840:	00 00 00 
  402843:	eb 0b                	jmp    402850 <_Z11icache_missPv+0xbf7>
  402845:	83 45 f8 01          	addl   $0x1,-0x8(%rbp)
  402849:	83 85 9c fe ff ff 01 	addl   $0x1,-0x164(%rbp)
  402850:	83 bd 9c fe ff ff 63 	cmpl   $0x63,-0x164(%rbp)
  402857:	7e ec                	jle    402845 <_Z11icache_missPv+0xbec>
  402859:	e9 d4 01 00 00       	jmpq   402a32 <_Z11icache_missPv+0xdd9>
  40285e:	c7 85 98 fe ff ff 00 	movl   $0x0,-0x168(%rbp)
  402865:	00 00 00 
  402868:	eb 0b                	jmp    402875 <_Z11icache_missPv+0xc1c>
  40286a:	83 45 f8 01          	addl   $0x1,-0x8(%rbp)
  40286e:	83 85 98 fe ff ff 01 	addl   $0x1,-0x168(%rbp)
  402875:	83 bd 98 fe ff ff 63 	cmpl   $0x63,-0x168(%rbp)
  40287c:	7e ec                	jle    40286a <_Z11icache_missPv+0xc11>
  40287e:	e9 af 01 00 00       	jmpq   402a32 <_Z11icache_missPv+0xdd9>
  402883:	c7 85 94 fe ff ff 00 	movl   $0x0,-0x16c(%rbp)
  40288a:	00 00 00 
  40288d:	eb 0b                	jmp    40289a <_Z11icache_missPv+0xc41>
  40288f:	83 45 f8 01          	addl   $0x1,-0x8(%rbp)
  402893:	83 85 94 fe ff ff 01 	addl   $0x1,-0x16c(%rbp)
  40289a:	83 bd 94 fe ff ff 63 	cmpl   $0x63,-0x16c(%rbp)
  4028a1:	7e ec                	jle    40288f <_Z11icache_missPv+0xc36>
  4028a3:	e9 8a 01 00 00       	jmpq   402a32 <_Z11icache_missPv+0xdd9>
  4028a8:	c7 85 90 fe ff ff 00 	movl   $0x0,-0x170(%rbp)
  4028af:	00 00 00 
  4028b2:	eb 0b                	jmp    4028bf <_Z11icache_missPv+0xc66>
  4028b4:	83 45 f8 01          	addl   $0x1,-0x8(%rbp)
  4028b8:	83 85 90 fe ff ff 01 	addl   $0x1,-0x170(%rbp)
  4028bf:	83 bd 90 fe ff ff 63 	cmpl   $0x63,-0x170(%rbp)
  4028c6:	7e ec                	jle    4028b4 <_Z11icache_missPv+0xc5b>
  4028c8:	e9 65 01 00 00       	jmpq   402a32 <_Z11icache_missPv+0xdd9>
  4028cd:	c7 85 8c fe ff ff 00 	movl   $0x0,-0x174(%rbp)
  4028d4:	00 00 00 
  4028d7:	eb 0b                	jmp    4028e4 <_Z11icache_missPv+0xc8b>
  4028d9:	83 45 f8 01          	addl   $0x1,-0x8(%rbp)
  4028dd:	83 85 8c fe ff ff 01 	addl   $0x1,-0x174(%rbp)
  4028e4:	83 bd 8c fe ff ff 63 	cmpl   $0x63,-0x174(%rbp)
  4028eb:	7e ec                	jle    4028d9 <_Z11icache_missPv+0xc80>
  4028ed:	e9 40 01 00 00       	jmpq   402a32 <_Z11icache_missPv+0xdd9>
  4028f2:	c7 85 88 fe ff ff 00 	movl   $0x0,-0x178(%rbp)
  4028f9:	00 00 00 
  4028fc:	eb 0b                	jmp    402909 <_Z11icache_missPv+0xcb0>
  4028fe:	83 45 f8 01          	addl   $0x1,-0x8(%rbp)
  402902:	83 85 88 fe ff ff 01 	addl   $0x1,-0x178(%rbp)
  402909:	83 bd 88 fe ff ff 63 	cmpl   $0x63,-0x178(%rbp)
  402910:	7e ec                	jle    4028fe <_Z11icache_missPv+0xca5>
  402912:	e9 1b 01 00 00       	jmpq   402a32 <_Z11icache_missPv+0xdd9>
  402917:	c7 85 84 fe ff ff 00 	movl   $0x0,-0x17c(%rbp)
  40291e:	00 00 00 
  402921:	eb 0b                	jmp    40292e <_Z11icache_missPv+0xcd5>
  402923:	83 45 f8 01          	addl   $0x1,-0x8(%rbp)
  402927:	83 85 84 fe ff ff 01 	addl   $0x1,-0x17c(%rbp)
  40292e:	83 bd 84 fe ff ff 63 	cmpl   $0x63,-0x17c(%rbp)
  402935:	7e ec                	jle    402923 <_Z11icache_missPv+0xcca>
  402937:	e9 f6 00 00 00       	jmpq   402a32 <_Z11icache_missPv+0xdd9>
  40293c:	c7 85 80 fe ff ff 00 	movl   $0x0,-0x180(%rbp)
  402943:	00 00 00 
  402946:	eb 0b                	jmp    402953 <_Z11icache_missPv+0xcfa>
  402948:	83 45 f8 01          	addl   $0x1,-0x8(%rbp)
  40294c:	83 85 80 fe ff ff 01 	addl   $0x1,-0x180(%rbp)
  402953:	83 bd 80 fe ff ff 63 	cmpl   $0x63,-0x180(%rbp)
  40295a:	7e ec                	jle    402948 <_Z11icache_missPv+0xcef>
  40295c:	e9 d1 00 00 00       	jmpq   402a32 <_Z11icache_missPv+0xdd9>
  402961:	c7 85 7c fe ff ff 00 	movl   $0x0,-0x184(%rbp)
  402968:	00 00 00 
  40296b:	eb 0b                	jmp    402978 <_Z11icache_missPv+0xd1f>
  40296d:	83 45 f8 01          	addl   $0x1,-0x8(%rbp)
  402971:	83 85 7c fe ff ff 01 	addl   $0x1,-0x184(%rbp)
  402978:	83 bd 7c fe ff ff 63 	cmpl   $0x63,-0x184(%rbp)
  40297f:	7e ec                	jle    40296d <_Z11icache_missPv+0xd14>
  402981:	e9 ac 00 00 00       	jmpq   402a32 <_Z11icache_missPv+0xdd9>
  402986:	c7 85 78 fe ff ff 00 	movl   $0x0,-0x188(%rbp)
  40298d:	00 00 00 
  402990:	eb 0b                	jmp    40299d <_Z11icache_missPv+0xd44>
  402992:	83 45 f8 01          	addl   $0x1,-0x8(%rbp)
  402996:	83 85 78 fe ff ff 01 	addl   $0x1,-0x188(%rbp)
  40299d:	83 bd 78 fe ff ff 63 	cmpl   $0x63,-0x188(%rbp)
  4029a4:	7e ec                	jle    402992 <_Z11icache_missPv+0xd39>
  4029a6:	e9 87 00 00 00       	jmpq   402a32 <_Z11icache_missPv+0xdd9>
  4029ab:	c7 85 74 fe ff ff 00 	movl   $0x0,-0x18c(%rbp)
  4029b2:	00 00 00 
  4029b5:	eb 0b                	jmp    4029c2 <_Z11icache_missPv+0xd69>
  4029b7:	83 45 f8 01          	addl   $0x1,-0x8(%rbp)
  4029bb:	83 85 74 fe ff ff 01 	addl   $0x1,-0x18c(%rbp)
  4029c2:	83 bd 74 fe ff ff 63 	cmpl   $0x63,-0x18c(%rbp)
  4029c9:	7e ec                	jle    4029b7 <_Z11icache_missPv+0xd5e>
  4029cb:	eb 65                	jmp    402a32 <_Z11icache_missPv+0xdd9>
  4029cd:	c7 85 70 fe ff ff 00 	movl   $0x0,-0x190(%rbp)
  4029d4:	00 00 00 
  4029d7:	eb 0b                	jmp    4029e4 <_Z11icache_missPv+0xd8b>
  4029d9:	83 45 f8 01          	addl   $0x1,-0x8(%rbp)
  4029dd:	83 85 70 fe ff ff 01 	addl   $0x1,-0x190(%rbp)
  4029e4:	83 bd 70 fe ff ff 63 	cmpl   $0x63,-0x190(%rbp)
  4029eb:	7e ec                	jle    4029d9 <_Z11icache_missPv+0xd80>
  4029ed:	eb 43                	jmp    402a32 <_Z11icache_missPv+0xdd9>
  4029ef:	c7 85 6c fe ff ff 00 	movl   $0x0,-0x194(%rbp)
  4029f6:	00 00 00 
  4029f9:	eb 0b                	jmp    402a06 <_Z11icache_missPv+0xdad>
  4029fb:	83 45 f8 01          	addl   $0x1,-0x8(%rbp)
  4029ff:	83 85 6c fe ff ff 01 	addl   $0x1,-0x194(%rbp)
  402a06:	83 bd 6c fe ff ff 63 	cmpl   $0x63,-0x194(%rbp)
  402a0d:	7e ec                	jle    4029fb <_Z11icache_missPv+0xda2>
  402a0f:	eb 21                	jmp    402a32 <_Z11icache_missPv+0xdd9>
  402a11:	c7 85 68 fe ff ff 00 	movl   $0x0,-0x198(%rbp)
  402a18:	00 00 00 
  402a1b:	eb 0b                	jmp    402a28 <_Z11icache_missPv+0xdcf>
  402a1d:	83 45 f8 01          	addl   $0x1,-0x8(%rbp)
  402a21:	83 85 68 fe ff ff 01 	addl   $0x1,-0x198(%rbp)
  402a28:	83 bd 68 fe ff ff 63 	cmpl   $0x63,-0x198(%rbp)
  402a2f:	7e ec                	jle    402a1d <_Z11icache_missPv+0xdc4>
  402a31:	90                   	nop
  402a32:	83 45 fc 01          	addl   $0x1,-0x4(%rbp)
  402a36:	81 7d fc 0f 27 00 00 	cmpl   $0x270f,-0x4(%rbp)
  402a3d:	0f 8e 61 f2 ff ff    	jle    401ca4 <_Z11icache_missPv+0x4b>
  402a43:	c9                   	leaveq 
  402a44:	c3                   	retq   

