
bench:     file format elf64-x86-64


Disassembly of section .init:

0000000000400730 <_init>:
  400730:	48 83 ec 08          	sub    $0x8,%rsp
  400734:	48 8b 05 bd 48 20 00 	mov    0x2048bd(%rip),%rax        # 604ff8 <__gmon_start__>
  40073b:	48 85 c0             	test   %rax,%rax
  40073e:	74 02                	je     400742 <_init+0x12>
  400740:	ff d0                	callq  *%rax
  400742:	48 83 c4 08          	add    $0x8,%rsp
  400746:	c3                   	retq   

Disassembly of section .plt:

0000000000400750 <.plt>:
  400750:	ff 35 b2 48 20 00    	pushq  0x2048b2(%rip)        # 605008 <_GLOBAL_OFFSET_TABLE_+0x8>
  400756:	ff 25 b4 48 20 00    	jmpq   *0x2048b4(%rip)        # 605010 <_GLOBAL_OFFSET_TABLE_+0x10>
  40075c:	0f 1f 40 00          	nopl   0x0(%rax)

0000000000400760 <printf@plt>:
  400760:	ff 25 b2 48 20 00    	jmpq   *0x2048b2(%rip)        # 605018 <printf@GLIBC_2.2.5>
  400766:	68 00 00 00 00       	pushq  $0x0
  40076b:	e9 e0 ff ff ff       	jmpq   400750 <.plt>

0000000000400770 <getopt@plt>:
  400770:	ff 25 aa 48 20 00    	jmpq   *0x2048aa(%rip)        # 605020 <getopt@GLIBC_2.2.5>
  400776:	68 01 00 00 00       	pushq  $0x1
  40077b:	e9 d0 ff ff ff       	jmpq   400750 <.plt>

0000000000400780 <rand@plt>:
  400780:	ff 25 a2 48 20 00    	jmpq   *0x2048a2(%rip)        # 605028 <rand@GLIBC_2.2.5>
  400786:	68 02 00 00 00       	pushq  $0x2
  40078b:	e9 c0 ff ff ff       	jmpq   400750 <.plt>

0000000000400790 <pthread_join@plt>:
  400790:	ff 25 9a 48 20 00    	jmpq   *0x20489a(%rip)        # 605030 <pthread_join@GLIBC_2.2.5>
  400796:	68 03 00 00 00       	pushq  $0x3
  40079b:	e9 b0 ff ff ff       	jmpq   400750 <.plt>

00000000004007a0 <pthread_create@plt>:
  4007a0:	ff 25 92 48 20 00    	jmpq   *0x204892(%rip)        # 605038 <pthread_create@GLIBC_2.2.5>
  4007a6:	68 04 00 00 00       	pushq  $0x4
  4007ab:	e9 a0 ff ff ff       	jmpq   400750 <.plt>

00000000004007b0 <sched_setaffinity@plt>:
  4007b0:	ff 25 8a 48 20 00    	jmpq   *0x20488a(%rip)        # 605040 <sched_setaffinity@GLIBC_2.3.4>
  4007b6:	68 05 00 00 00       	pushq  $0x5
  4007bb:	e9 90 ff ff ff       	jmpq   400750 <.plt>

00000000004007c0 <pthread_self@plt>:
  4007c0:	ff 25 82 48 20 00    	jmpq   *0x204882(%rip)        # 605048 <pthread_self@GLIBC_2.2.5>
  4007c6:	68 06 00 00 00       	pushq  $0x6
  4007cb:	e9 80 ff ff ff       	jmpq   400750 <.plt>

00000000004007d0 <exit@plt>:
  4007d0:	ff 25 7a 48 20 00    	jmpq   *0x20487a(%rip)        # 605050 <exit@GLIBC_2.2.5>
  4007d6:	68 07 00 00 00       	pushq  $0x7
  4007db:	e9 70 ff ff ff       	jmpq   400750 <.plt>

00000000004007e0 <strcmp@plt>:
  4007e0:	ff 25 72 48 20 00    	jmpq   *0x204872(%rip)        # 605058 <strcmp@GLIBC_2.2.5>
  4007e6:	68 08 00 00 00       	pushq  $0x8
  4007eb:	e9 60 ff ff ff       	jmpq   400750 <.plt>

00000000004007f0 <getpid@plt>:
  4007f0:	ff 25 6a 48 20 00    	jmpq   *0x20486a(%rip)        # 605060 <getpid@GLIBC_2.2.5>
  4007f6:	68 09 00 00 00       	pushq  $0x9
  4007fb:	e9 50 ff ff ff       	jmpq   400750 <.plt>

0000000000400800 <pthread_setaffinity_np@plt>:
  400800:	ff 25 62 48 20 00    	jmpq   *0x204862(%rip)        # 605068 <pthread_setaffinity_np@GLIBC_2.3.4>
  400806:	68 0a 00 00 00       	pushq  $0xa
  40080b:	e9 40 ff ff ff       	jmpq   400750 <.plt>

0000000000400810 <memmove@plt>:
  400810:	ff 25 5a 48 20 00    	jmpq   *0x20485a(%rip)        # 605070 <memmove@GLIBC_2.2.5>
  400816:	68 0b 00 00 00       	pushq  $0xb
  40081b:	e9 30 ff ff ff       	jmpq   400750 <.plt>

Disassembly of section .text:

0000000000400820 <_start>:
  400820:	31 ed                	xor    %ebp,%ebp
  400822:	49 89 d1             	mov    %rdx,%r9
  400825:	5e                   	pop    %rsi
  400826:	48 89 e2             	mov    %rsp,%rdx
  400829:	48 83 e4 f0          	and    $0xfffffffffffffff0,%rsp
  40082d:	50                   	push   %rax
  40082e:	54                   	push   %rsp
  40082f:	49 c7 c0 60 3a 40 00 	mov    $0x403a60,%r8
  400836:	48 c7 c1 f0 39 40 00 	mov    $0x4039f0,%rcx
  40083d:	48 c7 c7 c0 0a 40 00 	mov    $0x400ac0,%rdi
  400844:	ff 15 a6 47 20 00    	callq  *0x2047a6(%rip)        # 604ff0 <__libc_start_main@GLIBC_2.2.5>
  40084a:	f4                   	hlt    
  40084b:	0f 1f 44 00 00       	nopl   0x0(%rax,%rax,1)

0000000000400850 <deregister_tm_clones>:
  400850:	b8 8f 50 60 00       	mov    $0x60508f,%eax
  400855:	55                   	push   %rbp
  400856:	48 2d 88 50 60 00    	sub    $0x605088,%rax
  40085c:	48 83 f8 0e          	cmp    $0xe,%rax
  400860:	48 89 e5             	mov    %rsp,%rbp
  400863:	77 02                	ja     400867 <deregister_tm_clones+0x17>
  400865:	5d                   	pop    %rbp
  400866:	c3                   	retq   
  400867:	b8 00 00 00 00       	mov    $0x0,%eax
  40086c:	48 85 c0             	test   %rax,%rax
  40086f:	74 f4                	je     400865 <deregister_tm_clones+0x15>
  400871:	5d                   	pop    %rbp
  400872:	bf 88 50 60 00       	mov    $0x605088,%edi
  400877:	ff e0                	jmpq   *%rax
  400879:	0f 1f 80 00 00 00 00 	nopl   0x0(%rax)

0000000000400880 <register_tm_clones>:
  400880:	b8 88 50 60 00       	mov    $0x605088,%eax
  400885:	55                   	push   %rbp
  400886:	48 2d 88 50 60 00    	sub    $0x605088,%rax
  40088c:	48 c1 f8 03          	sar    $0x3,%rax
  400890:	48 89 e5             	mov    %rsp,%rbp
  400893:	48 89 c2             	mov    %rax,%rdx
  400896:	48 c1 ea 3f          	shr    $0x3f,%rdx
  40089a:	48 01 d0             	add    %rdx,%rax
  40089d:	48 d1 f8             	sar    %rax
  4008a0:	75 02                	jne    4008a4 <register_tm_clones+0x24>
  4008a2:	5d                   	pop    %rbp
  4008a3:	c3                   	retq   
  4008a4:	ba 00 00 00 00       	mov    $0x0,%edx
  4008a9:	48 85 d2             	test   %rdx,%rdx
  4008ac:	74 f4                	je     4008a2 <register_tm_clones+0x22>
  4008ae:	5d                   	pop    %rbp
  4008af:	48 89 c6             	mov    %rax,%rsi
  4008b2:	bf 88 50 60 00       	mov    $0x605088,%edi
  4008b7:	ff e2                	jmpq   *%rdx
  4008b9:	0f 1f 80 00 00 00 00 	nopl   0x0(%rax)

00000000004008c0 <__do_global_dtors_aux>:
  4008c0:	80 3d cd 47 20 00 00 	cmpb   $0x0,0x2047cd(%rip)        # 605094 <completed.6373>
  4008c7:	75 11                	jne    4008da <__do_global_dtors_aux+0x1a>
  4008c9:	55                   	push   %rbp
  4008ca:	48 89 e5             	mov    %rsp,%rbp
  4008cd:	e8 7e ff ff ff       	callq  400850 <deregister_tm_clones>
  4008d2:	5d                   	pop    %rbp
  4008d3:	c6 05 ba 47 20 00 01 	movb   $0x1,0x2047ba(%rip)        # 605094 <completed.6373>
  4008da:	f3 c3                	repz retq 
  4008dc:	0f 1f 40 00          	nopl   0x0(%rax)

00000000004008e0 <frame_dummy>:
  4008e0:	48 83 3d f0 44 20 00 	cmpq   $0x0,0x2044f0(%rip)        # 604dd8 <__JCR_END__>
  4008e7:	00 
  4008e8:	74 1e                	je     400908 <frame_dummy+0x28>
  4008ea:	b8 00 00 00 00       	mov    $0x0,%eax
  4008ef:	48 85 c0             	test   %rax,%rax
  4008f2:	74 14                	je     400908 <frame_dummy+0x28>
  4008f4:	55                   	push   %rbp
  4008f5:	bf d8 4d 60 00       	mov    $0x604dd8,%edi
  4008fa:	48 89 e5             	mov    %rsp,%rbp
  4008fd:	ff d0                	callq  *%rax
  4008ff:	5d                   	pop    %rbp
  400900:	e9 7b ff ff ff       	jmpq   400880 <register_tm_clones>
  400905:	0f 1f 00             	nopl   (%rax)
  400908:	e9 73 ff ff ff       	jmpq   400880 <register_tm_clones>

000000000040090d <_Z7set_cpui>:
  40090d:	55                   	push   %rbp
  40090e:	48 89 e5             	mov    %rsp,%rbp
  400911:	53                   	push   %rbx
  400912:	48 81 ec a8 00 00 00 	sub    $0xa8,%rsp
  400919:	89 bd 5c ff ff ff    	mov    %edi,-0xa4(%rbp)
  40091f:	48 8d 85 60 ff ff ff 	lea    -0xa0(%rbp),%rax
  400926:	48 89 c6             	mov    %rax,%rsi
  400929:	b8 00 00 00 00       	mov    $0x0,%eax
  40092e:	ba 10 00 00 00       	mov    $0x10,%edx
  400933:	48 89 f7             	mov    %rsi,%rdi
  400936:	48 89 d1             	mov    %rdx,%rcx
  400939:	f3 48 ab             	rep stos %rax,%es:(%rdi)
  40093c:	8b 85 5c ff ff ff    	mov    -0xa4(%rbp),%eax
  400942:	48 98                	cltq   
  400944:	48 89 45 e8          	mov    %rax,-0x18(%rbp)
  400948:	48 8b 45 e8          	mov    -0x18(%rbp),%rax
  40094c:	48 c1 e8 03          	shr    $0x3,%rax
  400950:	48 3d 80 00 00 00    	cmp    $0x80,%rax
  400956:	73 48                	jae    4009a0 <_Z7set_cpui+0x93>
  400958:	bb 40 00 00 00       	mov    $0x40,%ebx
  40095d:	48 8b 45 e8          	mov    -0x18(%rbp),%rax
  400961:	ba 00 00 00 00       	mov    $0x0,%edx
  400966:	48 f7 f3             	div    %rbx
  400969:	48 89 c6             	mov    %rax,%rsi
  40096c:	48 8b bc f5 60 ff ff 	mov    -0xa0(%rbp,%rsi,8),%rdi
  400973:	ff 
  400974:	b9 40 00 00 00       	mov    $0x40,%ecx
  400979:	48 8b 45 e8          	mov    -0x18(%rbp),%rax
  40097d:	ba 00 00 00 00       	mov    $0x0,%edx
  400982:	48 f7 f1             	div    %rcx
  400985:	48 89 d0             	mov    %rdx,%rax
  400988:	ba 01 00 00 00       	mov    $0x1,%edx
  40098d:	89 c1                	mov    %eax,%ecx
  40098f:	48 d3 e2             	shl    %cl,%rdx
  400992:	48 89 d0             	mov    %rdx,%rax
  400995:	48 09 f8             	or     %rdi,%rax
  400998:	48 89 84 f5 60 ff ff 	mov    %rax,-0xa0(%rbp,%rsi,8)
  40099f:	ff 
  4009a0:	e8 4b fe ff ff       	callq  4007f0 <getpid@plt>
  4009a5:	48 8d 95 60 ff ff ff 	lea    -0xa0(%rbp),%rdx
  4009ac:	be 80 00 00 00       	mov    $0x80,%esi
  4009b1:	89 c7                	mov    %eax,%edi
  4009b3:	e8 f8 fd ff ff       	callq  4007b0 <sched_setaffinity@plt>
  4009b8:	c1 e8 1f             	shr    $0x1f,%eax
  4009bb:	84 c0                	test   %al,%al
  4009bd:	74 17                	je     4009d6 <_Z7set_cpui+0xc9>
  4009bf:	8b 85 5c ff ff ff    	mov    -0xa4(%rbp),%eax
  4009c5:	89 c6                	mov    %eax,%esi
  4009c7:	bf 78 3a 40 00       	mov    $0x403a78,%edi
  4009cc:	b8 00 00 00 00       	mov    $0x0,%eax
  4009d1:	e8 8a fd ff ff       	callq  400760 <printf@plt>
  4009d6:	8b 85 5c ff ff ff    	mov    -0xa4(%rbp),%eax
  4009dc:	48 81 c4 a8 00 00 00 	add    $0xa8,%rsp
  4009e3:	5b                   	pop    %rbx
  4009e4:	5d                   	pop    %rbp
  4009e5:	c3                   	retq   

00000000004009e6 <_Z14set_thread_cpui>:
  4009e6:	55                   	push   %rbp
  4009e7:	48 89 e5             	mov    %rsp,%rbp
  4009ea:	53                   	push   %rbx
  4009eb:	48 81 ec a8 00 00 00 	sub    $0xa8,%rsp
  4009f2:	89 bd 5c ff ff ff    	mov    %edi,-0xa4(%rbp)
  4009f8:	48 8d 85 60 ff ff ff 	lea    -0xa0(%rbp),%rax
  4009ff:	48 89 c6             	mov    %rax,%rsi
  400a02:	b8 00 00 00 00       	mov    $0x0,%eax
  400a07:	ba 10 00 00 00       	mov    $0x10,%edx
  400a0c:	48 89 f7             	mov    %rsi,%rdi
  400a0f:	48 89 d1             	mov    %rdx,%rcx
  400a12:	f3 48 ab             	rep stos %rax,%es:(%rdi)
  400a15:	8b 85 5c ff ff ff    	mov    -0xa4(%rbp),%eax
  400a1b:	48 98                	cltq   
  400a1d:	48 89 45 e8          	mov    %rax,-0x18(%rbp)
  400a21:	48 8b 45 e8          	mov    -0x18(%rbp),%rax
  400a25:	48 c1 e8 03          	shr    $0x3,%rax
  400a29:	48 3d 80 00 00 00    	cmp    $0x80,%rax
  400a2f:	73 48                	jae    400a79 <_Z14set_thread_cpui+0x93>
  400a31:	bb 40 00 00 00       	mov    $0x40,%ebx
  400a36:	48 8b 45 e8          	mov    -0x18(%rbp),%rax
  400a3a:	ba 00 00 00 00       	mov    $0x0,%edx
  400a3f:	48 f7 f3             	div    %rbx
  400a42:	48 89 c6             	mov    %rax,%rsi
  400a45:	48 8b bc f5 60 ff ff 	mov    -0xa0(%rbp,%rsi,8),%rdi
  400a4c:	ff 
  400a4d:	b9 40 00 00 00       	mov    $0x40,%ecx
  400a52:	48 8b 45 e8          	mov    -0x18(%rbp),%rax
  400a56:	ba 00 00 00 00       	mov    $0x0,%edx
  400a5b:	48 f7 f1             	div    %rcx
  400a5e:	48 89 d0             	mov    %rdx,%rax
  400a61:	ba 01 00 00 00       	mov    $0x1,%edx
  400a66:	89 c1                	mov    %eax,%ecx
  400a68:	48 d3 e2             	shl    %cl,%rdx
  400a6b:	48 89 d0             	mov    %rdx,%rax
  400a6e:	48 09 f8             	or     %rdi,%rax
  400a71:	48 89 84 f5 60 ff ff 	mov    %rax,-0xa0(%rbp,%rsi,8)
  400a78:	ff 
  400a79:	e8 42 fd ff ff       	callq  4007c0 <pthread_self@plt>
  400a7e:	48 8d 95 60 ff ff ff 	lea    -0xa0(%rbp),%rdx
  400a85:	be 80 00 00 00       	mov    $0x80,%esi
  400a8a:	48 89 c7             	mov    %rax,%rdi
  400a8d:	e8 6e fd ff ff       	callq  400800 <pthread_setaffinity_np@plt>
  400a92:	c1 e8 1f             	shr    $0x1f,%eax
  400a95:	84 c0                	test   %al,%al
  400a97:	74 17                	je     400ab0 <_Z14set_thread_cpui+0xca>
  400a99:	8b 85 5c ff ff ff    	mov    -0xa4(%rbp),%eax
  400a9f:	89 c6                	mov    %eax,%esi
  400aa1:	bf b0 3a 40 00       	mov    $0x403ab0,%edi
  400aa6:	b8 00 00 00 00       	mov    $0x0,%eax
  400aab:	e8 b0 fc ff ff       	callq  400760 <printf@plt>
  400ab0:	8b 85 5c ff ff ff    	mov    -0xa4(%rbp),%eax
  400ab6:	48 81 c4 a8 00 00 00 	add    $0xa8,%rsp
  400abd:	5b                   	pop    %rbx
  400abe:	5d                   	pop    %rbp
  400abf:	c3                   	retq   

0000000000400ac0 <main>:
  400ac0:	55                   	push   %rbp
  400ac1:	48 89 e5             	mov    %rsp,%rbp
  400ac4:	48 83 ec 30          	sub    $0x30,%rsp
  400ac8:	89 7d dc             	mov    %edi,-0x24(%rbp)
  400acb:	48 89 75 d0          	mov    %rsi,-0x30(%rbp)
  400acf:	c7 45 fc 01 00 00 00 	movl   $0x1,-0x4(%rbp)
  400ad6:	eb 0f                	jmp    400ae7 <main+0x27>
  400ad8:	8b 45 e4             	mov    -0x1c(%rbp),%eax
  400adb:	83 f8 73             	cmp    $0x73,%eax
  400ade:	75 07                	jne    400ae7 <main+0x27>
  400ae0:	c7 45 fc 00 00 00 00 	movl   $0x0,-0x4(%rbp)
  400ae7:	48 8b 4d d0          	mov    -0x30(%rbp),%rcx
  400aeb:	8b 45 dc             	mov    -0x24(%rbp),%eax
  400aee:	ba e0 3a 40 00       	mov    $0x403ae0,%edx
  400af3:	48 89 ce             	mov    %rcx,%rsi
  400af6:	89 c7                	mov    %eax,%edi
  400af8:	e8 73 fc ff ff       	callq  400770 <getopt@plt>
  400afd:	89 45 e4             	mov    %eax,-0x1c(%rbp)
  400b00:	83 7d e4 ff          	cmpl   $0xffffffff,-0x1c(%rbp)
  400b04:	0f 95 c0             	setne  %al
  400b07:	84 c0                	test   %al,%al
  400b09:	75 cd                	jne    400ad8 <main+0x18>
  400b0b:	8b 05 7f 45 20 00    	mov    0x20457f(%rip),%eax        # 605090 <optind@@GLIBC_2.2.5>
  400b11:	39 45 dc             	cmp    %eax,-0x24(%rbp)
  400b14:	7f 23                	jg     400b39 <main+0x79>
  400b16:	48 8b 45 d0          	mov    -0x30(%rbp),%rax
  400b1a:	48 8b 00             	mov    (%rax),%rax
  400b1d:	48 89 c6             	mov    %rax,%rsi
  400b20:	bf e2 3a 40 00       	mov    $0x403ae2,%edi
  400b25:	b8 00 00 00 00       	mov    $0x0,%eax
  400b2a:	e8 31 fc ff ff       	callq  400760 <printf@plt>
  400b2f:	bf 01 00 00 00       	mov    $0x1,%edi
  400b34:	e8 97 fc ff ff       	callq  4007d0 <exit@plt>
  400b39:	8b 05 51 45 20 00    	mov    0x204551(%rip),%eax        # 605090 <optind@@GLIBC_2.2.5>
  400b3f:	48 98                	cltq   
  400b41:	48 8d 14 c5 00 00 00 	lea    0x0(,%rax,8),%rdx
  400b48:	00 
  400b49:	48 8b 45 d0          	mov    -0x30(%rbp),%rax
  400b4d:	48 01 d0             	add    %rdx,%rax
  400b50:	48 8b 00             	mov    (%rax),%rax
  400b53:	be fc 3a 40 00       	mov    $0x403afc,%esi
  400b58:	48 89 c7             	mov    %rax,%rdi
  400b5b:	e8 80 fc ff ff       	callq  4007e0 <strcmp@plt>
  400b60:	85 c0                	test   %eax,%eax
  400b62:	75 0d                	jne    400b71 <main+0xb1>
  400b64:	48 c7 45 f0 a0 0e 40 	movq   $0x400ea0,-0x10(%rbp)
  400b6b:	00 
  400b6c:	e9 35 01 00 00       	jmpq   400ca6 <main+0x1e6>
  400b71:	8b 05 19 45 20 00    	mov    0x204519(%rip),%eax        # 605090 <optind@@GLIBC_2.2.5>
  400b77:	48 98                	cltq   
  400b79:	48 8d 14 c5 00 00 00 	lea    0x0(,%rax,8),%rdx
  400b80:	00 
  400b81:	48 8b 45 d0          	mov    -0x30(%rbp),%rax
  400b85:	48 01 d0             	add    %rdx,%rax
  400b88:	48 8b 00             	mov    (%rax),%rax
  400b8b:	be 08 3b 40 00       	mov    $0x403b08,%esi
  400b90:	48 89 c7             	mov    %rax,%rdi
  400b93:	e8 48 fc ff ff       	callq  4007e0 <strcmp@plt>
  400b98:	85 c0                	test   %eax,%eax
  400b9a:	75 0d                	jne    400ba9 <main+0xe9>
  400b9c:	48 c7 45 f0 a0 0e 40 	movq   $0x400ea0,-0x10(%rbp)
  400ba3:	00 
  400ba4:	e9 fd 00 00 00       	jmpq   400ca6 <main+0x1e6>
  400ba9:	8b 05 e1 44 20 00    	mov    0x2044e1(%rip),%eax        # 605090 <optind@@GLIBC_2.2.5>
  400baf:	48 98                	cltq   
  400bb1:	48 8d 14 c5 00 00 00 	lea    0x0(,%rax,8),%rdx
  400bb8:	00 
  400bb9:	48 8b 45 d0          	mov    -0x30(%rbp),%rax
  400bbd:	48 01 d0             	add    %rdx,%rax
  400bc0:	48 8b 00             	mov    (%rax),%rax
  400bc3:	be 14 3b 40 00       	mov    $0x403b14,%esi
  400bc8:	48 89 c7             	mov    %rax,%rdi
  400bcb:	e8 10 fc ff ff       	callq  4007e0 <strcmp@plt>
  400bd0:	85 c0                	test   %eax,%eax
  400bd2:	75 0d                	jne    400be1 <main+0x121>
  400bd4:	48 c7 45 f0 a0 0e 40 	movq   $0x400ea0,-0x10(%rbp)
  400bdb:	00 
  400bdc:	e9 c5 00 00 00       	jmpq   400ca6 <main+0x1e6>
  400be1:	8b 05 a9 44 20 00    	mov    0x2044a9(%rip),%eax        # 605090 <optind@@GLIBC_2.2.5>
  400be7:	48 98                	cltq   
  400be9:	48 8d 14 c5 00 00 00 	lea    0x0(,%rax,8),%rdx
  400bf0:	00 
  400bf1:	48 8b 45 d0          	mov    -0x30(%rbp),%rax
  400bf5:	48 01 d0             	add    %rdx,%rax
  400bf8:	48 8b 00             	mov    (%rax),%rax
  400bfb:	be 20 3b 40 00       	mov    $0x403b20,%esi
  400c00:	48 89 c7             	mov    %rax,%rdi
  400c03:	e8 d8 fb ff ff       	callq  4007e0 <strcmp@plt>
  400c08:	85 c0                	test   %eax,%eax
  400c0a:	75 0d                	jne    400c19 <main+0x159>
  400c0c:	48 c7 45 f0 a0 0e 40 	movq   $0x400ea0,-0x10(%rbp)
  400c13:	00 
  400c14:	e9 8d 00 00 00       	jmpq   400ca6 <main+0x1e6>
  400c19:	8b 05 71 44 20 00    	mov    0x204471(%rip),%eax        # 605090 <optind@@GLIBC_2.2.5>
  400c1f:	48 98                	cltq   
  400c21:	48 8d 14 c5 00 00 00 	lea    0x0(,%rax,8),%rdx
  400c28:	00 
  400c29:	48 8b 45 d0          	mov    -0x30(%rbp),%rax
  400c2d:	48 01 d0             	add    %rdx,%rax
  400c30:	48 8b 00             	mov    (%rax),%rax
  400c33:	be 2c 3b 40 00       	mov    $0x403b2c,%esi
  400c38:	48 89 c7             	mov    %rax,%rdi
  400c3b:	e8 a0 fb ff ff       	callq  4007e0 <strcmp@plt>
  400c40:	85 c0                	test   %eax,%eax
  400c42:	75 0a                	jne    400c4e <main+0x18e>
  400c44:	48 c7 45 f0 a0 0e 40 	movq   $0x400ea0,-0x10(%rbp)
  400c4b:	00 
  400c4c:	eb 58                	jmp    400ca6 <main+0x1e6>
  400c4e:	8b 05 3c 44 20 00    	mov    0x20443c(%rip),%eax        # 605090 <optind@@GLIBC_2.2.5>
  400c54:	48 98                	cltq   
  400c56:	48 8d 14 c5 00 00 00 	lea    0x0(,%rax,8),%rdx
  400c5d:	00 
  400c5e:	48 8b 45 d0          	mov    -0x30(%rbp),%rax
  400c62:	48 01 d0             	add    %rdx,%rax
  400c65:	48 8b 00             	mov    (%rax),%rax
  400c68:	be 38 3b 40 00       	mov    $0x403b38,%esi
  400c6d:	48 89 c7             	mov    %rax,%rdi
  400c70:	e8 6b fb ff ff       	callq  4007e0 <strcmp@plt>
  400c75:	85 c0                	test   %eax,%eax
  400c77:	75 0a                	jne    400c83 <main+0x1c3>
  400c79:	48 c7 45 f0 a0 0e 40 	movq   $0x400ea0,-0x10(%rbp)
  400c80:	00 
  400c81:	eb 23                	jmp    400ca6 <main+0x1e6>
  400c83:	48 8b 45 d0          	mov    -0x30(%rbp),%rax
  400c87:	48 8b 00             	mov    (%rax),%rax
  400c8a:	48 89 c6             	mov    %rax,%rsi
  400c8d:	bf 48 3b 40 00       	mov    $0x403b48,%edi
  400c92:	b8 00 00 00 00       	mov    $0x0,%eax
  400c97:	e8 c4 fa ff ff       	callq  400760 <printf@plt>
  400c9c:	bf 01 00 00 00       	mov    $0x1,%edi
  400ca1:	e8 2a fb ff ff       	callq  4007d0 <exit@plt>
  400ca6:	c7 45 ec 00 00 00 00 	movl   $0x0,-0x14(%rbp)
  400cad:	eb 43                	jmp    400cf2 <main+0x232>
  400caf:	83 7d fc 00          	cmpl   $0x0,-0x4(%rbp)
  400cb3:	75 05                	jne    400cba <main+0x1fa>
  400cb5:	8b 45 ec             	mov    -0x14(%rbp),%eax
  400cb8:	eb 05                	jmp    400cbf <main+0x1ff>
  400cba:	b8 00 00 00 00       	mov    $0x0,%eax
  400cbf:	89 45 e0             	mov    %eax,-0x20(%rbp)
  400cc2:	8b 45 e0             	mov    -0x20(%rbp),%eax
  400cc5:	48 98                	cltq   
  400cc7:	48 89 c2             	mov    %rax,%rdx
  400cca:	8b 45 ec             	mov    -0x14(%rbp),%eax
  400ccd:	48 98                	cltq   
  400ccf:	48 c1 e0 03          	shl    $0x3,%rax
  400cd3:	48 8d b8 a0 50 60 00 	lea    0x6050a0(%rax),%rdi
  400cda:	48 8b 45 f0          	mov    -0x10(%rbp),%rax
  400cde:	48 89 d1             	mov    %rdx,%rcx
  400ce1:	48 89 c2             	mov    %rax,%rdx
  400ce4:	be 00 00 00 00       	mov    $0x0,%esi
  400ce9:	e8 b2 fa ff ff       	callq  4007a0 <pthread_create@plt>
  400cee:	83 45 ec 01          	addl   $0x1,-0x14(%rbp)
  400cf2:	83 7d ec 01          	cmpl   $0x1,-0x14(%rbp)
  400cf6:	7e b7                	jle    400caf <main+0x1ef>
  400cf8:	c7 45 e8 00 00 00 00 	movl   $0x0,-0x18(%rbp)
  400cff:	eb 1e                	jmp    400d1f <main+0x25f>
  400d01:	8b 45 e8             	mov    -0x18(%rbp),%eax
  400d04:	48 98                	cltq   
  400d06:	48 8b 04 c5 a0 50 60 	mov    0x6050a0(,%rax,8),%rax
  400d0d:	00 
  400d0e:	be 00 00 00 00       	mov    $0x0,%esi
  400d13:	48 89 c7             	mov    %rax,%rdi
  400d16:	e8 75 fa ff ff       	callq  400790 <pthread_join@plt>
  400d1b:	83 45 e8 01          	addl   $0x1,-0x18(%rbp)
  400d1f:	83 7d e8 01          	cmpl   $0x1,-0x18(%rbp)
  400d23:	7e dc                	jle    400d01 <main+0x241>
  400d25:	b8 00 00 00 00       	mov    $0x0,%eax
  400d2a:	c9                   	leaveq 
  400d2b:	c3                   	retq   

0000000000400d2c <_Z11branch_goodPv>:
  400d2c:	55                   	push   %rbp
  400d2d:	48 89 e5             	mov    %rsp,%rbp
  400d30:	48 81 ec 70 9c 00 00 	sub    $0x9c70,%rsp
  400d37:	48 89 bd 98 63 ff ff 	mov    %rdi,-0x9c68(%rbp)
  400d3e:	48 8b 85 98 63 ff ff 	mov    -0x9c68(%rbp),%rax
  400d45:	89 45 e4             	mov    %eax,-0x1c(%rbp)
  400d48:	8b 45 e4             	mov    -0x1c(%rbp),%eax
  400d4b:	89 c7                	mov    %eax,%edi
  400d4d:	e8 94 fc ff ff       	callq  4009e6 <_Z14set_thread_cpui>
  400d52:	c7 45 fc 00 00 00 00 	movl   $0x0,-0x4(%rbp)
  400d59:	eb 20                	jmp    400d7b <_Z11branch_goodPv+0x4f>
  400d5b:	e8 20 fa ff ff       	callq  400780 <rand@plt>
  400d60:	99                   	cltd   
  400d61:	c1 ea 18             	shr    $0x18,%edx
  400d64:	01 d0                	add    %edx,%eax
  400d66:	0f b6 c0             	movzbl %al,%eax
  400d69:	29 d0                	sub    %edx,%eax
  400d6b:	89 c2                	mov    %eax,%edx
  400d6d:	8b 45 fc             	mov    -0x4(%rbp),%eax
  400d70:	89 94 85 a0 63 ff ff 	mov    %edx,-0x9c60(%rbp,%rax,4)
  400d77:	83 45 fc 01          	addl   $0x1,-0x4(%rbp)
  400d7b:	81 7d fc 0f 27 00 00 	cmpl   $0x270f,-0x4(%rbp)
  400d82:	76 d7                	jbe    400d5b <_Z11branch_goodPv+0x2f>
  400d84:	48 8d 85 a0 63 ff ff 	lea    -0x9c60(%rbp),%rax
  400d8b:	48 8d 90 40 9c 00 00 	lea    0x9c40(%rax),%rdx
  400d92:	48 8d 85 a0 63 ff ff 	lea    -0x9c60(%rbp),%rax
  400d99:	48 89 d6             	mov    %rdx,%rsi
  400d9c:	48 89 c7             	mov    %rax,%rdi
  400d9f:	e8 bc 1d 00 00       	callq  402b60 <_ZSt4sortIPiEvT_S1_>
  400da4:	48 c7 45 f0 00 00 00 	movq   $0x0,-0x10(%rbp)
  400dab:	00 
  400dac:	c7 45 ec 00 00 00 00 	movl   $0x0,-0x14(%rbp)
  400db3:	eb 39                	jmp    400dee <_Z11branch_goodPv+0xc2>
  400db5:	c7 45 e8 00 00 00 00 	movl   $0x0,-0x18(%rbp)
  400dbc:	eb 23                	jmp    400de1 <_Z11branch_goodPv+0xb5>
  400dbe:	8b 45 e8             	mov    -0x18(%rbp),%eax
  400dc1:	8b 84 85 a0 63 ff ff 	mov    -0x9c60(%rbp,%rax,4),%eax
  400dc8:	83 f8 7f             	cmp    $0x7f,%eax
  400dcb:	7e 10                	jle    400ddd <_Z11branch_goodPv+0xb1>
  400dcd:	8b 45 e8             	mov    -0x18(%rbp),%eax
  400dd0:	8b 84 85 a0 63 ff ff 	mov    -0x9c60(%rbp,%rax,4),%eax
  400dd7:	48 98                	cltq   
  400dd9:	48 01 45 f0          	add    %rax,-0x10(%rbp)
  400ddd:	83 45 e8 01          	addl   $0x1,-0x18(%rbp)
  400de1:	81 7d e8 0f 27 00 00 	cmpl   $0x270f,-0x18(%rbp)
  400de8:	76 d4                	jbe    400dbe <_Z11branch_goodPv+0x92>
  400dea:	83 45 ec 01          	addl   $0x1,-0x14(%rbp)
  400dee:	83 7d ec 63          	cmpl   $0x63,-0x14(%rbp)
  400df2:	76 c1                	jbe    400db5 <_Z11branch_goodPv+0x89>
  400df4:	c9                   	leaveq 
  400df5:	c3                   	retq   

0000000000400df6 <_Z11branch_missPv>:
  400df6:	55                   	push   %rbp
  400df7:	48 89 e5             	mov    %rsp,%rbp
  400dfa:	48 81 ec 70 9c 00 00 	sub    $0x9c70,%rsp
  400e01:	48 89 bd 98 63 ff ff 	mov    %rdi,-0x9c68(%rbp)
  400e08:	48 8b 85 98 63 ff ff 	mov    -0x9c68(%rbp),%rax
  400e0f:	89 45 e4             	mov    %eax,-0x1c(%rbp)
  400e12:	8b 45 e4             	mov    -0x1c(%rbp),%eax
  400e15:	89 c7                	mov    %eax,%edi
  400e17:	e8 ca fb ff ff       	callq  4009e6 <_Z14set_thread_cpui>
  400e1c:	c7 45 fc 00 00 00 00 	movl   $0x0,-0x4(%rbp)
  400e23:	eb 20                	jmp    400e45 <_Z11branch_missPv+0x4f>
  400e25:	e8 56 f9 ff ff       	callq  400780 <rand@plt>
  400e2a:	99                   	cltd   
  400e2b:	c1 ea 18             	shr    $0x18,%edx
  400e2e:	01 d0                	add    %edx,%eax
  400e30:	0f b6 c0             	movzbl %al,%eax
  400e33:	29 d0                	sub    %edx,%eax
  400e35:	89 c2                	mov    %eax,%edx
  400e37:	8b 45 fc             	mov    -0x4(%rbp),%eax
  400e3a:	89 94 85 a0 63 ff ff 	mov    %edx,-0x9c60(%rbp,%rax,4)
  400e41:	83 45 fc 01          	addl   $0x1,-0x4(%rbp)
  400e45:	81 7d fc 0f 27 00 00 	cmpl   $0x270f,-0x4(%rbp)
  400e4c:	76 d7                	jbe    400e25 <_Z11branch_missPv+0x2f>
  400e4e:	48 c7 45 f0 00 00 00 	movq   $0x0,-0x10(%rbp)
  400e55:	00 
  400e56:	c7 45 ec 00 00 00 00 	movl   $0x0,-0x14(%rbp)
  400e5d:	eb 39                	jmp    400e98 <_Z11branch_missPv+0xa2>
  400e5f:	c7 45 e8 00 00 00 00 	movl   $0x0,-0x18(%rbp)
  400e66:	eb 23                	jmp    400e8b <_Z11branch_missPv+0x95>
  400e68:	8b 45 e8             	mov    -0x18(%rbp),%eax
  400e6b:	8b 84 85 a0 63 ff ff 	mov    -0x9c60(%rbp,%rax,4),%eax
  400e72:	83 f8 7f             	cmp    $0x7f,%eax
  400e75:	7e 10                	jle    400e87 <_Z11branch_missPv+0x91>
  400e77:	8b 45 e8             	mov    -0x18(%rbp),%eax
  400e7a:	8b 84 85 a0 63 ff ff 	mov    -0x9c60(%rbp,%rax,4),%eax
  400e81:	48 98                	cltq   
  400e83:	48 01 45 f0          	add    %rax,-0x10(%rbp)
  400e87:	83 45 e8 01          	addl   $0x1,-0x18(%rbp)
  400e8b:	81 7d e8 0f 27 00 00 	cmpl   $0x270f,-0x18(%rbp)
  400e92:	76 d4                	jbe    400e68 <_Z11branch_missPv+0x72>
  400e94:	83 45 ec 01          	addl   $0x1,-0x14(%rbp)
  400e98:	83 7d ec 63          	cmpl   $0x63,-0x14(%rbp)
  400e9c:	76 c1                	jbe    400e5f <_Z11branch_missPv+0x69>
  400e9e:	c9                   	leaveq 
  400e9f:	c3                   	retq   

0000000000400ea0 <_Z11dcache_goodPv>:
  400ea0:	55                   	push   %rbp
  400ea1:	48 89 e5             	mov    %rsp,%rbp
  400ea4:	48 81 ec 20 00 40 00 	sub    $0x400020,%rsp
  400eab:	48 89 bd e8 ff bf ff 	mov    %rdi,-0x400018(%rbp)
  400eb2:	48 8b 85 e8 ff bf ff 	mov    -0x400018(%rbp),%rax
  400eb9:	89 45 f8             	mov    %eax,-0x8(%rbp)
  400ebc:	8b 45 f8             	mov    -0x8(%rbp),%eax
  400ebf:	89 c7                	mov    %eax,%edi
  400ec1:	e8 20 fb ff ff       	callq  4009e6 <_Z14set_thread_cpui>
  400ec6:	c7 45 fc 00 00 00 00 	movl   $0x0,-0x4(%rbp)
  400ecd:	eb 13                	jmp    400ee2 <_Z11dcache_goodPv+0x42>
  400ecf:	8b 45 fc             	mov    -0x4(%rbp),%eax
  400ed2:	48 98                	cltq   
  400ed4:	8b 55 fc             	mov    -0x4(%rbp),%edx
  400ed7:	89 94 85 f0 ff bf ff 	mov    %edx,-0x400010(%rbp,%rax,4)
  400ede:	83 45 fc 01          	addl   $0x1,-0x4(%rbp)
  400ee2:	81 7d fc 1f 4e 00 00 	cmpl   $0x4e1f,-0x4(%rbp)
  400ee9:	7e e4                	jle    400ecf <_Z11dcache_goodPv+0x2f>
  400eeb:	c9                   	leaveq 
  400eec:	c3                   	retq   

0000000000400eed <_Z11dcache_missPv>:
  400eed:	55                   	push   %rbp
  400eee:	48 89 e5             	mov    %rsp,%rbp
  400ef1:	48 81 ec 30 00 40 00 	sub    $0x400030,%rsp
  400ef8:	48 89 bd d8 ff bf ff 	mov    %rdi,-0x400028(%rbp)
  400eff:	48 8b 85 d8 ff bf ff 	mov    -0x400028(%rbp),%rax
  400f06:	89 45 f8             	mov    %eax,-0x8(%rbp)
  400f09:	8b 45 f8             	mov    -0x8(%rbp),%eax
  400f0c:	89 c7                	mov    %eax,%edi
  400f0e:	e8 d3 fa ff ff       	callq  4009e6 <_Z14set_thread_cpui>
  400f13:	48 8d 45 f0          	lea    -0x10(%rbp),%rax
  400f17:	be 01 00 00 00       	mov    $0x1,%esi
  400f1c:	48 89 c7             	mov    %rax,%rdi
  400f1f:	e8 9c 1c 00 00       	callq  402bc0 <_ZNSt26linear_congruential_engineImLm16807ELm0ELm2147483647EEC1Em>
  400f24:	48 8d 45 e0          	lea    -0x20(%rbp),%rax
  400f28:	ba 00 00 10 00       	mov    $0x100000,%edx
  400f2d:	be 00 00 00 00       	mov    $0x0,%esi
  400f32:	48 89 c7             	mov    %rax,%rdi
  400f35:	e8 ac 1c 00 00       	callq  402be6 <_ZNSt24uniform_int_distributionIiEC1Eii>
  400f3a:	c7 45 fc 00 00 00 00 	movl   $0x0,-0x4(%rbp)
  400f41:	eb 23                	jmp    400f66 <_Z11dcache_missPv+0x79>
  400f43:	48 8d 55 f0          	lea    -0x10(%rbp),%rdx
  400f47:	48 8d 45 e0          	lea    -0x20(%rbp),%rax
  400f4b:	48 89 d6             	mov    %rdx,%rsi
  400f4e:	48 89 c7             	mov    %rax,%rdi
  400f51:	e8 b8 1c 00 00       	callq  402c0e <_ZNSt24uniform_int_distributionIiEclISt26linear_congruential_engineImLm16807ELm0ELm2147483647EEEEiRT_>
  400f56:	48 98                	cltq   
  400f58:	8b 55 fc             	mov    -0x4(%rbp),%edx
  400f5b:	89 94 85 e0 ff bf ff 	mov    %edx,-0x400020(%rbp,%rax,4)
  400f62:	83 45 fc 01          	addl   $0x1,-0x4(%rbp)
  400f66:	81 7d fc 1f 4e 00 00 	cmpl   $0x4e1f,-0x4(%rbp)
  400f6d:	7e d4                	jle    400f43 <_Z11dcache_missPv+0x56>
  400f6f:	c9                   	leaveq 
  400f70:	c3                   	retq   

0000000000400f71 <_Z11icache_goodPv>:
  400f71:	55                   	push   %rbp
  400f72:	48 89 e5             	mov    %rsp,%rbp
  400f75:	48 81 ec b0 01 00 00 	sub    $0x1b0,%rsp
  400f7c:	48 89 bd 58 fe ff ff 	mov    %rdi,-0x1a8(%rbp)
  400f83:	48 8b 85 58 fe ff ff 	mov    -0x1a8(%rbp),%rax
  400f8a:	89 85 64 fe ff ff    	mov    %eax,-0x19c(%rbp)
  400f90:	8b 85 64 fe ff ff    	mov    -0x19c(%rbp),%eax
  400f96:	89 c7                	mov    %eax,%edi
  400f98:	e8 49 fa ff ff       	callq  4009e6 <_Z14set_thread_cpui>
  400f9d:	c7 45 fc 00 00 00 00 	movl   $0x0,-0x4(%rbp)
  400fa4:	e9 7b 0d 00 00       	jmpq   401d24 <_Z11icache_goodPv+0xdb3>
  400fa9:	c7 45 f8 00 00 00 00 	movl   $0x0,-0x8(%rbp)
  400fb0:	83 7d fc 63          	cmpl   $0x63,-0x4(%rbp)
  400fb4:	0f 87 66 0d 00 00    	ja     401d20 <_Z11icache_goodPv+0xdaf>
  400fba:	8b 45 fc             	mov    -0x4(%rbp),%eax
  400fbd:	48 8b 04 c5 a0 3b 40 	mov    0x403ba0(,%rax,8),%rax
  400fc4:	00 
  400fc5:	ff e0                	jmpq   *%rax
  400fc7:	c7 45 f4 00 00 00 00 	movl   $0x0,-0xc(%rbp)
  400fce:	eb 08                	jmp    400fd8 <_Z11icache_goodPv+0x67>
  400fd0:	83 45 f8 01          	addl   $0x1,-0x8(%rbp)
  400fd4:	83 45 f4 01          	addl   $0x1,-0xc(%rbp)
  400fd8:	83 7d f4 63          	cmpl   $0x63,-0xc(%rbp)
  400fdc:	7e f2                	jle    400fd0 <_Z11icache_goodPv+0x5f>
  400fde:	e9 3d 0d 00 00       	jmpq   401d20 <_Z11icache_goodPv+0xdaf>
  400fe3:	c7 45 f0 00 00 00 00 	movl   $0x0,-0x10(%rbp)
  400fea:	eb 08                	jmp    400ff4 <_Z11icache_goodPv+0x83>
  400fec:	83 45 f8 01          	addl   $0x1,-0x8(%rbp)
  400ff0:	83 45 f0 01          	addl   $0x1,-0x10(%rbp)
  400ff4:	83 7d f0 63          	cmpl   $0x63,-0x10(%rbp)
  400ff8:	7e f2                	jle    400fec <_Z11icache_goodPv+0x7b>
  400ffa:	e9 21 0d 00 00       	jmpq   401d20 <_Z11icache_goodPv+0xdaf>
  400fff:	c7 45 ec 00 00 00 00 	movl   $0x0,-0x14(%rbp)
  401006:	eb 08                	jmp    401010 <_Z11icache_goodPv+0x9f>
  401008:	83 45 f8 01          	addl   $0x1,-0x8(%rbp)
  40100c:	83 45 ec 01          	addl   $0x1,-0x14(%rbp)
  401010:	83 7d ec 63          	cmpl   $0x63,-0x14(%rbp)
  401014:	7e f2                	jle    401008 <_Z11icache_goodPv+0x97>
  401016:	e9 05 0d 00 00       	jmpq   401d20 <_Z11icache_goodPv+0xdaf>
  40101b:	c7 45 e8 00 00 00 00 	movl   $0x0,-0x18(%rbp)
  401022:	eb 08                	jmp    40102c <_Z11icache_goodPv+0xbb>
  401024:	83 45 f8 01          	addl   $0x1,-0x8(%rbp)
  401028:	83 45 e8 01          	addl   $0x1,-0x18(%rbp)
  40102c:	83 7d e8 63          	cmpl   $0x63,-0x18(%rbp)
  401030:	7e f2                	jle    401024 <_Z11icache_goodPv+0xb3>
  401032:	e9 e9 0c 00 00       	jmpq   401d20 <_Z11icache_goodPv+0xdaf>
  401037:	c7 45 e4 00 00 00 00 	movl   $0x0,-0x1c(%rbp)
  40103e:	eb 08                	jmp    401048 <_Z11icache_goodPv+0xd7>
  401040:	83 45 f8 01          	addl   $0x1,-0x8(%rbp)
  401044:	83 45 e4 01          	addl   $0x1,-0x1c(%rbp)
  401048:	83 7d e4 63          	cmpl   $0x63,-0x1c(%rbp)
  40104c:	7e f2                	jle    401040 <_Z11icache_goodPv+0xcf>
  40104e:	e9 cd 0c 00 00       	jmpq   401d20 <_Z11icache_goodPv+0xdaf>
  401053:	c7 45 e0 00 00 00 00 	movl   $0x0,-0x20(%rbp)
  40105a:	eb 08                	jmp    401064 <_Z11icache_goodPv+0xf3>
  40105c:	83 45 f8 01          	addl   $0x1,-0x8(%rbp)
  401060:	83 45 e0 01          	addl   $0x1,-0x20(%rbp)
  401064:	83 7d e0 63          	cmpl   $0x63,-0x20(%rbp)
  401068:	7e f2                	jle    40105c <_Z11icache_goodPv+0xeb>
  40106a:	e9 b1 0c 00 00       	jmpq   401d20 <_Z11icache_goodPv+0xdaf>
  40106f:	c7 45 dc 00 00 00 00 	movl   $0x0,-0x24(%rbp)
  401076:	eb 08                	jmp    401080 <_Z11icache_goodPv+0x10f>
  401078:	83 45 f8 01          	addl   $0x1,-0x8(%rbp)
  40107c:	83 45 dc 01          	addl   $0x1,-0x24(%rbp)
  401080:	83 7d dc 63          	cmpl   $0x63,-0x24(%rbp)
  401084:	7e f2                	jle    401078 <_Z11icache_goodPv+0x107>
  401086:	e9 95 0c 00 00       	jmpq   401d20 <_Z11icache_goodPv+0xdaf>
  40108b:	c7 45 d8 00 00 00 00 	movl   $0x0,-0x28(%rbp)
  401092:	eb 08                	jmp    40109c <_Z11icache_goodPv+0x12b>
  401094:	83 45 f8 01          	addl   $0x1,-0x8(%rbp)
  401098:	83 45 d8 01          	addl   $0x1,-0x28(%rbp)
  40109c:	83 7d d8 63          	cmpl   $0x63,-0x28(%rbp)
  4010a0:	7e f2                	jle    401094 <_Z11icache_goodPv+0x123>
  4010a2:	e9 79 0c 00 00       	jmpq   401d20 <_Z11icache_goodPv+0xdaf>
  4010a7:	c7 45 d4 00 00 00 00 	movl   $0x0,-0x2c(%rbp)
  4010ae:	eb 08                	jmp    4010b8 <_Z11icache_goodPv+0x147>
  4010b0:	83 45 f8 01          	addl   $0x1,-0x8(%rbp)
  4010b4:	83 45 d4 01          	addl   $0x1,-0x2c(%rbp)
  4010b8:	83 7d d4 63          	cmpl   $0x63,-0x2c(%rbp)
  4010bc:	7e f2                	jle    4010b0 <_Z11icache_goodPv+0x13f>
  4010be:	e9 5d 0c 00 00       	jmpq   401d20 <_Z11icache_goodPv+0xdaf>
  4010c3:	c7 45 d0 00 00 00 00 	movl   $0x0,-0x30(%rbp)
  4010ca:	eb 08                	jmp    4010d4 <_Z11icache_goodPv+0x163>
  4010cc:	83 45 f8 01          	addl   $0x1,-0x8(%rbp)
  4010d0:	83 45 d0 01          	addl   $0x1,-0x30(%rbp)
  4010d4:	83 7d d0 63          	cmpl   $0x63,-0x30(%rbp)
  4010d8:	7e f2                	jle    4010cc <_Z11icache_goodPv+0x15b>
  4010da:	e9 41 0c 00 00       	jmpq   401d20 <_Z11icache_goodPv+0xdaf>
  4010df:	c7 45 cc 00 00 00 00 	movl   $0x0,-0x34(%rbp)
  4010e6:	eb 08                	jmp    4010f0 <_Z11icache_goodPv+0x17f>
  4010e8:	83 45 f8 01          	addl   $0x1,-0x8(%rbp)
  4010ec:	83 45 cc 01          	addl   $0x1,-0x34(%rbp)
  4010f0:	83 7d cc 63          	cmpl   $0x63,-0x34(%rbp)
  4010f4:	7e f2                	jle    4010e8 <_Z11icache_goodPv+0x177>
  4010f6:	e9 25 0c 00 00       	jmpq   401d20 <_Z11icache_goodPv+0xdaf>
  4010fb:	c7 45 c8 00 00 00 00 	movl   $0x0,-0x38(%rbp)
  401102:	eb 08                	jmp    40110c <_Z11icache_goodPv+0x19b>
  401104:	83 45 f8 01          	addl   $0x1,-0x8(%rbp)
  401108:	83 45 c8 01          	addl   $0x1,-0x38(%rbp)
  40110c:	83 7d c8 63          	cmpl   $0x63,-0x38(%rbp)
  401110:	7e f2                	jle    401104 <_Z11icache_goodPv+0x193>
  401112:	e9 09 0c 00 00       	jmpq   401d20 <_Z11icache_goodPv+0xdaf>
  401117:	c7 45 c4 00 00 00 00 	movl   $0x0,-0x3c(%rbp)
  40111e:	eb 08                	jmp    401128 <_Z11icache_goodPv+0x1b7>
  401120:	83 45 f8 01          	addl   $0x1,-0x8(%rbp)
  401124:	83 45 c4 01          	addl   $0x1,-0x3c(%rbp)
  401128:	83 7d c4 63          	cmpl   $0x63,-0x3c(%rbp)
  40112c:	7e f2                	jle    401120 <_Z11icache_goodPv+0x1af>
  40112e:	e9 ed 0b 00 00       	jmpq   401d20 <_Z11icache_goodPv+0xdaf>
  401133:	c7 45 c0 00 00 00 00 	movl   $0x0,-0x40(%rbp)
  40113a:	eb 08                	jmp    401144 <_Z11icache_goodPv+0x1d3>
  40113c:	83 45 f8 01          	addl   $0x1,-0x8(%rbp)
  401140:	83 45 c0 01          	addl   $0x1,-0x40(%rbp)
  401144:	83 7d c0 63          	cmpl   $0x63,-0x40(%rbp)
  401148:	7e f2                	jle    40113c <_Z11icache_goodPv+0x1cb>
  40114a:	e9 d1 0b 00 00       	jmpq   401d20 <_Z11icache_goodPv+0xdaf>
  40114f:	c7 45 bc 00 00 00 00 	movl   $0x0,-0x44(%rbp)
  401156:	eb 08                	jmp    401160 <_Z11icache_goodPv+0x1ef>
  401158:	83 45 f8 01          	addl   $0x1,-0x8(%rbp)
  40115c:	83 45 bc 01          	addl   $0x1,-0x44(%rbp)
  401160:	83 7d bc 63          	cmpl   $0x63,-0x44(%rbp)
  401164:	7e f2                	jle    401158 <_Z11icache_goodPv+0x1e7>
  401166:	e9 b5 0b 00 00       	jmpq   401d20 <_Z11icache_goodPv+0xdaf>
  40116b:	c7 45 b8 00 00 00 00 	movl   $0x0,-0x48(%rbp)
  401172:	eb 08                	jmp    40117c <_Z11icache_goodPv+0x20b>
  401174:	83 45 f8 01          	addl   $0x1,-0x8(%rbp)
  401178:	83 45 b8 01          	addl   $0x1,-0x48(%rbp)
  40117c:	83 7d b8 63          	cmpl   $0x63,-0x48(%rbp)
  401180:	7e f2                	jle    401174 <_Z11icache_goodPv+0x203>
  401182:	e9 99 0b 00 00       	jmpq   401d20 <_Z11icache_goodPv+0xdaf>
  401187:	c7 45 b4 00 00 00 00 	movl   $0x0,-0x4c(%rbp)
  40118e:	eb 08                	jmp    401198 <_Z11icache_goodPv+0x227>
  401190:	83 45 f8 01          	addl   $0x1,-0x8(%rbp)
  401194:	83 45 b4 01          	addl   $0x1,-0x4c(%rbp)
  401198:	83 7d b4 63          	cmpl   $0x63,-0x4c(%rbp)
  40119c:	7e f2                	jle    401190 <_Z11icache_goodPv+0x21f>
  40119e:	e9 7d 0b 00 00       	jmpq   401d20 <_Z11icache_goodPv+0xdaf>
  4011a3:	c7 45 b0 00 00 00 00 	movl   $0x0,-0x50(%rbp)
  4011aa:	eb 08                	jmp    4011b4 <_Z11icache_goodPv+0x243>
  4011ac:	83 45 f8 01          	addl   $0x1,-0x8(%rbp)
  4011b0:	83 45 b0 01          	addl   $0x1,-0x50(%rbp)
  4011b4:	83 7d b0 63          	cmpl   $0x63,-0x50(%rbp)
  4011b8:	7e f2                	jle    4011ac <_Z11icache_goodPv+0x23b>
  4011ba:	e9 61 0b 00 00       	jmpq   401d20 <_Z11icache_goodPv+0xdaf>
  4011bf:	c7 45 ac 00 00 00 00 	movl   $0x0,-0x54(%rbp)
  4011c6:	eb 08                	jmp    4011d0 <_Z11icache_goodPv+0x25f>
  4011c8:	83 45 f8 01          	addl   $0x1,-0x8(%rbp)
  4011cc:	83 45 ac 01          	addl   $0x1,-0x54(%rbp)
  4011d0:	83 7d ac 63          	cmpl   $0x63,-0x54(%rbp)
  4011d4:	7e f2                	jle    4011c8 <_Z11icache_goodPv+0x257>
  4011d6:	e9 45 0b 00 00       	jmpq   401d20 <_Z11icache_goodPv+0xdaf>
  4011db:	c7 45 a8 00 00 00 00 	movl   $0x0,-0x58(%rbp)
  4011e2:	eb 08                	jmp    4011ec <_Z11icache_goodPv+0x27b>
  4011e4:	83 45 f8 01          	addl   $0x1,-0x8(%rbp)
  4011e8:	83 45 a8 01          	addl   $0x1,-0x58(%rbp)
  4011ec:	83 7d a8 63          	cmpl   $0x63,-0x58(%rbp)
  4011f0:	7e f2                	jle    4011e4 <_Z11icache_goodPv+0x273>
  4011f2:	e9 29 0b 00 00       	jmpq   401d20 <_Z11icache_goodPv+0xdaf>
  4011f7:	c7 45 a4 00 00 00 00 	movl   $0x0,-0x5c(%rbp)
  4011fe:	eb 08                	jmp    401208 <_Z11icache_goodPv+0x297>
  401200:	83 45 f8 01          	addl   $0x1,-0x8(%rbp)
  401204:	83 45 a4 01          	addl   $0x1,-0x5c(%rbp)
  401208:	83 7d a4 63          	cmpl   $0x63,-0x5c(%rbp)
  40120c:	7e f2                	jle    401200 <_Z11icache_goodPv+0x28f>
  40120e:	e9 0d 0b 00 00       	jmpq   401d20 <_Z11icache_goodPv+0xdaf>
  401213:	c7 45 a0 00 00 00 00 	movl   $0x0,-0x60(%rbp)
  40121a:	eb 08                	jmp    401224 <_Z11icache_goodPv+0x2b3>
  40121c:	83 45 f8 01          	addl   $0x1,-0x8(%rbp)
  401220:	83 45 a0 01          	addl   $0x1,-0x60(%rbp)
  401224:	83 7d a0 63          	cmpl   $0x63,-0x60(%rbp)
  401228:	7e f2                	jle    40121c <_Z11icache_goodPv+0x2ab>
  40122a:	e9 f1 0a 00 00       	jmpq   401d20 <_Z11icache_goodPv+0xdaf>
  40122f:	c7 45 9c 00 00 00 00 	movl   $0x0,-0x64(%rbp)
  401236:	eb 08                	jmp    401240 <_Z11icache_goodPv+0x2cf>
  401238:	83 45 f8 01          	addl   $0x1,-0x8(%rbp)
  40123c:	83 45 9c 01          	addl   $0x1,-0x64(%rbp)
  401240:	83 7d 9c 63          	cmpl   $0x63,-0x64(%rbp)
  401244:	7e f2                	jle    401238 <_Z11icache_goodPv+0x2c7>
  401246:	e9 d5 0a 00 00       	jmpq   401d20 <_Z11icache_goodPv+0xdaf>
  40124b:	c7 45 98 00 00 00 00 	movl   $0x0,-0x68(%rbp)
  401252:	eb 08                	jmp    40125c <_Z11icache_goodPv+0x2eb>
  401254:	83 45 f8 01          	addl   $0x1,-0x8(%rbp)
  401258:	83 45 98 01          	addl   $0x1,-0x68(%rbp)
  40125c:	83 7d 98 63          	cmpl   $0x63,-0x68(%rbp)
  401260:	7e f2                	jle    401254 <_Z11icache_goodPv+0x2e3>
  401262:	e9 b9 0a 00 00       	jmpq   401d20 <_Z11icache_goodPv+0xdaf>
  401267:	c7 45 94 00 00 00 00 	movl   $0x0,-0x6c(%rbp)
  40126e:	eb 08                	jmp    401278 <_Z11icache_goodPv+0x307>
  401270:	83 45 f8 01          	addl   $0x1,-0x8(%rbp)
  401274:	83 45 94 01          	addl   $0x1,-0x6c(%rbp)
  401278:	83 7d 94 63          	cmpl   $0x63,-0x6c(%rbp)
  40127c:	7e f2                	jle    401270 <_Z11icache_goodPv+0x2ff>
  40127e:	e9 9d 0a 00 00       	jmpq   401d20 <_Z11icache_goodPv+0xdaf>
  401283:	c7 45 90 00 00 00 00 	movl   $0x0,-0x70(%rbp)
  40128a:	eb 08                	jmp    401294 <_Z11icache_goodPv+0x323>
  40128c:	83 45 f8 01          	addl   $0x1,-0x8(%rbp)
  401290:	83 45 90 01          	addl   $0x1,-0x70(%rbp)
  401294:	83 7d 90 63          	cmpl   $0x63,-0x70(%rbp)
  401298:	7e f2                	jle    40128c <_Z11icache_goodPv+0x31b>
  40129a:	e9 81 0a 00 00       	jmpq   401d20 <_Z11icache_goodPv+0xdaf>
  40129f:	c7 45 8c 00 00 00 00 	movl   $0x0,-0x74(%rbp)
  4012a6:	eb 08                	jmp    4012b0 <_Z11icache_goodPv+0x33f>
  4012a8:	83 45 f8 01          	addl   $0x1,-0x8(%rbp)
  4012ac:	83 45 8c 01          	addl   $0x1,-0x74(%rbp)
  4012b0:	83 7d 8c 63          	cmpl   $0x63,-0x74(%rbp)
  4012b4:	7e f2                	jle    4012a8 <_Z11icache_goodPv+0x337>
  4012b6:	e9 65 0a 00 00       	jmpq   401d20 <_Z11icache_goodPv+0xdaf>
  4012bb:	c7 45 88 00 00 00 00 	movl   $0x0,-0x78(%rbp)
  4012c2:	eb 08                	jmp    4012cc <_Z11icache_goodPv+0x35b>
  4012c4:	83 45 f8 01          	addl   $0x1,-0x8(%rbp)
  4012c8:	83 45 88 01          	addl   $0x1,-0x78(%rbp)
  4012cc:	83 7d 88 63          	cmpl   $0x63,-0x78(%rbp)
  4012d0:	7e f2                	jle    4012c4 <_Z11icache_goodPv+0x353>
  4012d2:	e9 49 0a 00 00       	jmpq   401d20 <_Z11icache_goodPv+0xdaf>
  4012d7:	c7 45 84 00 00 00 00 	movl   $0x0,-0x7c(%rbp)
  4012de:	eb 08                	jmp    4012e8 <_Z11icache_goodPv+0x377>
  4012e0:	83 45 f8 01          	addl   $0x1,-0x8(%rbp)
  4012e4:	83 45 84 01          	addl   $0x1,-0x7c(%rbp)
  4012e8:	83 7d 84 63          	cmpl   $0x63,-0x7c(%rbp)
  4012ec:	7e f2                	jle    4012e0 <_Z11icache_goodPv+0x36f>
  4012ee:	e9 2d 0a 00 00       	jmpq   401d20 <_Z11icache_goodPv+0xdaf>
  4012f3:	c7 45 80 00 00 00 00 	movl   $0x0,-0x80(%rbp)
  4012fa:	eb 08                	jmp    401304 <_Z11icache_goodPv+0x393>
  4012fc:	83 45 f8 01          	addl   $0x1,-0x8(%rbp)
  401300:	83 45 80 01          	addl   $0x1,-0x80(%rbp)
  401304:	83 7d 80 63          	cmpl   $0x63,-0x80(%rbp)
  401308:	7e f2                	jle    4012fc <_Z11icache_goodPv+0x38b>
  40130a:	e9 11 0a 00 00       	jmpq   401d20 <_Z11icache_goodPv+0xdaf>
  40130f:	c7 85 7c ff ff ff 00 	movl   $0x0,-0x84(%rbp)
  401316:	00 00 00 
  401319:	eb 0b                	jmp    401326 <_Z11icache_goodPv+0x3b5>
  40131b:	83 45 f8 01          	addl   $0x1,-0x8(%rbp)
  40131f:	83 85 7c ff ff ff 01 	addl   $0x1,-0x84(%rbp)
  401326:	83 bd 7c ff ff ff 63 	cmpl   $0x63,-0x84(%rbp)
  40132d:	7e ec                	jle    40131b <_Z11icache_goodPv+0x3aa>
  40132f:	e9 ec 09 00 00       	jmpq   401d20 <_Z11icache_goodPv+0xdaf>
  401334:	c7 85 78 ff ff ff 00 	movl   $0x0,-0x88(%rbp)
  40133b:	00 00 00 
  40133e:	eb 0b                	jmp    40134b <_Z11icache_goodPv+0x3da>
  401340:	83 45 f8 01          	addl   $0x1,-0x8(%rbp)
  401344:	83 85 78 ff ff ff 01 	addl   $0x1,-0x88(%rbp)
  40134b:	83 bd 78 ff ff ff 63 	cmpl   $0x63,-0x88(%rbp)
  401352:	7e ec                	jle    401340 <_Z11icache_goodPv+0x3cf>
  401354:	e9 c7 09 00 00       	jmpq   401d20 <_Z11icache_goodPv+0xdaf>
  401359:	c7 85 74 ff ff ff 00 	movl   $0x0,-0x8c(%rbp)
  401360:	00 00 00 
  401363:	eb 0b                	jmp    401370 <_Z11icache_goodPv+0x3ff>
  401365:	83 45 f8 01          	addl   $0x1,-0x8(%rbp)
  401369:	83 85 74 ff ff ff 01 	addl   $0x1,-0x8c(%rbp)
  401370:	83 bd 74 ff ff ff 63 	cmpl   $0x63,-0x8c(%rbp)
  401377:	7e ec                	jle    401365 <_Z11icache_goodPv+0x3f4>
  401379:	e9 a2 09 00 00       	jmpq   401d20 <_Z11icache_goodPv+0xdaf>
  40137e:	c7 85 70 ff ff ff 00 	movl   $0x0,-0x90(%rbp)
  401385:	00 00 00 
  401388:	eb 0b                	jmp    401395 <_Z11icache_goodPv+0x424>
  40138a:	83 45 f8 01          	addl   $0x1,-0x8(%rbp)
  40138e:	83 85 70 ff ff ff 01 	addl   $0x1,-0x90(%rbp)
  401395:	83 bd 70 ff ff ff 63 	cmpl   $0x63,-0x90(%rbp)
  40139c:	7e ec                	jle    40138a <_Z11icache_goodPv+0x419>
  40139e:	e9 7d 09 00 00       	jmpq   401d20 <_Z11icache_goodPv+0xdaf>
  4013a3:	c7 85 6c ff ff ff 00 	movl   $0x0,-0x94(%rbp)
  4013aa:	00 00 00 
  4013ad:	eb 0b                	jmp    4013ba <_Z11icache_goodPv+0x449>
  4013af:	83 45 f8 01          	addl   $0x1,-0x8(%rbp)
  4013b3:	83 85 6c ff ff ff 01 	addl   $0x1,-0x94(%rbp)
  4013ba:	83 bd 6c ff ff ff 63 	cmpl   $0x63,-0x94(%rbp)
  4013c1:	7e ec                	jle    4013af <_Z11icache_goodPv+0x43e>
  4013c3:	e9 58 09 00 00       	jmpq   401d20 <_Z11icache_goodPv+0xdaf>
  4013c8:	c7 85 68 ff ff ff 00 	movl   $0x0,-0x98(%rbp)
  4013cf:	00 00 00 
  4013d2:	eb 0b                	jmp    4013df <_Z11icache_goodPv+0x46e>
  4013d4:	83 45 f8 01          	addl   $0x1,-0x8(%rbp)
  4013d8:	83 85 68 ff ff ff 01 	addl   $0x1,-0x98(%rbp)
  4013df:	83 bd 68 ff ff ff 63 	cmpl   $0x63,-0x98(%rbp)
  4013e6:	7e ec                	jle    4013d4 <_Z11icache_goodPv+0x463>
  4013e8:	e9 33 09 00 00       	jmpq   401d20 <_Z11icache_goodPv+0xdaf>
  4013ed:	c7 85 64 ff ff ff 00 	movl   $0x0,-0x9c(%rbp)
  4013f4:	00 00 00 
  4013f7:	eb 0b                	jmp    401404 <_Z11icache_goodPv+0x493>
  4013f9:	83 45 f8 01          	addl   $0x1,-0x8(%rbp)
  4013fd:	83 85 64 ff ff ff 01 	addl   $0x1,-0x9c(%rbp)
  401404:	83 bd 64 ff ff ff 63 	cmpl   $0x63,-0x9c(%rbp)
  40140b:	7e ec                	jle    4013f9 <_Z11icache_goodPv+0x488>
  40140d:	e9 0e 09 00 00       	jmpq   401d20 <_Z11icache_goodPv+0xdaf>
  401412:	c7 85 60 ff ff ff 00 	movl   $0x0,-0xa0(%rbp)
  401419:	00 00 00 
  40141c:	eb 0b                	jmp    401429 <_Z11icache_goodPv+0x4b8>
  40141e:	83 45 f8 01          	addl   $0x1,-0x8(%rbp)
  401422:	83 85 60 ff ff ff 01 	addl   $0x1,-0xa0(%rbp)
  401429:	83 bd 60 ff ff ff 63 	cmpl   $0x63,-0xa0(%rbp)
  401430:	7e ec                	jle    40141e <_Z11icache_goodPv+0x4ad>
  401432:	e9 e9 08 00 00       	jmpq   401d20 <_Z11icache_goodPv+0xdaf>
  401437:	c7 85 5c ff ff ff 00 	movl   $0x0,-0xa4(%rbp)
  40143e:	00 00 00 
  401441:	eb 0b                	jmp    40144e <_Z11icache_goodPv+0x4dd>
  401443:	83 45 f8 01          	addl   $0x1,-0x8(%rbp)
  401447:	83 85 5c ff ff ff 01 	addl   $0x1,-0xa4(%rbp)
  40144e:	83 bd 5c ff ff ff 63 	cmpl   $0x63,-0xa4(%rbp)
  401455:	7e ec                	jle    401443 <_Z11icache_goodPv+0x4d2>
  401457:	e9 c4 08 00 00       	jmpq   401d20 <_Z11icache_goodPv+0xdaf>
  40145c:	c7 85 58 ff ff ff 00 	movl   $0x0,-0xa8(%rbp)
  401463:	00 00 00 
  401466:	eb 0b                	jmp    401473 <_Z11icache_goodPv+0x502>
  401468:	83 45 f8 01          	addl   $0x1,-0x8(%rbp)
  40146c:	83 85 58 ff ff ff 01 	addl   $0x1,-0xa8(%rbp)
  401473:	83 bd 58 ff ff ff 63 	cmpl   $0x63,-0xa8(%rbp)
  40147a:	7e ec                	jle    401468 <_Z11icache_goodPv+0x4f7>
  40147c:	e9 9f 08 00 00       	jmpq   401d20 <_Z11icache_goodPv+0xdaf>
  401481:	c7 85 54 ff ff ff 00 	movl   $0x0,-0xac(%rbp)
  401488:	00 00 00 
  40148b:	eb 0b                	jmp    401498 <_Z11icache_goodPv+0x527>
  40148d:	83 45 f8 01          	addl   $0x1,-0x8(%rbp)
  401491:	83 85 54 ff ff ff 01 	addl   $0x1,-0xac(%rbp)
  401498:	83 bd 54 ff ff ff 63 	cmpl   $0x63,-0xac(%rbp)
  40149f:	7e ec                	jle    40148d <_Z11icache_goodPv+0x51c>
  4014a1:	e9 7a 08 00 00       	jmpq   401d20 <_Z11icache_goodPv+0xdaf>
  4014a6:	c7 85 50 ff ff ff 00 	movl   $0x0,-0xb0(%rbp)
  4014ad:	00 00 00 
  4014b0:	eb 0b                	jmp    4014bd <_Z11icache_goodPv+0x54c>
  4014b2:	83 45 f8 01          	addl   $0x1,-0x8(%rbp)
  4014b6:	83 85 50 ff ff ff 01 	addl   $0x1,-0xb0(%rbp)
  4014bd:	83 bd 50 ff ff ff 63 	cmpl   $0x63,-0xb0(%rbp)
  4014c4:	7e ec                	jle    4014b2 <_Z11icache_goodPv+0x541>
  4014c6:	e9 55 08 00 00       	jmpq   401d20 <_Z11icache_goodPv+0xdaf>
  4014cb:	c7 85 4c ff ff ff 00 	movl   $0x0,-0xb4(%rbp)
  4014d2:	00 00 00 
  4014d5:	eb 0b                	jmp    4014e2 <_Z11icache_goodPv+0x571>
  4014d7:	83 45 f8 01          	addl   $0x1,-0x8(%rbp)
  4014db:	83 85 4c ff ff ff 01 	addl   $0x1,-0xb4(%rbp)
  4014e2:	83 bd 4c ff ff ff 63 	cmpl   $0x63,-0xb4(%rbp)
  4014e9:	7e ec                	jle    4014d7 <_Z11icache_goodPv+0x566>
  4014eb:	e9 30 08 00 00       	jmpq   401d20 <_Z11icache_goodPv+0xdaf>
  4014f0:	c7 85 48 ff ff ff 00 	movl   $0x0,-0xb8(%rbp)
  4014f7:	00 00 00 
  4014fa:	eb 0b                	jmp    401507 <_Z11icache_goodPv+0x596>
  4014fc:	83 45 f8 01          	addl   $0x1,-0x8(%rbp)
  401500:	83 85 48 ff ff ff 01 	addl   $0x1,-0xb8(%rbp)
  401507:	83 bd 48 ff ff ff 63 	cmpl   $0x63,-0xb8(%rbp)
  40150e:	7e ec                	jle    4014fc <_Z11icache_goodPv+0x58b>
  401510:	e9 0b 08 00 00       	jmpq   401d20 <_Z11icache_goodPv+0xdaf>
  401515:	c7 85 44 ff ff ff 00 	movl   $0x0,-0xbc(%rbp)
  40151c:	00 00 00 
  40151f:	eb 0b                	jmp    40152c <_Z11icache_goodPv+0x5bb>
  401521:	83 45 f8 01          	addl   $0x1,-0x8(%rbp)
  401525:	83 85 44 ff ff ff 01 	addl   $0x1,-0xbc(%rbp)
  40152c:	83 bd 44 ff ff ff 63 	cmpl   $0x63,-0xbc(%rbp)
  401533:	7e ec                	jle    401521 <_Z11icache_goodPv+0x5b0>
  401535:	e9 e6 07 00 00       	jmpq   401d20 <_Z11icache_goodPv+0xdaf>
  40153a:	c7 85 40 ff ff ff 00 	movl   $0x0,-0xc0(%rbp)
  401541:	00 00 00 
  401544:	eb 0b                	jmp    401551 <_Z11icache_goodPv+0x5e0>
  401546:	83 45 f8 01          	addl   $0x1,-0x8(%rbp)
  40154a:	83 85 40 ff ff ff 01 	addl   $0x1,-0xc0(%rbp)
  401551:	83 bd 40 ff ff ff 63 	cmpl   $0x63,-0xc0(%rbp)
  401558:	7e ec                	jle    401546 <_Z11icache_goodPv+0x5d5>
  40155a:	e9 c1 07 00 00       	jmpq   401d20 <_Z11icache_goodPv+0xdaf>
  40155f:	c7 85 3c ff ff ff 00 	movl   $0x0,-0xc4(%rbp)
  401566:	00 00 00 
  401569:	eb 0b                	jmp    401576 <_Z11icache_goodPv+0x605>
  40156b:	83 45 f8 01          	addl   $0x1,-0x8(%rbp)
  40156f:	83 85 3c ff ff ff 01 	addl   $0x1,-0xc4(%rbp)
  401576:	83 bd 3c ff ff ff 63 	cmpl   $0x63,-0xc4(%rbp)
  40157d:	7e ec                	jle    40156b <_Z11icache_goodPv+0x5fa>
  40157f:	e9 9c 07 00 00       	jmpq   401d20 <_Z11icache_goodPv+0xdaf>
  401584:	c7 85 38 ff ff ff 00 	movl   $0x0,-0xc8(%rbp)
  40158b:	00 00 00 
  40158e:	eb 0b                	jmp    40159b <_Z11icache_goodPv+0x62a>
  401590:	83 45 f8 01          	addl   $0x1,-0x8(%rbp)
  401594:	83 85 38 ff ff ff 01 	addl   $0x1,-0xc8(%rbp)
  40159b:	83 bd 38 ff ff ff 63 	cmpl   $0x63,-0xc8(%rbp)
  4015a2:	7e ec                	jle    401590 <_Z11icache_goodPv+0x61f>
  4015a4:	e9 77 07 00 00       	jmpq   401d20 <_Z11icache_goodPv+0xdaf>
  4015a9:	c7 85 34 ff ff ff 00 	movl   $0x0,-0xcc(%rbp)
  4015b0:	00 00 00 
  4015b3:	eb 0b                	jmp    4015c0 <_Z11icache_goodPv+0x64f>
  4015b5:	83 45 f8 01          	addl   $0x1,-0x8(%rbp)
  4015b9:	83 85 34 ff ff ff 01 	addl   $0x1,-0xcc(%rbp)
  4015c0:	83 bd 34 ff ff ff 63 	cmpl   $0x63,-0xcc(%rbp)
  4015c7:	7e ec                	jle    4015b5 <_Z11icache_goodPv+0x644>
  4015c9:	e9 52 07 00 00       	jmpq   401d20 <_Z11icache_goodPv+0xdaf>
  4015ce:	c7 85 30 ff ff ff 00 	movl   $0x0,-0xd0(%rbp)
  4015d5:	00 00 00 
  4015d8:	eb 0b                	jmp    4015e5 <_Z11icache_goodPv+0x674>
  4015da:	83 45 f8 01          	addl   $0x1,-0x8(%rbp)
  4015de:	83 85 30 ff ff ff 01 	addl   $0x1,-0xd0(%rbp)
  4015e5:	83 bd 30 ff ff ff 63 	cmpl   $0x63,-0xd0(%rbp)
  4015ec:	7e ec                	jle    4015da <_Z11icache_goodPv+0x669>
  4015ee:	e9 2d 07 00 00       	jmpq   401d20 <_Z11icache_goodPv+0xdaf>
  4015f3:	c7 85 2c ff ff ff 00 	movl   $0x0,-0xd4(%rbp)
  4015fa:	00 00 00 
  4015fd:	eb 0b                	jmp    40160a <_Z11icache_goodPv+0x699>
  4015ff:	83 45 f8 01          	addl   $0x1,-0x8(%rbp)
  401603:	83 85 2c ff ff ff 01 	addl   $0x1,-0xd4(%rbp)
  40160a:	83 bd 2c ff ff ff 63 	cmpl   $0x63,-0xd4(%rbp)
  401611:	7e ec                	jle    4015ff <_Z11icache_goodPv+0x68e>
  401613:	e9 08 07 00 00       	jmpq   401d20 <_Z11icache_goodPv+0xdaf>
  401618:	c7 85 28 ff ff ff 00 	movl   $0x0,-0xd8(%rbp)
  40161f:	00 00 00 
  401622:	eb 0b                	jmp    40162f <_Z11icache_goodPv+0x6be>
  401624:	83 45 f8 01          	addl   $0x1,-0x8(%rbp)
  401628:	83 85 28 ff ff ff 01 	addl   $0x1,-0xd8(%rbp)
  40162f:	83 bd 28 ff ff ff 63 	cmpl   $0x63,-0xd8(%rbp)
  401636:	7e ec                	jle    401624 <_Z11icache_goodPv+0x6b3>
  401638:	e9 e3 06 00 00       	jmpq   401d20 <_Z11icache_goodPv+0xdaf>
  40163d:	c7 85 24 ff ff ff 00 	movl   $0x0,-0xdc(%rbp)
  401644:	00 00 00 
  401647:	eb 0b                	jmp    401654 <_Z11icache_goodPv+0x6e3>
  401649:	83 45 f8 01          	addl   $0x1,-0x8(%rbp)
  40164d:	83 85 24 ff ff ff 01 	addl   $0x1,-0xdc(%rbp)
  401654:	83 bd 24 ff ff ff 63 	cmpl   $0x63,-0xdc(%rbp)
  40165b:	7e ec                	jle    401649 <_Z11icache_goodPv+0x6d8>
  40165d:	e9 be 06 00 00       	jmpq   401d20 <_Z11icache_goodPv+0xdaf>
  401662:	c7 85 20 ff ff ff 00 	movl   $0x0,-0xe0(%rbp)
  401669:	00 00 00 
  40166c:	eb 0b                	jmp    401679 <_Z11icache_goodPv+0x708>
  40166e:	83 45 f8 01          	addl   $0x1,-0x8(%rbp)
  401672:	83 85 20 ff ff ff 01 	addl   $0x1,-0xe0(%rbp)
  401679:	83 bd 20 ff ff ff 63 	cmpl   $0x63,-0xe0(%rbp)
  401680:	7e ec                	jle    40166e <_Z11icache_goodPv+0x6fd>
  401682:	e9 99 06 00 00       	jmpq   401d20 <_Z11icache_goodPv+0xdaf>
  401687:	c7 85 1c ff ff ff 00 	movl   $0x0,-0xe4(%rbp)
  40168e:	00 00 00 
  401691:	eb 0b                	jmp    40169e <_Z11icache_goodPv+0x72d>
  401693:	83 45 f8 01          	addl   $0x1,-0x8(%rbp)
  401697:	83 85 1c ff ff ff 01 	addl   $0x1,-0xe4(%rbp)
  40169e:	83 bd 1c ff ff ff 63 	cmpl   $0x63,-0xe4(%rbp)
  4016a5:	7e ec                	jle    401693 <_Z11icache_goodPv+0x722>
  4016a7:	e9 74 06 00 00       	jmpq   401d20 <_Z11icache_goodPv+0xdaf>
  4016ac:	c7 85 18 ff ff ff 00 	movl   $0x0,-0xe8(%rbp)
  4016b3:	00 00 00 
  4016b6:	eb 0b                	jmp    4016c3 <_Z11icache_goodPv+0x752>
  4016b8:	83 45 f8 01          	addl   $0x1,-0x8(%rbp)
  4016bc:	83 85 18 ff ff ff 01 	addl   $0x1,-0xe8(%rbp)
  4016c3:	83 bd 18 ff ff ff 63 	cmpl   $0x63,-0xe8(%rbp)
  4016ca:	7e ec                	jle    4016b8 <_Z11icache_goodPv+0x747>
  4016cc:	e9 4f 06 00 00       	jmpq   401d20 <_Z11icache_goodPv+0xdaf>
  4016d1:	c7 85 14 ff ff ff 00 	movl   $0x0,-0xec(%rbp)
  4016d8:	00 00 00 
  4016db:	eb 0b                	jmp    4016e8 <_Z11icache_goodPv+0x777>
  4016dd:	83 45 f8 01          	addl   $0x1,-0x8(%rbp)
  4016e1:	83 85 14 ff ff ff 01 	addl   $0x1,-0xec(%rbp)
  4016e8:	83 bd 14 ff ff ff 63 	cmpl   $0x63,-0xec(%rbp)
  4016ef:	7e ec                	jle    4016dd <_Z11icache_goodPv+0x76c>
  4016f1:	e9 2a 06 00 00       	jmpq   401d20 <_Z11icache_goodPv+0xdaf>
  4016f6:	c7 85 10 ff ff ff 00 	movl   $0x0,-0xf0(%rbp)
  4016fd:	00 00 00 
  401700:	eb 0b                	jmp    40170d <_Z11icache_goodPv+0x79c>
  401702:	83 45 f8 01          	addl   $0x1,-0x8(%rbp)
  401706:	83 85 10 ff ff ff 01 	addl   $0x1,-0xf0(%rbp)
  40170d:	83 bd 10 ff ff ff 63 	cmpl   $0x63,-0xf0(%rbp)
  401714:	7e ec                	jle    401702 <_Z11icache_goodPv+0x791>
  401716:	e9 05 06 00 00       	jmpq   401d20 <_Z11icache_goodPv+0xdaf>
  40171b:	c7 85 0c ff ff ff 00 	movl   $0x0,-0xf4(%rbp)
  401722:	00 00 00 
  401725:	eb 0b                	jmp    401732 <_Z11icache_goodPv+0x7c1>
  401727:	83 45 f8 01          	addl   $0x1,-0x8(%rbp)
  40172b:	83 85 0c ff ff ff 01 	addl   $0x1,-0xf4(%rbp)
  401732:	83 bd 0c ff ff ff 63 	cmpl   $0x63,-0xf4(%rbp)
  401739:	7e ec                	jle    401727 <_Z11icache_goodPv+0x7b6>
  40173b:	e9 e0 05 00 00       	jmpq   401d20 <_Z11icache_goodPv+0xdaf>
  401740:	c7 85 08 ff ff ff 00 	movl   $0x0,-0xf8(%rbp)
  401747:	00 00 00 
  40174a:	eb 0b                	jmp    401757 <_Z11icache_goodPv+0x7e6>
  40174c:	83 45 f8 01          	addl   $0x1,-0x8(%rbp)
  401750:	83 85 08 ff ff ff 01 	addl   $0x1,-0xf8(%rbp)
  401757:	83 bd 08 ff ff ff 63 	cmpl   $0x63,-0xf8(%rbp)
  40175e:	7e ec                	jle    40174c <_Z11icache_goodPv+0x7db>
  401760:	e9 bb 05 00 00       	jmpq   401d20 <_Z11icache_goodPv+0xdaf>
  401765:	c7 85 04 ff ff ff 00 	movl   $0x0,-0xfc(%rbp)
  40176c:	00 00 00 
  40176f:	eb 0b                	jmp    40177c <_Z11icache_goodPv+0x80b>
  401771:	83 45 f8 01          	addl   $0x1,-0x8(%rbp)
  401775:	83 85 04 ff ff ff 01 	addl   $0x1,-0xfc(%rbp)
  40177c:	83 bd 04 ff ff ff 63 	cmpl   $0x63,-0xfc(%rbp)
  401783:	7e ec                	jle    401771 <_Z11icache_goodPv+0x800>
  401785:	e9 96 05 00 00       	jmpq   401d20 <_Z11icache_goodPv+0xdaf>
  40178a:	c7 85 00 ff ff ff 00 	movl   $0x0,-0x100(%rbp)
  401791:	00 00 00 
  401794:	eb 0b                	jmp    4017a1 <_Z11icache_goodPv+0x830>
  401796:	83 45 f8 01          	addl   $0x1,-0x8(%rbp)
  40179a:	83 85 00 ff ff ff 01 	addl   $0x1,-0x100(%rbp)
  4017a1:	83 bd 00 ff ff ff 63 	cmpl   $0x63,-0x100(%rbp)
  4017a8:	7e ec                	jle    401796 <_Z11icache_goodPv+0x825>
  4017aa:	e9 71 05 00 00       	jmpq   401d20 <_Z11icache_goodPv+0xdaf>
  4017af:	c7 85 fc fe ff ff 00 	movl   $0x0,-0x104(%rbp)
  4017b6:	00 00 00 
  4017b9:	eb 0b                	jmp    4017c6 <_Z11icache_goodPv+0x855>
  4017bb:	83 45 f8 01          	addl   $0x1,-0x8(%rbp)
  4017bf:	83 85 fc fe ff ff 01 	addl   $0x1,-0x104(%rbp)
  4017c6:	83 bd fc fe ff ff 63 	cmpl   $0x63,-0x104(%rbp)
  4017cd:	7e ec                	jle    4017bb <_Z11icache_goodPv+0x84a>
  4017cf:	e9 4c 05 00 00       	jmpq   401d20 <_Z11icache_goodPv+0xdaf>
  4017d4:	c7 85 f8 fe ff ff 00 	movl   $0x0,-0x108(%rbp)
  4017db:	00 00 00 
  4017de:	eb 0b                	jmp    4017eb <_Z11icache_goodPv+0x87a>
  4017e0:	83 45 f8 01          	addl   $0x1,-0x8(%rbp)
  4017e4:	83 85 f8 fe ff ff 01 	addl   $0x1,-0x108(%rbp)
  4017eb:	83 bd f8 fe ff ff 63 	cmpl   $0x63,-0x108(%rbp)
  4017f2:	7e ec                	jle    4017e0 <_Z11icache_goodPv+0x86f>
  4017f4:	e9 27 05 00 00       	jmpq   401d20 <_Z11icache_goodPv+0xdaf>
  4017f9:	c7 85 f4 fe ff ff 00 	movl   $0x0,-0x10c(%rbp)
  401800:	00 00 00 
  401803:	eb 0b                	jmp    401810 <_Z11icache_goodPv+0x89f>
  401805:	83 45 f8 01          	addl   $0x1,-0x8(%rbp)
  401809:	83 85 f4 fe ff ff 01 	addl   $0x1,-0x10c(%rbp)
  401810:	83 bd f4 fe ff ff 63 	cmpl   $0x63,-0x10c(%rbp)
  401817:	7e ec                	jle    401805 <_Z11icache_goodPv+0x894>
  401819:	e9 02 05 00 00       	jmpq   401d20 <_Z11icache_goodPv+0xdaf>
  40181e:	c7 85 f0 fe ff ff 00 	movl   $0x0,-0x110(%rbp)
  401825:	00 00 00 
  401828:	eb 0b                	jmp    401835 <_Z11icache_goodPv+0x8c4>
  40182a:	83 45 f8 01          	addl   $0x1,-0x8(%rbp)
  40182e:	83 85 f0 fe ff ff 01 	addl   $0x1,-0x110(%rbp)
  401835:	83 bd f0 fe ff ff 63 	cmpl   $0x63,-0x110(%rbp)
  40183c:	7e ec                	jle    40182a <_Z11icache_goodPv+0x8b9>
  40183e:	e9 dd 04 00 00       	jmpq   401d20 <_Z11icache_goodPv+0xdaf>
  401843:	c7 85 ec fe ff ff 00 	movl   $0x0,-0x114(%rbp)
  40184a:	00 00 00 
  40184d:	eb 0b                	jmp    40185a <_Z11icache_goodPv+0x8e9>
  40184f:	83 45 f8 01          	addl   $0x1,-0x8(%rbp)
  401853:	83 85 ec fe ff ff 01 	addl   $0x1,-0x114(%rbp)
  40185a:	83 bd ec fe ff ff 63 	cmpl   $0x63,-0x114(%rbp)
  401861:	7e ec                	jle    40184f <_Z11icache_goodPv+0x8de>
  401863:	e9 b8 04 00 00       	jmpq   401d20 <_Z11icache_goodPv+0xdaf>
  401868:	c7 85 e8 fe ff ff 00 	movl   $0x0,-0x118(%rbp)
  40186f:	00 00 00 
  401872:	eb 0b                	jmp    40187f <_Z11icache_goodPv+0x90e>
  401874:	83 45 f8 01          	addl   $0x1,-0x8(%rbp)
  401878:	83 85 e8 fe ff ff 01 	addl   $0x1,-0x118(%rbp)
  40187f:	83 bd e8 fe ff ff 63 	cmpl   $0x63,-0x118(%rbp)
  401886:	7e ec                	jle    401874 <_Z11icache_goodPv+0x903>
  401888:	e9 93 04 00 00       	jmpq   401d20 <_Z11icache_goodPv+0xdaf>
  40188d:	c7 85 e4 fe ff ff 00 	movl   $0x0,-0x11c(%rbp)
  401894:	00 00 00 
  401897:	eb 0b                	jmp    4018a4 <_Z11icache_goodPv+0x933>
  401899:	83 45 f8 01          	addl   $0x1,-0x8(%rbp)
  40189d:	83 85 e4 fe ff ff 01 	addl   $0x1,-0x11c(%rbp)
  4018a4:	83 bd e4 fe ff ff 63 	cmpl   $0x63,-0x11c(%rbp)
  4018ab:	7e ec                	jle    401899 <_Z11icache_goodPv+0x928>
  4018ad:	e9 6e 04 00 00       	jmpq   401d20 <_Z11icache_goodPv+0xdaf>
  4018b2:	c7 85 e0 fe ff ff 00 	movl   $0x0,-0x120(%rbp)
  4018b9:	00 00 00 
  4018bc:	eb 0b                	jmp    4018c9 <_Z11icache_goodPv+0x958>
  4018be:	83 45 f8 01          	addl   $0x1,-0x8(%rbp)
  4018c2:	83 85 e0 fe ff ff 01 	addl   $0x1,-0x120(%rbp)
  4018c9:	83 bd e0 fe ff ff 63 	cmpl   $0x63,-0x120(%rbp)
  4018d0:	7e ec                	jle    4018be <_Z11icache_goodPv+0x94d>
  4018d2:	e9 49 04 00 00       	jmpq   401d20 <_Z11icache_goodPv+0xdaf>
  4018d7:	c7 85 dc fe ff ff 00 	movl   $0x0,-0x124(%rbp)
  4018de:	00 00 00 
  4018e1:	eb 0b                	jmp    4018ee <_Z11icache_goodPv+0x97d>
  4018e3:	83 45 f8 01          	addl   $0x1,-0x8(%rbp)
  4018e7:	83 85 dc fe ff ff 01 	addl   $0x1,-0x124(%rbp)
  4018ee:	83 bd dc fe ff ff 63 	cmpl   $0x63,-0x124(%rbp)
  4018f5:	7e ec                	jle    4018e3 <_Z11icache_goodPv+0x972>
  4018f7:	e9 24 04 00 00       	jmpq   401d20 <_Z11icache_goodPv+0xdaf>
  4018fc:	c7 85 d8 fe ff ff 00 	movl   $0x0,-0x128(%rbp)
  401903:	00 00 00 
  401906:	eb 0b                	jmp    401913 <_Z11icache_goodPv+0x9a2>
  401908:	83 45 f8 01          	addl   $0x1,-0x8(%rbp)
  40190c:	83 85 d8 fe ff ff 01 	addl   $0x1,-0x128(%rbp)
  401913:	83 bd d8 fe ff ff 63 	cmpl   $0x63,-0x128(%rbp)
  40191a:	7e ec                	jle    401908 <_Z11icache_goodPv+0x997>
  40191c:	e9 ff 03 00 00       	jmpq   401d20 <_Z11icache_goodPv+0xdaf>
  401921:	c7 85 d4 fe ff ff 00 	movl   $0x0,-0x12c(%rbp)
  401928:	00 00 00 
  40192b:	eb 0b                	jmp    401938 <_Z11icache_goodPv+0x9c7>
  40192d:	83 45 f8 01          	addl   $0x1,-0x8(%rbp)
  401931:	83 85 d4 fe ff ff 01 	addl   $0x1,-0x12c(%rbp)
  401938:	83 bd d4 fe ff ff 63 	cmpl   $0x63,-0x12c(%rbp)
  40193f:	7e ec                	jle    40192d <_Z11icache_goodPv+0x9bc>
  401941:	e9 da 03 00 00       	jmpq   401d20 <_Z11icache_goodPv+0xdaf>
  401946:	c7 85 d0 fe ff ff 00 	movl   $0x0,-0x130(%rbp)
  40194d:	00 00 00 
  401950:	eb 0b                	jmp    40195d <_Z11icache_goodPv+0x9ec>
  401952:	83 45 f8 01          	addl   $0x1,-0x8(%rbp)
  401956:	83 85 d0 fe ff ff 01 	addl   $0x1,-0x130(%rbp)
  40195d:	83 bd d0 fe ff ff 63 	cmpl   $0x63,-0x130(%rbp)
  401964:	7e ec                	jle    401952 <_Z11icache_goodPv+0x9e1>
  401966:	e9 b5 03 00 00       	jmpq   401d20 <_Z11icache_goodPv+0xdaf>
  40196b:	c7 85 cc fe ff ff 00 	movl   $0x0,-0x134(%rbp)
  401972:	00 00 00 
  401975:	eb 0b                	jmp    401982 <_Z11icache_goodPv+0xa11>
  401977:	83 45 f8 01          	addl   $0x1,-0x8(%rbp)
  40197b:	83 85 cc fe ff ff 01 	addl   $0x1,-0x134(%rbp)
  401982:	83 bd cc fe ff ff 63 	cmpl   $0x63,-0x134(%rbp)
  401989:	7e ec                	jle    401977 <_Z11icache_goodPv+0xa06>
  40198b:	e9 90 03 00 00       	jmpq   401d20 <_Z11icache_goodPv+0xdaf>
  401990:	c7 85 c8 fe ff ff 00 	movl   $0x0,-0x138(%rbp)
  401997:	00 00 00 
  40199a:	eb 0b                	jmp    4019a7 <_Z11icache_goodPv+0xa36>
  40199c:	83 45 f8 01          	addl   $0x1,-0x8(%rbp)
  4019a0:	83 85 c8 fe ff ff 01 	addl   $0x1,-0x138(%rbp)
  4019a7:	83 bd c8 fe ff ff 63 	cmpl   $0x63,-0x138(%rbp)
  4019ae:	7e ec                	jle    40199c <_Z11icache_goodPv+0xa2b>
  4019b0:	e9 6b 03 00 00       	jmpq   401d20 <_Z11icache_goodPv+0xdaf>
  4019b5:	c7 85 c4 fe ff ff 00 	movl   $0x0,-0x13c(%rbp)
  4019bc:	00 00 00 
  4019bf:	eb 0b                	jmp    4019cc <_Z11icache_goodPv+0xa5b>
  4019c1:	83 45 f8 01          	addl   $0x1,-0x8(%rbp)
  4019c5:	83 85 c4 fe ff ff 01 	addl   $0x1,-0x13c(%rbp)
  4019cc:	83 bd c4 fe ff ff 63 	cmpl   $0x63,-0x13c(%rbp)
  4019d3:	7e ec                	jle    4019c1 <_Z11icache_goodPv+0xa50>
  4019d5:	e9 46 03 00 00       	jmpq   401d20 <_Z11icache_goodPv+0xdaf>
  4019da:	c7 85 c0 fe ff ff 00 	movl   $0x0,-0x140(%rbp)
  4019e1:	00 00 00 
  4019e4:	eb 0b                	jmp    4019f1 <_Z11icache_goodPv+0xa80>
  4019e6:	83 45 f8 01          	addl   $0x1,-0x8(%rbp)
  4019ea:	83 85 c0 fe ff ff 01 	addl   $0x1,-0x140(%rbp)
  4019f1:	83 bd c0 fe ff ff 63 	cmpl   $0x63,-0x140(%rbp)
  4019f8:	7e ec                	jle    4019e6 <_Z11icache_goodPv+0xa75>
  4019fa:	e9 21 03 00 00       	jmpq   401d20 <_Z11icache_goodPv+0xdaf>
  4019ff:	c7 85 bc fe ff ff 00 	movl   $0x0,-0x144(%rbp)
  401a06:	00 00 00 
  401a09:	eb 0b                	jmp    401a16 <_Z11icache_goodPv+0xaa5>
  401a0b:	83 45 f8 01          	addl   $0x1,-0x8(%rbp)
  401a0f:	83 85 bc fe ff ff 01 	addl   $0x1,-0x144(%rbp)
  401a16:	83 bd bc fe ff ff 63 	cmpl   $0x63,-0x144(%rbp)
  401a1d:	7e ec                	jle    401a0b <_Z11icache_goodPv+0xa9a>
  401a1f:	e9 fc 02 00 00       	jmpq   401d20 <_Z11icache_goodPv+0xdaf>
  401a24:	c7 85 b8 fe ff ff 00 	movl   $0x0,-0x148(%rbp)
  401a2b:	00 00 00 
  401a2e:	eb 0b                	jmp    401a3b <_Z11icache_goodPv+0xaca>
  401a30:	83 45 f8 01          	addl   $0x1,-0x8(%rbp)
  401a34:	83 85 b8 fe ff ff 01 	addl   $0x1,-0x148(%rbp)
  401a3b:	83 bd b8 fe ff ff 63 	cmpl   $0x63,-0x148(%rbp)
  401a42:	7e ec                	jle    401a30 <_Z11icache_goodPv+0xabf>
  401a44:	e9 d7 02 00 00       	jmpq   401d20 <_Z11icache_goodPv+0xdaf>
  401a49:	c7 85 b4 fe ff ff 00 	movl   $0x0,-0x14c(%rbp)
  401a50:	00 00 00 
  401a53:	eb 0b                	jmp    401a60 <_Z11icache_goodPv+0xaef>
  401a55:	83 45 f8 01          	addl   $0x1,-0x8(%rbp)
  401a59:	83 85 b4 fe ff ff 01 	addl   $0x1,-0x14c(%rbp)
  401a60:	83 bd b4 fe ff ff 63 	cmpl   $0x63,-0x14c(%rbp)
  401a67:	7e ec                	jle    401a55 <_Z11icache_goodPv+0xae4>
  401a69:	e9 b2 02 00 00       	jmpq   401d20 <_Z11icache_goodPv+0xdaf>
  401a6e:	c7 85 b0 fe ff ff 00 	movl   $0x0,-0x150(%rbp)
  401a75:	00 00 00 
  401a78:	eb 0b                	jmp    401a85 <_Z11icache_goodPv+0xb14>
  401a7a:	83 45 f8 01          	addl   $0x1,-0x8(%rbp)
  401a7e:	83 85 b0 fe ff ff 01 	addl   $0x1,-0x150(%rbp)
  401a85:	83 bd b0 fe ff ff 63 	cmpl   $0x63,-0x150(%rbp)
  401a8c:	7e ec                	jle    401a7a <_Z11icache_goodPv+0xb09>
  401a8e:	e9 8d 02 00 00       	jmpq   401d20 <_Z11icache_goodPv+0xdaf>
  401a93:	c7 85 ac fe ff ff 00 	movl   $0x0,-0x154(%rbp)
  401a9a:	00 00 00 
  401a9d:	eb 0b                	jmp    401aaa <_Z11icache_goodPv+0xb39>
  401a9f:	83 45 f8 01          	addl   $0x1,-0x8(%rbp)
  401aa3:	83 85 ac fe ff ff 01 	addl   $0x1,-0x154(%rbp)
  401aaa:	83 bd ac fe ff ff 63 	cmpl   $0x63,-0x154(%rbp)
  401ab1:	7e ec                	jle    401a9f <_Z11icache_goodPv+0xb2e>
  401ab3:	e9 68 02 00 00       	jmpq   401d20 <_Z11icache_goodPv+0xdaf>
  401ab8:	c7 85 a8 fe ff ff 00 	movl   $0x0,-0x158(%rbp)
  401abf:	00 00 00 
  401ac2:	eb 0b                	jmp    401acf <_Z11icache_goodPv+0xb5e>
  401ac4:	83 45 f8 01          	addl   $0x1,-0x8(%rbp)
  401ac8:	83 85 a8 fe ff ff 01 	addl   $0x1,-0x158(%rbp)
  401acf:	83 bd a8 fe ff ff 63 	cmpl   $0x63,-0x158(%rbp)
  401ad6:	7e ec                	jle    401ac4 <_Z11icache_goodPv+0xb53>
  401ad8:	e9 43 02 00 00       	jmpq   401d20 <_Z11icache_goodPv+0xdaf>
  401add:	c7 85 a4 fe ff ff 00 	movl   $0x0,-0x15c(%rbp)
  401ae4:	00 00 00 
  401ae7:	eb 0b                	jmp    401af4 <_Z11icache_goodPv+0xb83>
  401ae9:	83 45 f8 01          	addl   $0x1,-0x8(%rbp)
  401aed:	83 85 a4 fe ff ff 01 	addl   $0x1,-0x15c(%rbp)
  401af4:	83 bd a4 fe ff ff 63 	cmpl   $0x63,-0x15c(%rbp)
  401afb:	7e ec                	jle    401ae9 <_Z11icache_goodPv+0xb78>
  401afd:	e9 1e 02 00 00       	jmpq   401d20 <_Z11icache_goodPv+0xdaf>
  401b02:	c7 85 a0 fe ff ff 00 	movl   $0x0,-0x160(%rbp)
  401b09:	00 00 00 
  401b0c:	eb 0b                	jmp    401b19 <_Z11icache_goodPv+0xba8>
  401b0e:	83 45 f8 01          	addl   $0x1,-0x8(%rbp)
  401b12:	83 85 a0 fe ff ff 01 	addl   $0x1,-0x160(%rbp)
  401b19:	83 bd a0 fe ff ff 63 	cmpl   $0x63,-0x160(%rbp)
  401b20:	7e ec                	jle    401b0e <_Z11icache_goodPv+0xb9d>
  401b22:	e9 f9 01 00 00       	jmpq   401d20 <_Z11icache_goodPv+0xdaf>
  401b27:	c7 85 9c fe ff ff 00 	movl   $0x0,-0x164(%rbp)
  401b2e:	00 00 00 
  401b31:	eb 0b                	jmp    401b3e <_Z11icache_goodPv+0xbcd>
  401b33:	83 45 f8 01          	addl   $0x1,-0x8(%rbp)
  401b37:	83 85 9c fe ff ff 01 	addl   $0x1,-0x164(%rbp)
  401b3e:	83 bd 9c fe ff ff 63 	cmpl   $0x63,-0x164(%rbp)
  401b45:	7e ec                	jle    401b33 <_Z11icache_goodPv+0xbc2>
  401b47:	e9 d4 01 00 00       	jmpq   401d20 <_Z11icache_goodPv+0xdaf>
  401b4c:	c7 85 98 fe ff ff 00 	movl   $0x0,-0x168(%rbp)
  401b53:	00 00 00 
  401b56:	eb 0b                	jmp    401b63 <_Z11icache_goodPv+0xbf2>
  401b58:	83 45 f8 01          	addl   $0x1,-0x8(%rbp)
  401b5c:	83 85 98 fe ff ff 01 	addl   $0x1,-0x168(%rbp)
  401b63:	83 bd 98 fe ff ff 63 	cmpl   $0x63,-0x168(%rbp)
  401b6a:	7e ec                	jle    401b58 <_Z11icache_goodPv+0xbe7>
  401b6c:	e9 af 01 00 00       	jmpq   401d20 <_Z11icache_goodPv+0xdaf>
  401b71:	c7 85 94 fe ff ff 00 	movl   $0x0,-0x16c(%rbp)
  401b78:	00 00 00 
  401b7b:	eb 0b                	jmp    401b88 <_Z11icache_goodPv+0xc17>
  401b7d:	83 45 f8 01          	addl   $0x1,-0x8(%rbp)
  401b81:	83 85 94 fe ff ff 01 	addl   $0x1,-0x16c(%rbp)
  401b88:	83 bd 94 fe ff ff 63 	cmpl   $0x63,-0x16c(%rbp)
  401b8f:	7e ec                	jle    401b7d <_Z11icache_goodPv+0xc0c>
  401b91:	e9 8a 01 00 00       	jmpq   401d20 <_Z11icache_goodPv+0xdaf>
  401b96:	c7 85 90 fe ff ff 00 	movl   $0x0,-0x170(%rbp)
  401b9d:	00 00 00 
  401ba0:	eb 0b                	jmp    401bad <_Z11icache_goodPv+0xc3c>
  401ba2:	83 45 f8 01          	addl   $0x1,-0x8(%rbp)
  401ba6:	83 85 90 fe ff ff 01 	addl   $0x1,-0x170(%rbp)
  401bad:	83 bd 90 fe ff ff 63 	cmpl   $0x63,-0x170(%rbp)
  401bb4:	7e ec                	jle    401ba2 <_Z11icache_goodPv+0xc31>
  401bb6:	e9 65 01 00 00       	jmpq   401d20 <_Z11icache_goodPv+0xdaf>
  401bbb:	c7 85 8c fe ff ff 00 	movl   $0x0,-0x174(%rbp)
  401bc2:	00 00 00 
  401bc5:	eb 0b                	jmp    401bd2 <_Z11icache_goodPv+0xc61>
  401bc7:	83 45 f8 01          	addl   $0x1,-0x8(%rbp)
  401bcb:	83 85 8c fe ff ff 01 	addl   $0x1,-0x174(%rbp)
  401bd2:	83 bd 8c fe ff ff 63 	cmpl   $0x63,-0x174(%rbp)
  401bd9:	7e ec                	jle    401bc7 <_Z11icache_goodPv+0xc56>
  401bdb:	e9 40 01 00 00       	jmpq   401d20 <_Z11icache_goodPv+0xdaf>
  401be0:	c7 85 88 fe ff ff 00 	movl   $0x0,-0x178(%rbp)
  401be7:	00 00 00 
  401bea:	eb 0b                	jmp    401bf7 <_Z11icache_goodPv+0xc86>
  401bec:	83 45 f8 01          	addl   $0x1,-0x8(%rbp)
  401bf0:	83 85 88 fe ff ff 01 	addl   $0x1,-0x178(%rbp)
  401bf7:	83 bd 88 fe ff ff 63 	cmpl   $0x63,-0x178(%rbp)
  401bfe:	7e ec                	jle    401bec <_Z11icache_goodPv+0xc7b>
  401c00:	e9 1b 01 00 00       	jmpq   401d20 <_Z11icache_goodPv+0xdaf>
  401c05:	c7 85 84 fe ff ff 00 	movl   $0x0,-0x17c(%rbp)
  401c0c:	00 00 00 
  401c0f:	eb 0b                	jmp    401c1c <_Z11icache_goodPv+0xcab>
  401c11:	83 45 f8 01          	addl   $0x1,-0x8(%rbp)
  401c15:	83 85 84 fe ff ff 01 	addl   $0x1,-0x17c(%rbp)
  401c1c:	83 bd 84 fe ff ff 63 	cmpl   $0x63,-0x17c(%rbp)
  401c23:	7e ec                	jle    401c11 <_Z11icache_goodPv+0xca0>
  401c25:	e9 f6 00 00 00       	jmpq   401d20 <_Z11icache_goodPv+0xdaf>
  401c2a:	c7 85 80 fe ff ff 00 	movl   $0x0,-0x180(%rbp)
  401c31:	00 00 00 
  401c34:	eb 0b                	jmp    401c41 <_Z11icache_goodPv+0xcd0>
  401c36:	83 45 f8 01          	addl   $0x1,-0x8(%rbp)
  401c3a:	83 85 80 fe ff ff 01 	addl   $0x1,-0x180(%rbp)
  401c41:	83 bd 80 fe ff ff 63 	cmpl   $0x63,-0x180(%rbp)
  401c48:	7e ec                	jle    401c36 <_Z11icache_goodPv+0xcc5>
  401c4a:	e9 d1 00 00 00       	jmpq   401d20 <_Z11icache_goodPv+0xdaf>
  401c4f:	c7 85 7c fe ff ff 00 	movl   $0x0,-0x184(%rbp)
  401c56:	00 00 00 
  401c59:	eb 0b                	jmp    401c66 <_Z11icache_goodPv+0xcf5>
  401c5b:	83 45 f8 01          	addl   $0x1,-0x8(%rbp)
  401c5f:	83 85 7c fe ff ff 01 	addl   $0x1,-0x184(%rbp)
  401c66:	83 bd 7c fe ff ff 63 	cmpl   $0x63,-0x184(%rbp)
  401c6d:	7e ec                	jle    401c5b <_Z11icache_goodPv+0xcea>
  401c6f:	e9 ac 00 00 00       	jmpq   401d20 <_Z11icache_goodPv+0xdaf>
  401c74:	c7 85 78 fe ff ff 00 	movl   $0x0,-0x188(%rbp)
  401c7b:	00 00 00 
  401c7e:	eb 0b                	jmp    401c8b <_Z11icache_goodPv+0xd1a>
  401c80:	83 45 f8 01          	addl   $0x1,-0x8(%rbp)
  401c84:	83 85 78 fe ff ff 01 	addl   $0x1,-0x188(%rbp)
  401c8b:	83 bd 78 fe ff ff 63 	cmpl   $0x63,-0x188(%rbp)
  401c92:	7e ec                	jle    401c80 <_Z11icache_goodPv+0xd0f>
  401c94:	e9 87 00 00 00       	jmpq   401d20 <_Z11icache_goodPv+0xdaf>
  401c99:	c7 85 74 fe ff ff 00 	movl   $0x0,-0x18c(%rbp)
  401ca0:	00 00 00 
  401ca3:	eb 0b                	jmp    401cb0 <_Z11icache_goodPv+0xd3f>
  401ca5:	83 45 f8 01          	addl   $0x1,-0x8(%rbp)
  401ca9:	83 85 74 fe ff ff 01 	addl   $0x1,-0x18c(%rbp)
  401cb0:	83 bd 74 fe ff ff 63 	cmpl   $0x63,-0x18c(%rbp)
  401cb7:	7e ec                	jle    401ca5 <_Z11icache_goodPv+0xd34>
  401cb9:	eb 65                	jmp    401d20 <_Z11icache_goodPv+0xdaf>
  401cbb:	c7 85 70 fe ff ff 00 	movl   $0x0,-0x190(%rbp)
  401cc2:	00 00 00 
  401cc5:	eb 0b                	jmp    401cd2 <_Z11icache_goodPv+0xd61>
  401cc7:	83 45 f8 01          	addl   $0x1,-0x8(%rbp)
  401ccb:	83 85 70 fe ff ff 01 	addl   $0x1,-0x190(%rbp)
  401cd2:	83 bd 70 fe ff ff 63 	cmpl   $0x63,-0x190(%rbp)
  401cd9:	7e ec                	jle    401cc7 <_Z11icache_goodPv+0xd56>
  401cdb:	eb 43                	jmp    401d20 <_Z11icache_goodPv+0xdaf>
  401cdd:	c7 85 6c fe ff ff 00 	movl   $0x0,-0x194(%rbp)
  401ce4:	00 00 00 
  401ce7:	eb 0b                	jmp    401cf4 <_Z11icache_goodPv+0xd83>
  401ce9:	83 45 f8 01          	addl   $0x1,-0x8(%rbp)
  401ced:	83 85 6c fe ff ff 01 	addl   $0x1,-0x194(%rbp)
  401cf4:	83 bd 6c fe ff ff 63 	cmpl   $0x63,-0x194(%rbp)
  401cfb:	7e ec                	jle    401ce9 <_Z11icache_goodPv+0xd78>
  401cfd:	eb 21                	jmp    401d20 <_Z11icache_goodPv+0xdaf>
  401cff:	c7 85 68 fe ff ff 00 	movl   $0x0,-0x198(%rbp)
  401d06:	00 00 00 
  401d09:	eb 0b                	jmp    401d16 <_Z11icache_goodPv+0xda5>
  401d0b:	83 45 f8 01          	addl   $0x1,-0x8(%rbp)
  401d0f:	83 85 68 fe ff ff 01 	addl   $0x1,-0x198(%rbp)
  401d16:	83 bd 68 fe ff ff 63 	cmpl   $0x63,-0x198(%rbp)
  401d1d:	7e ec                	jle    401d0b <_Z11icache_goodPv+0xd9a>
  401d1f:	90                   	nop
  401d20:	83 45 fc 01          	addl   $0x1,-0x4(%rbp)
  401d24:	81 7d fc 0f 27 00 00 	cmpl   $0x270f,-0x4(%rbp)
  401d2b:	0f 8e 78 f2 ff ff    	jle    400fa9 <_Z11icache_goodPv+0x38>
  401d31:	c9                   	leaveq 
  401d32:	c3                   	retq   

0000000000401d33 <_Z11icache_missPv>:
  401d33:	55                   	push   %rbp
  401d34:	48 89 e5             	mov    %rsp,%rbp
  401d37:	48 81 ec d0 01 00 00 	sub    $0x1d0,%rsp
  401d3e:	48 89 bd 38 fe ff ff 	mov    %rdi,-0x1c8(%rbp)
  401d45:	48 8b 85 38 fe ff ff 	mov    -0x1c8(%rbp),%rax
  401d4c:	89 85 64 fe ff ff    	mov    %eax,-0x19c(%rbp)
  401d52:	8b 85 64 fe ff ff    	mov    -0x19c(%rbp),%eax
  401d58:	89 c7                	mov    %eax,%edi
  401d5a:	e8 87 ec ff ff       	callq  4009e6 <_Z14set_thread_cpui>
  401d5f:	48 8d 85 50 fe ff ff 	lea    -0x1b0(%rbp),%rax
  401d66:	be 01 00 00 00       	mov    $0x1,%esi
  401d6b:	48 89 c7             	mov    %rax,%rdi
  401d6e:	e8 4d 0e 00 00       	callq  402bc0 <_ZNSt26linear_congruential_engineImLm16807ELm0ELm2147483647EEC1Em>
  401d73:	48 8d 85 40 fe ff ff 	lea    -0x1c0(%rbp),%rax
  401d7a:	ba 64 00 00 00       	mov    $0x64,%edx
  401d7f:	be 00 00 00 00       	mov    $0x0,%esi
  401d84:	48 89 c7             	mov    %rax,%rdi
  401d87:	e8 5a 0e 00 00       	callq  402be6 <_ZNSt24uniform_int_distributionIiEC1Eii>
  401d8c:	c7 45 fc 00 00 00 00 	movl   $0x0,-0x4(%rbp)
  401d93:	e9 92 0d 00 00       	jmpq   402b2a <_Z11icache_missPv+0xdf7>
  401d98:	c7 45 f8 00 00 00 00 	movl   $0x0,-0x8(%rbp)
  401d9f:	48 8d 95 50 fe ff ff 	lea    -0x1b0(%rbp),%rdx
  401da6:	48 8d 85 40 fe ff ff 	lea    -0x1c0(%rbp),%rax
  401dad:	48 89 d6             	mov    %rdx,%rsi
  401db0:	48 89 c7             	mov    %rax,%rdi
  401db3:	e8 56 0e 00 00       	callq  402c0e <_ZNSt24uniform_int_distributionIiEclISt26linear_congruential_engineImLm16807ELm0ELm2147483647EEEEiRT_>
  401db8:	83 f8 63             	cmp    $0x63,%eax
  401dbb:	0f 87 65 0d 00 00    	ja     402b26 <_Z11icache_missPv+0xdf3>
  401dc1:	89 c0                	mov    %eax,%eax
  401dc3:	48 8b 04 c5 c0 3e 40 	mov    0x403ec0(,%rax,8),%rax
  401dca:	00 
  401dcb:	ff e0                	jmpq   *%rax
  401dcd:	c7 45 f4 00 00 00 00 	movl   $0x0,-0xc(%rbp)
  401dd4:	eb 08                	jmp    401dde <_Z11icache_missPv+0xab>
  401dd6:	83 45 f8 01          	addl   $0x1,-0x8(%rbp)
  401dda:	83 45 f4 01          	addl   $0x1,-0xc(%rbp)
  401dde:	83 7d f4 63          	cmpl   $0x63,-0xc(%rbp)
  401de2:	7e f2                	jle    401dd6 <_Z11icache_missPv+0xa3>
  401de4:	e9 3d 0d 00 00       	jmpq   402b26 <_Z11icache_missPv+0xdf3>
  401de9:	c7 45 f0 00 00 00 00 	movl   $0x0,-0x10(%rbp)
  401df0:	eb 08                	jmp    401dfa <_Z11icache_missPv+0xc7>
  401df2:	83 45 f8 01          	addl   $0x1,-0x8(%rbp)
  401df6:	83 45 f0 01          	addl   $0x1,-0x10(%rbp)
  401dfa:	83 7d f0 63          	cmpl   $0x63,-0x10(%rbp)
  401dfe:	7e f2                	jle    401df2 <_Z11icache_missPv+0xbf>
  401e00:	e9 21 0d 00 00       	jmpq   402b26 <_Z11icache_missPv+0xdf3>
  401e05:	c7 45 ec 00 00 00 00 	movl   $0x0,-0x14(%rbp)
  401e0c:	eb 08                	jmp    401e16 <_Z11icache_missPv+0xe3>
  401e0e:	83 45 f8 01          	addl   $0x1,-0x8(%rbp)
  401e12:	83 45 ec 01          	addl   $0x1,-0x14(%rbp)
  401e16:	83 7d ec 63          	cmpl   $0x63,-0x14(%rbp)
  401e1a:	7e f2                	jle    401e0e <_Z11icache_missPv+0xdb>
  401e1c:	e9 05 0d 00 00       	jmpq   402b26 <_Z11icache_missPv+0xdf3>
  401e21:	c7 45 e8 00 00 00 00 	movl   $0x0,-0x18(%rbp)
  401e28:	eb 08                	jmp    401e32 <_Z11icache_missPv+0xff>
  401e2a:	83 45 f8 01          	addl   $0x1,-0x8(%rbp)
  401e2e:	83 45 e8 01          	addl   $0x1,-0x18(%rbp)
  401e32:	83 7d e8 63          	cmpl   $0x63,-0x18(%rbp)
  401e36:	7e f2                	jle    401e2a <_Z11icache_missPv+0xf7>
  401e38:	e9 e9 0c 00 00       	jmpq   402b26 <_Z11icache_missPv+0xdf3>
  401e3d:	c7 45 e4 00 00 00 00 	movl   $0x0,-0x1c(%rbp)
  401e44:	eb 08                	jmp    401e4e <_Z11icache_missPv+0x11b>
  401e46:	83 45 f8 01          	addl   $0x1,-0x8(%rbp)
  401e4a:	83 45 e4 01          	addl   $0x1,-0x1c(%rbp)
  401e4e:	83 7d e4 63          	cmpl   $0x63,-0x1c(%rbp)
  401e52:	7e f2                	jle    401e46 <_Z11icache_missPv+0x113>
  401e54:	e9 cd 0c 00 00       	jmpq   402b26 <_Z11icache_missPv+0xdf3>
  401e59:	c7 45 e0 00 00 00 00 	movl   $0x0,-0x20(%rbp)
  401e60:	eb 08                	jmp    401e6a <_Z11icache_missPv+0x137>
  401e62:	83 45 f8 01          	addl   $0x1,-0x8(%rbp)
  401e66:	83 45 e0 01          	addl   $0x1,-0x20(%rbp)
  401e6a:	83 7d e0 63          	cmpl   $0x63,-0x20(%rbp)
  401e6e:	7e f2                	jle    401e62 <_Z11icache_missPv+0x12f>
  401e70:	e9 b1 0c 00 00       	jmpq   402b26 <_Z11icache_missPv+0xdf3>
  401e75:	c7 45 dc 00 00 00 00 	movl   $0x0,-0x24(%rbp)
  401e7c:	eb 08                	jmp    401e86 <_Z11icache_missPv+0x153>
  401e7e:	83 45 f8 01          	addl   $0x1,-0x8(%rbp)
  401e82:	83 45 dc 01          	addl   $0x1,-0x24(%rbp)
  401e86:	83 7d dc 63          	cmpl   $0x63,-0x24(%rbp)
  401e8a:	7e f2                	jle    401e7e <_Z11icache_missPv+0x14b>
  401e8c:	e9 95 0c 00 00       	jmpq   402b26 <_Z11icache_missPv+0xdf3>
  401e91:	c7 45 d8 00 00 00 00 	movl   $0x0,-0x28(%rbp)
  401e98:	eb 08                	jmp    401ea2 <_Z11icache_missPv+0x16f>
  401e9a:	83 45 f8 01          	addl   $0x1,-0x8(%rbp)
  401e9e:	83 45 d8 01          	addl   $0x1,-0x28(%rbp)
  401ea2:	83 7d d8 63          	cmpl   $0x63,-0x28(%rbp)
  401ea6:	7e f2                	jle    401e9a <_Z11icache_missPv+0x167>
  401ea8:	e9 79 0c 00 00       	jmpq   402b26 <_Z11icache_missPv+0xdf3>
  401ead:	c7 45 d4 00 00 00 00 	movl   $0x0,-0x2c(%rbp)
  401eb4:	eb 08                	jmp    401ebe <_Z11icache_missPv+0x18b>
  401eb6:	83 45 f8 01          	addl   $0x1,-0x8(%rbp)
  401eba:	83 45 d4 01          	addl   $0x1,-0x2c(%rbp)
  401ebe:	83 7d d4 63          	cmpl   $0x63,-0x2c(%rbp)
  401ec2:	7e f2                	jle    401eb6 <_Z11icache_missPv+0x183>
  401ec4:	e9 5d 0c 00 00       	jmpq   402b26 <_Z11icache_missPv+0xdf3>
  401ec9:	c7 45 d0 00 00 00 00 	movl   $0x0,-0x30(%rbp)
  401ed0:	eb 08                	jmp    401eda <_Z11icache_missPv+0x1a7>
  401ed2:	83 45 f8 01          	addl   $0x1,-0x8(%rbp)
  401ed6:	83 45 d0 01          	addl   $0x1,-0x30(%rbp)
  401eda:	83 7d d0 63          	cmpl   $0x63,-0x30(%rbp)
  401ede:	7e f2                	jle    401ed2 <_Z11icache_missPv+0x19f>
  401ee0:	e9 41 0c 00 00       	jmpq   402b26 <_Z11icache_missPv+0xdf3>
  401ee5:	c7 45 cc 00 00 00 00 	movl   $0x0,-0x34(%rbp)
  401eec:	eb 08                	jmp    401ef6 <_Z11icache_missPv+0x1c3>
  401eee:	83 45 f8 01          	addl   $0x1,-0x8(%rbp)
  401ef2:	83 45 cc 01          	addl   $0x1,-0x34(%rbp)
  401ef6:	83 7d cc 63          	cmpl   $0x63,-0x34(%rbp)
  401efa:	7e f2                	jle    401eee <_Z11icache_missPv+0x1bb>
  401efc:	e9 25 0c 00 00       	jmpq   402b26 <_Z11icache_missPv+0xdf3>
  401f01:	c7 45 c8 00 00 00 00 	movl   $0x0,-0x38(%rbp)
  401f08:	eb 08                	jmp    401f12 <_Z11icache_missPv+0x1df>
  401f0a:	83 45 f8 01          	addl   $0x1,-0x8(%rbp)
  401f0e:	83 45 c8 01          	addl   $0x1,-0x38(%rbp)
  401f12:	83 7d c8 63          	cmpl   $0x63,-0x38(%rbp)
  401f16:	7e f2                	jle    401f0a <_Z11icache_missPv+0x1d7>
  401f18:	e9 09 0c 00 00       	jmpq   402b26 <_Z11icache_missPv+0xdf3>
  401f1d:	c7 45 c4 00 00 00 00 	movl   $0x0,-0x3c(%rbp)
  401f24:	eb 08                	jmp    401f2e <_Z11icache_missPv+0x1fb>
  401f26:	83 45 f8 01          	addl   $0x1,-0x8(%rbp)
  401f2a:	83 45 c4 01          	addl   $0x1,-0x3c(%rbp)
  401f2e:	83 7d c4 63          	cmpl   $0x63,-0x3c(%rbp)
  401f32:	7e f2                	jle    401f26 <_Z11icache_missPv+0x1f3>
  401f34:	e9 ed 0b 00 00       	jmpq   402b26 <_Z11icache_missPv+0xdf3>
  401f39:	c7 45 c0 00 00 00 00 	movl   $0x0,-0x40(%rbp)
  401f40:	eb 08                	jmp    401f4a <_Z11icache_missPv+0x217>
  401f42:	83 45 f8 01          	addl   $0x1,-0x8(%rbp)
  401f46:	83 45 c0 01          	addl   $0x1,-0x40(%rbp)
  401f4a:	83 7d c0 63          	cmpl   $0x63,-0x40(%rbp)
  401f4e:	7e f2                	jle    401f42 <_Z11icache_missPv+0x20f>
  401f50:	e9 d1 0b 00 00       	jmpq   402b26 <_Z11icache_missPv+0xdf3>
  401f55:	c7 45 bc 00 00 00 00 	movl   $0x0,-0x44(%rbp)
  401f5c:	eb 08                	jmp    401f66 <_Z11icache_missPv+0x233>
  401f5e:	83 45 f8 01          	addl   $0x1,-0x8(%rbp)
  401f62:	83 45 bc 01          	addl   $0x1,-0x44(%rbp)
  401f66:	83 7d bc 63          	cmpl   $0x63,-0x44(%rbp)
  401f6a:	7e f2                	jle    401f5e <_Z11icache_missPv+0x22b>
  401f6c:	e9 b5 0b 00 00       	jmpq   402b26 <_Z11icache_missPv+0xdf3>
  401f71:	c7 45 b8 00 00 00 00 	movl   $0x0,-0x48(%rbp)
  401f78:	eb 08                	jmp    401f82 <_Z11icache_missPv+0x24f>
  401f7a:	83 45 f8 01          	addl   $0x1,-0x8(%rbp)
  401f7e:	83 45 b8 01          	addl   $0x1,-0x48(%rbp)
  401f82:	83 7d b8 63          	cmpl   $0x63,-0x48(%rbp)
  401f86:	7e f2                	jle    401f7a <_Z11icache_missPv+0x247>
  401f88:	e9 99 0b 00 00       	jmpq   402b26 <_Z11icache_missPv+0xdf3>
  401f8d:	c7 45 b4 00 00 00 00 	movl   $0x0,-0x4c(%rbp)
  401f94:	eb 08                	jmp    401f9e <_Z11icache_missPv+0x26b>
  401f96:	83 45 f8 01          	addl   $0x1,-0x8(%rbp)
  401f9a:	83 45 b4 01          	addl   $0x1,-0x4c(%rbp)
  401f9e:	83 7d b4 63          	cmpl   $0x63,-0x4c(%rbp)
  401fa2:	7e f2                	jle    401f96 <_Z11icache_missPv+0x263>
  401fa4:	e9 7d 0b 00 00       	jmpq   402b26 <_Z11icache_missPv+0xdf3>
  401fa9:	c7 45 b0 00 00 00 00 	movl   $0x0,-0x50(%rbp)
  401fb0:	eb 08                	jmp    401fba <_Z11icache_missPv+0x287>
  401fb2:	83 45 f8 01          	addl   $0x1,-0x8(%rbp)
  401fb6:	83 45 b0 01          	addl   $0x1,-0x50(%rbp)
  401fba:	83 7d b0 63          	cmpl   $0x63,-0x50(%rbp)
  401fbe:	7e f2                	jle    401fb2 <_Z11icache_missPv+0x27f>
  401fc0:	e9 61 0b 00 00       	jmpq   402b26 <_Z11icache_missPv+0xdf3>
  401fc5:	c7 45 ac 00 00 00 00 	movl   $0x0,-0x54(%rbp)
  401fcc:	eb 08                	jmp    401fd6 <_Z11icache_missPv+0x2a3>
  401fce:	83 45 f8 01          	addl   $0x1,-0x8(%rbp)
  401fd2:	83 45 ac 01          	addl   $0x1,-0x54(%rbp)
  401fd6:	83 7d ac 63          	cmpl   $0x63,-0x54(%rbp)
  401fda:	7e f2                	jle    401fce <_Z11icache_missPv+0x29b>
  401fdc:	e9 45 0b 00 00       	jmpq   402b26 <_Z11icache_missPv+0xdf3>
  401fe1:	c7 45 a8 00 00 00 00 	movl   $0x0,-0x58(%rbp)
  401fe8:	eb 08                	jmp    401ff2 <_Z11icache_missPv+0x2bf>
  401fea:	83 45 f8 01          	addl   $0x1,-0x8(%rbp)
  401fee:	83 45 a8 01          	addl   $0x1,-0x58(%rbp)
  401ff2:	83 7d a8 63          	cmpl   $0x63,-0x58(%rbp)
  401ff6:	7e f2                	jle    401fea <_Z11icache_missPv+0x2b7>
  401ff8:	e9 29 0b 00 00       	jmpq   402b26 <_Z11icache_missPv+0xdf3>
  401ffd:	c7 45 a4 00 00 00 00 	movl   $0x0,-0x5c(%rbp)
  402004:	eb 08                	jmp    40200e <_Z11icache_missPv+0x2db>
  402006:	83 45 f8 01          	addl   $0x1,-0x8(%rbp)
  40200a:	83 45 a4 01          	addl   $0x1,-0x5c(%rbp)
  40200e:	83 7d a4 63          	cmpl   $0x63,-0x5c(%rbp)
  402012:	7e f2                	jle    402006 <_Z11icache_missPv+0x2d3>
  402014:	e9 0d 0b 00 00       	jmpq   402b26 <_Z11icache_missPv+0xdf3>
  402019:	c7 45 a0 00 00 00 00 	movl   $0x0,-0x60(%rbp)
  402020:	eb 08                	jmp    40202a <_Z11icache_missPv+0x2f7>
  402022:	83 45 f8 01          	addl   $0x1,-0x8(%rbp)
  402026:	83 45 a0 01          	addl   $0x1,-0x60(%rbp)
  40202a:	83 7d a0 63          	cmpl   $0x63,-0x60(%rbp)
  40202e:	7e f2                	jle    402022 <_Z11icache_missPv+0x2ef>
  402030:	e9 f1 0a 00 00       	jmpq   402b26 <_Z11icache_missPv+0xdf3>
  402035:	c7 45 9c 00 00 00 00 	movl   $0x0,-0x64(%rbp)
  40203c:	eb 08                	jmp    402046 <_Z11icache_missPv+0x313>
  40203e:	83 45 f8 01          	addl   $0x1,-0x8(%rbp)
  402042:	83 45 9c 01          	addl   $0x1,-0x64(%rbp)
  402046:	83 7d 9c 63          	cmpl   $0x63,-0x64(%rbp)
  40204a:	7e f2                	jle    40203e <_Z11icache_missPv+0x30b>
  40204c:	e9 d5 0a 00 00       	jmpq   402b26 <_Z11icache_missPv+0xdf3>
  402051:	c7 45 98 00 00 00 00 	movl   $0x0,-0x68(%rbp)
  402058:	eb 08                	jmp    402062 <_Z11icache_missPv+0x32f>
  40205a:	83 45 f8 01          	addl   $0x1,-0x8(%rbp)
  40205e:	83 45 98 01          	addl   $0x1,-0x68(%rbp)
  402062:	83 7d 98 63          	cmpl   $0x63,-0x68(%rbp)
  402066:	7e f2                	jle    40205a <_Z11icache_missPv+0x327>
  402068:	e9 b9 0a 00 00       	jmpq   402b26 <_Z11icache_missPv+0xdf3>
  40206d:	c7 45 94 00 00 00 00 	movl   $0x0,-0x6c(%rbp)
  402074:	eb 08                	jmp    40207e <_Z11icache_missPv+0x34b>
  402076:	83 45 f8 01          	addl   $0x1,-0x8(%rbp)
  40207a:	83 45 94 01          	addl   $0x1,-0x6c(%rbp)
  40207e:	83 7d 94 63          	cmpl   $0x63,-0x6c(%rbp)
  402082:	7e f2                	jle    402076 <_Z11icache_missPv+0x343>
  402084:	e9 9d 0a 00 00       	jmpq   402b26 <_Z11icache_missPv+0xdf3>
  402089:	c7 45 90 00 00 00 00 	movl   $0x0,-0x70(%rbp)
  402090:	eb 08                	jmp    40209a <_Z11icache_missPv+0x367>
  402092:	83 45 f8 01          	addl   $0x1,-0x8(%rbp)
  402096:	83 45 90 01          	addl   $0x1,-0x70(%rbp)
  40209a:	83 7d 90 63          	cmpl   $0x63,-0x70(%rbp)
  40209e:	7e f2                	jle    402092 <_Z11icache_missPv+0x35f>
  4020a0:	e9 81 0a 00 00       	jmpq   402b26 <_Z11icache_missPv+0xdf3>
  4020a5:	c7 45 8c 00 00 00 00 	movl   $0x0,-0x74(%rbp)
  4020ac:	eb 08                	jmp    4020b6 <_Z11icache_missPv+0x383>
  4020ae:	83 45 f8 01          	addl   $0x1,-0x8(%rbp)
  4020b2:	83 45 8c 01          	addl   $0x1,-0x74(%rbp)
  4020b6:	83 7d 8c 63          	cmpl   $0x63,-0x74(%rbp)
  4020ba:	7e f2                	jle    4020ae <_Z11icache_missPv+0x37b>
  4020bc:	e9 65 0a 00 00       	jmpq   402b26 <_Z11icache_missPv+0xdf3>
  4020c1:	c7 45 88 00 00 00 00 	movl   $0x0,-0x78(%rbp)
  4020c8:	eb 08                	jmp    4020d2 <_Z11icache_missPv+0x39f>
  4020ca:	83 45 f8 01          	addl   $0x1,-0x8(%rbp)
  4020ce:	83 45 88 01          	addl   $0x1,-0x78(%rbp)
  4020d2:	83 7d 88 63          	cmpl   $0x63,-0x78(%rbp)
  4020d6:	7e f2                	jle    4020ca <_Z11icache_missPv+0x397>
  4020d8:	e9 49 0a 00 00       	jmpq   402b26 <_Z11icache_missPv+0xdf3>
  4020dd:	c7 45 84 00 00 00 00 	movl   $0x0,-0x7c(%rbp)
  4020e4:	eb 08                	jmp    4020ee <_Z11icache_missPv+0x3bb>
  4020e6:	83 45 f8 01          	addl   $0x1,-0x8(%rbp)
  4020ea:	83 45 84 01          	addl   $0x1,-0x7c(%rbp)
  4020ee:	83 7d 84 63          	cmpl   $0x63,-0x7c(%rbp)
  4020f2:	7e f2                	jle    4020e6 <_Z11icache_missPv+0x3b3>
  4020f4:	e9 2d 0a 00 00       	jmpq   402b26 <_Z11icache_missPv+0xdf3>
  4020f9:	c7 45 80 00 00 00 00 	movl   $0x0,-0x80(%rbp)
  402100:	eb 08                	jmp    40210a <_Z11icache_missPv+0x3d7>
  402102:	83 45 f8 01          	addl   $0x1,-0x8(%rbp)
  402106:	83 45 80 01          	addl   $0x1,-0x80(%rbp)
  40210a:	83 7d 80 63          	cmpl   $0x63,-0x80(%rbp)
  40210e:	7e f2                	jle    402102 <_Z11icache_missPv+0x3cf>
  402110:	e9 11 0a 00 00       	jmpq   402b26 <_Z11icache_missPv+0xdf3>
  402115:	c7 85 7c ff ff ff 00 	movl   $0x0,-0x84(%rbp)
  40211c:	00 00 00 
  40211f:	eb 0b                	jmp    40212c <_Z11icache_missPv+0x3f9>
  402121:	83 45 f8 01          	addl   $0x1,-0x8(%rbp)
  402125:	83 85 7c ff ff ff 01 	addl   $0x1,-0x84(%rbp)
  40212c:	83 bd 7c ff ff ff 63 	cmpl   $0x63,-0x84(%rbp)
  402133:	7e ec                	jle    402121 <_Z11icache_missPv+0x3ee>
  402135:	e9 ec 09 00 00       	jmpq   402b26 <_Z11icache_missPv+0xdf3>
  40213a:	c7 85 78 ff ff ff 00 	movl   $0x0,-0x88(%rbp)
  402141:	00 00 00 
  402144:	eb 0b                	jmp    402151 <_Z11icache_missPv+0x41e>
  402146:	83 45 f8 01          	addl   $0x1,-0x8(%rbp)
  40214a:	83 85 78 ff ff ff 01 	addl   $0x1,-0x88(%rbp)
  402151:	83 bd 78 ff ff ff 63 	cmpl   $0x63,-0x88(%rbp)
  402158:	7e ec                	jle    402146 <_Z11icache_missPv+0x413>
  40215a:	e9 c7 09 00 00       	jmpq   402b26 <_Z11icache_missPv+0xdf3>
  40215f:	c7 85 74 ff ff ff 00 	movl   $0x0,-0x8c(%rbp)
  402166:	00 00 00 
  402169:	eb 0b                	jmp    402176 <_Z11icache_missPv+0x443>
  40216b:	83 45 f8 01          	addl   $0x1,-0x8(%rbp)
  40216f:	83 85 74 ff ff ff 01 	addl   $0x1,-0x8c(%rbp)
  402176:	83 bd 74 ff ff ff 63 	cmpl   $0x63,-0x8c(%rbp)
  40217d:	7e ec                	jle    40216b <_Z11icache_missPv+0x438>
  40217f:	e9 a2 09 00 00       	jmpq   402b26 <_Z11icache_missPv+0xdf3>
  402184:	c7 85 70 ff ff ff 00 	movl   $0x0,-0x90(%rbp)
  40218b:	00 00 00 
  40218e:	eb 0b                	jmp    40219b <_Z11icache_missPv+0x468>
  402190:	83 45 f8 01          	addl   $0x1,-0x8(%rbp)
  402194:	83 85 70 ff ff ff 01 	addl   $0x1,-0x90(%rbp)
  40219b:	83 bd 70 ff ff ff 63 	cmpl   $0x63,-0x90(%rbp)
  4021a2:	7e ec                	jle    402190 <_Z11icache_missPv+0x45d>
  4021a4:	e9 7d 09 00 00       	jmpq   402b26 <_Z11icache_missPv+0xdf3>
  4021a9:	c7 85 6c ff ff ff 00 	movl   $0x0,-0x94(%rbp)
  4021b0:	00 00 00 
  4021b3:	eb 0b                	jmp    4021c0 <_Z11icache_missPv+0x48d>
  4021b5:	83 45 f8 01          	addl   $0x1,-0x8(%rbp)
  4021b9:	83 85 6c ff ff ff 01 	addl   $0x1,-0x94(%rbp)
  4021c0:	83 bd 6c ff ff ff 63 	cmpl   $0x63,-0x94(%rbp)
  4021c7:	7e ec                	jle    4021b5 <_Z11icache_missPv+0x482>
  4021c9:	e9 58 09 00 00       	jmpq   402b26 <_Z11icache_missPv+0xdf3>
  4021ce:	c7 85 68 ff ff ff 00 	movl   $0x0,-0x98(%rbp)
  4021d5:	00 00 00 
  4021d8:	eb 0b                	jmp    4021e5 <_Z11icache_missPv+0x4b2>
  4021da:	83 45 f8 01          	addl   $0x1,-0x8(%rbp)
  4021de:	83 85 68 ff ff ff 01 	addl   $0x1,-0x98(%rbp)
  4021e5:	83 bd 68 ff ff ff 63 	cmpl   $0x63,-0x98(%rbp)
  4021ec:	7e ec                	jle    4021da <_Z11icache_missPv+0x4a7>
  4021ee:	e9 33 09 00 00       	jmpq   402b26 <_Z11icache_missPv+0xdf3>
  4021f3:	c7 85 64 ff ff ff 00 	movl   $0x0,-0x9c(%rbp)
  4021fa:	00 00 00 
  4021fd:	eb 0b                	jmp    40220a <_Z11icache_missPv+0x4d7>
  4021ff:	83 45 f8 01          	addl   $0x1,-0x8(%rbp)
  402203:	83 85 64 ff ff ff 01 	addl   $0x1,-0x9c(%rbp)
  40220a:	83 bd 64 ff ff ff 63 	cmpl   $0x63,-0x9c(%rbp)
  402211:	7e ec                	jle    4021ff <_Z11icache_missPv+0x4cc>
  402213:	e9 0e 09 00 00       	jmpq   402b26 <_Z11icache_missPv+0xdf3>
  402218:	c7 85 60 ff ff ff 00 	movl   $0x0,-0xa0(%rbp)
  40221f:	00 00 00 
  402222:	eb 0b                	jmp    40222f <_Z11icache_missPv+0x4fc>
  402224:	83 45 f8 01          	addl   $0x1,-0x8(%rbp)
  402228:	83 85 60 ff ff ff 01 	addl   $0x1,-0xa0(%rbp)
  40222f:	83 bd 60 ff ff ff 63 	cmpl   $0x63,-0xa0(%rbp)
  402236:	7e ec                	jle    402224 <_Z11icache_missPv+0x4f1>
  402238:	e9 e9 08 00 00       	jmpq   402b26 <_Z11icache_missPv+0xdf3>
  40223d:	c7 85 5c ff ff ff 00 	movl   $0x0,-0xa4(%rbp)
  402244:	00 00 00 
  402247:	eb 0b                	jmp    402254 <_Z11icache_missPv+0x521>
  402249:	83 45 f8 01          	addl   $0x1,-0x8(%rbp)
  40224d:	83 85 5c ff ff ff 01 	addl   $0x1,-0xa4(%rbp)
  402254:	83 bd 5c ff ff ff 63 	cmpl   $0x63,-0xa4(%rbp)
  40225b:	7e ec                	jle    402249 <_Z11icache_missPv+0x516>
  40225d:	e9 c4 08 00 00       	jmpq   402b26 <_Z11icache_missPv+0xdf3>
  402262:	c7 85 58 ff ff ff 00 	movl   $0x0,-0xa8(%rbp)
  402269:	00 00 00 
  40226c:	eb 0b                	jmp    402279 <_Z11icache_missPv+0x546>
  40226e:	83 45 f8 01          	addl   $0x1,-0x8(%rbp)
  402272:	83 85 58 ff ff ff 01 	addl   $0x1,-0xa8(%rbp)
  402279:	83 bd 58 ff ff ff 63 	cmpl   $0x63,-0xa8(%rbp)
  402280:	7e ec                	jle    40226e <_Z11icache_missPv+0x53b>
  402282:	e9 9f 08 00 00       	jmpq   402b26 <_Z11icache_missPv+0xdf3>
  402287:	c7 85 54 ff ff ff 00 	movl   $0x0,-0xac(%rbp)
  40228e:	00 00 00 
  402291:	eb 0b                	jmp    40229e <_Z11icache_missPv+0x56b>
  402293:	83 45 f8 01          	addl   $0x1,-0x8(%rbp)
  402297:	83 85 54 ff ff ff 01 	addl   $0x1,-0xac(%rbp)
  40229e:	83 bd 54 ff ff ff 63 	cmpl   $0x63,-0xac(%rbp)
  4022a5:	7e ec                	jle    402293 <_Z11icache_missPv+0x560>
  4022a7:	e9 7a 08 00 00       	jmpq   402b26 <_Z11icache_missPv+0xdf3>
  4022ac:	c7 85 50 ff ff ff 00 	movl   $0x0,-0xb0(%rbp)
  4022b3:	00 00 00 
  4022b6:	eb 0b                	jmp    4022c3 <_Z11icache_missPv+0x590>
  4022b8:	83 45 f8 01          	addl   $0x1,-0x8(%rbp)
  4022bc:	83 85 50 ff ff ff 01 	addl   $0x1,-0xb0(%rbp)
  4022c3:	83 bd 50 ff ff ff 63 	cmpl   $0x63,-0xb0(%rbp)
  4022ca:	7e ec                	jle    4022b8 <_Z11icache_missPv+0x585>
  4022cc:	e9 55 08 00 00       	jmpq   402b26 <_Z11icache_missPv+0xdf3>
  4022d1:	c7 85 4c ff ff ff 00 	movl   $0x0,-0xb4(%rbp)
  4022d8:	00 00 00 
  4022db:	eb 0b                	jmp    4022e8 <_Z11icache_missPv+0x5b5>
  4022dd:	83 45 f8 01          	addl   $0x1,-0x8(%rbp)
  4022e1:	83 85 4c ff ff ff 01 	addl   $0x1,-0xb4(%rbp)
  4022e8:	83 bd 4c ff ff ff 63 	cmpl   $0x63,-0xb4(%rbp)
  4022ef:	7e ec                	jle    4022dd <_Z11icache_missPv+0x5aa>
  4022f1:	e9 30 08 00 00       	jmpq   402b26 <_Z11icache_missPv+0xdf3>
  4022f6:	c7 85 48 ff ff ff 00 	movl   $0x0,-0xb8(%rbp)
  4022fd:	00 00 00 
  402300:	eb 0b                	jmp    40230d <_Z11icache_missPv+0x5da>
  402302:	83 45 f8 01          	addl   $0x1,-0x8(%rbp)
  402306:	83 85 48 ff ff ff 01 	addl   $0x1,-0xb8(%rbp)
  40230d:	83 bd 48 ff ff ff 63 	cmpl   $0x63,-0xb8(%rbp)
  402314:	7e ec                	jle    402302 <_Z11icache_missPv+0x5cf>
  402316:	e9 0b 08 00 00       	jmpq   402b26 <_Z11icache_missPv+0xdf3>
  40231b:	c7 85 44 ff ff ff 00 	movl   $0x0,-0xbc(%rbp)
  402322:	00 00 00 
  402325:	eb 0b                	jmp    402332 <_Z11icache_missPv+0x5ff>
  402327:	83 45 f8 01          	addl   $0x1,-0x8(%rbp)
  40232b:	83 85 44 ff ff ff 01 	addl   $0x1,-0xbc(%rbp)
  402332:	83 bd 44 ff ff ff 63 	cmpl   $0x63,-0xbc(%rbp)
  402339:	7e ec                	jle    402327 <_Z11icache_missPv+0x5f4>
  40233b:	e9 e6 07 00 00       	jmpq   402b26 <_Z11icache_missPv+0xdf3>
  402340:	c7 85 40 ff ff ff 00 	movl   $0x0,-0xc0(%rbp)
  402347:	00 00 00 
  40234a:	eb 0b                	jmp    402357 <_Z11icache_missPv+0x624>
  40234c:	83 45 f8 01          	addl   $0x1,-0x8(%rbp)
  402350:	83 85 40 ff ff ff 01 	addl   $0x1,-0xc0(%rbp)
  402357:	83 bd 40 ff ff ff 63 	cmpl   $0x63,-0xc0(%rbp)
  40235e:	7e ec                	jle    40234c <_Z11icache_missPv+0x619>
  402360:	e9 c1 07 00 00       	jmpq   402b26 <_Z11icache_missPv+0xdf3>
  402365:	c7 85 3c ff ff ff 00 	movl   $0x0,-0xc4(%rbp)
  40236c:	00 00 00 
  40236f:	eb 0b                	jmp    40237c <_Z11icache_missPv+0x649>
  402371:	83 45 f8 01          	addl   $0x1,-0x8(%rbp)
  402375:	83 85 3c ff ff ff 01 	addl   $0x1,-0xc4(%rbp)
  40237c:	83 bd 3c ff ff ff 63 	cmpl   $0x63,-0xc4(%rbp)
  402383:	7e ec                	jle    402371 <_Z11icache_missPv+0x63e>
  402385:	e9 9c 07 00 00       	jmpq   402b26 <_Z11icache_missPv+0xdf3>
  40238a:	c7 85 38 ff ff ff 00 	movl   $0x0,-0xc8(%rbp)
  402391:	00 00 00 
  402394:	eb 0b                	jmp    4023a1 <_Z11icache_missPv+0x66e>
  402396:	83 45 f8 01          	addl   $0x1,-0x8(%rbp)
  40239a:	83 85 38 ff ff ff 01 	addl   $0x1,-0xc8(%rbp)
  4023a1:	83 bd 38 ff ff ff 63 	cmpl   $0x63,-0xc8(%rbp)
  4023a8:	7e ec                	jle    402396 <_Z11icache_missPv+0x663>
  4023aa:	e9 77 07 00 00       	jmpq   402b26 <_Z11icache_missPv+0xdf3>
  4023af:	c7 85 34 ff ff ff 00 	movl   $0x0,-0xcc(%rbp)
  4023b6:	00 00 00 
  4023b9:	eb 0b                	jmp    4023c6 <_Z11icache_missPv+0x693>
  4023bb:	83 45 f8 01          	addl   $0x1,-0x8(%rbp)
  4023bf:	83 85 34 ff ff ff 01 	addl   $0x1,-0xcc(%rbp)
  4023c6:	83 bd 34 ff ff ff 63 	cmpl   $0x63,-0xcc(%rbp)
  4023cd:	7e ec                	jle    4023bb <_Z11icache_missPv+0x688>
  4023cf:	e9 52 07 00 00       	jmpq   402b26 <_Z11icache_missPv+0xdf3>
  4023d4:	c7 85 30 ff ff ff 00 	movl   $0x0,-0xd0(%rbp)
  4023db:	00 00 00 
  4023de:	eb 0b                	jmp    4023eb <_Z11icache_missPv+0x6b8>
  4023e0:	83 45 f8 01          	addl   $0x1,-0x8(%rbp)
  4023e4:	83 85 30 ff ff ff 01 	addl   $0x1,-0xd0(%rbp)
  4023eb:	83 bd 30 ff ff ff 63 	cmpl   $0x63,-0xd0(%rbp)
  4023f2:	7e ec                	jle    4023e0 <_Z11icache_missPv+0x6ad>
  4023f4:	e9 2d 07 00 00       	jmpq   402b26 <_Z11icache_missPv+0xdf3>
  4023f9:	c7 85 2c ff ff ff 00 	movl   $0x0,-0xd4(%rbp)
  402400:	00 00 00 
  402403:	eb 0b                	jmp    402410 <_Z11icache_missPv+0x6dd>
  402405:	83 45 f8 01          	addl   $0x1,-0x8(%rbp)
  402409:	83 85 2c ff ff ff 01 	addl   $0x1,-0xd4(%rbp)
  402410:	83 bd 2c ff ff ff 63 	cmpl   $0x63,-0xd4(%rbp)
  402417:	7e ec                	jle    402405 <_Z11icache_missPv+0x6d2>
  402419:	e9 08 07 00 00       	jmpq   402b26 <_Z11icache_missPv+0xdf3>
  40241e:	c7 85 28 ff ff ff 00 	movl   $0x0,-0xd8(%rbp)
  402425:	00 00 00 
  402428:	eb 0b                	jmp    402435 <_Z11icache_missPv+0x702>
  40242a:	83 45 f8 01          	addl   $0x1,-0x8(%rbp)
  40242e:	83 85 28 ff ff ff 01 	addl   $0x1,-0xd8(%rbp)
  402435:	83 bd 28 ff ff ff 63 	cmpl   $0x63,-0xd8(%rbp)
  40243c:	7e ec                	jle    40242a <_Z11icache_missPv+0x6f7>
  40243e:	e9 e3 06 00 00       	jmpq   402b26 <_Z11icache_missPv+0xdf3>
  402443:	c7 85 24 ff ff ff 00 	movl   $0x0,-0xdc(%rbp)
  40244a:	00 00 00 
  40244d:	eb 0b                	jmp    40245a <_Z11icache_missPv+0x727>
  40244f:	83 45 f8 01          	addl   $0x1,-0x8(%rbp)
  402453:	83 85 24 ff ff ff 01 	addl   $0x1,-0xdc(%rbp)
  40245a:	83 bd 24 ff ff ff 63 	cmpl   $0x63,-0xdc(%rbp)
  402461:	7e ec                	jle    40244f <_Z11icache_missPv+0x71c>
  402463:	e9 be 06 00 00       	jmpq   402b26 <_Z11icache_missPv+0xdf3>
  402468:	c7 85 20 ff ff ff 00 	movl   $0x0,-0xe0(%rbp)
  40246f:	00 00 00 
  402472:	eb 0b                	jmp    40247f <_Z11icache_missPv+0x74c>
  402474:	83 45 f8 01          	addl   $0x1,-0x8(%rbp)
  402478:	83 85 20 ff ff ff 01 	addl   $0x1,-0xe0(%rbp)
  40247f:	83 bd 20 ff ff ff 63 	cmpl   $0x63,-0xe0(%rbp)
  402486:	7e ec                	jle    402474 <_Z11icache_missPv+0x741>
  402488:	e9 99 06 00 00       	jmpq   402b26 <_Z11icache_missPv+0xdf3>
  40248d:	c7 85 1c ff ff ff 00 	movl   $0x0,-0xe4(%rbp)
  402494:	00 00 00 
  402497:	eb 0b                	jmp    4024a4 <_Z11icache_missPv+0x771>
  402499:	83 45 f8 01          	addl   $0x1,-0x8(%rbp)
  40249d:	83 85 1c ff ff ff 01 	addl   $0x1,-0xe4(%rbp)
  4024a4:	83 bd 1c ff ff ff 63 	cmpl   $0x63,-0xe4(%rbp)
  4024ab:	7e ec                	jle    402499 <_Z11icache_missPv+0x766>
  4024ad:	e9 74 06 00 00       	jmpq   402b26 <_Z11icache_missPv+0xdf3>
  4024b2:	c7 85 18 ff ff ff 00 	movl   $0x0,-0xe8(%rbp)
  4024b9:	00 00 00 
  4024bc:	eb 0b                	jmp    4024c9 <_Z11icache_missPv+0x796>
  4024be:	83 45 f8 01          	addl   $0x1,-0x8(%rbp)
  4024c2:	83 85 18 ff ff ff 01 	addl   $0x1,-0xe8(%rbp)
  4024c9:	83 bd 18 ff ff ff 63 	cmpl   $0x63,-0xe8(%rbp)
  4024d0:	7e ec                	jle    4024be <_Z11icache_missPv+0x78b>
  4024d2:	e9 4f 06 00 00       	jmpq   402b26 <_Z11icache_missPv+0xdf3>
  4024d7:	c7 85 14 ff ff ff 00 	movl   $0x0,-0xec(%rbp)
  4024de:	00 00 00 
  4024e1:	eb 0b                	jmp    4024ee <_Z11icache_missPv+0x7bb>
  4024e3:	83 45 f8 01          	addl   $0x1,-0x8(%rbp)
  4024e7:	83 85 14 ff ff ff 01 	addl   $0x1,-0xec(%rbp)
  4024ee:	83 bd 14 ff ff ff 63 	cmpl   $0x63,-0xec(%rbp)
  4024f5:	7e ec                	jle    4024e3 <_Z11icache_missPv+0x7b0>
  4024f7:	e9 2a 06 00 00       	jmpq   402b26 <_Z11icache_missPv+0xdf3>
  4024fc:	c7 85 10 ff ff ff 00 	movl   $0x0,-0xf0(%rbp)
  402503:	00 00 00 
  402506:	eb 0b                	jmp    402513 <_Z11icache_missPv+0x7e0>
  402508:	83 45 f8 01          	addl   $0x1,-0x8(%rbp)
  40250c:	83 85 10 ff ff ff 01 	addl   $0x1,-0xf0(%rbp)
  402513:	83 bd 10 ff ff ff 63 	cmpl   $0x63,-0xf0(%rbp)
  40251a:	7e ec                	jle    402508 <_Z11icache_missPv+0x7d5>
  40251c:	e9 05 06 00 00       	jmpq   402b26 <_Z11icache_missPv+0xdf3>
  402521:	c7 85 0c ff ff ff 00 	movl   $0x0,-0xf4(%rbp)
  402528:	00 00 00 
  40252b:	eb 0b                	jmp    402538 <_Z11icache_missPv+0x805>
  40252d:	83 45 f8 01          	addl   $0x1,-0x8(%rbp)
  402531:	83 85 0c ff ff ff 01 	addl   $0x1,-0xf4(%rbp)
  402538:	83 bd 0c ff ff ff 63 	cmpl   $0x63,-0xf4(%rbp)
  40253f:	7e ec                	jle    40252d <_Z11icache_missPv+0x7fa>
  402541:	e9 e0 05 00 00       	jmpq   402b26 <_Z11icache_missPv+0xdf3>
  402546:	c7 85 08 ff ff ff 00 	movl   $0x0,-0xf8(%rbp)
  40254d:	00 00 00 
  402550:	eb 0b                	jmp    40255d <_Z11icache_missPv+0x82a>
  402552:	83 45 f8 01          	addl   $0x1,-0x8(%rbp)
  402556:	83 85 08 ff ff ff 01 	addl   $0x1,-0xf8(%rbp)
  40255d:	83 bd 08 ff ff ff 63 	cmpl   $0x63,-0xf8(%rbp)
  402564:	7e ec                	jle    402552 <_Z11icache_missPv+0x81f>
  402566:	e9 bb 05 00 00       	jmpq   402b26 <_Z11icache_missPv+0xdf3>
  40256b:	c7 85 04 ff ff ff 00 	movl   $0x0,-0xfc(%rbp)
  402572:	00 00 00 
  402575:	eb 0b                	jmp    402582 <_Z11icache_missPv+0x84f>
  402577:	83 45 f8 01          	addl   $0x1,-0x8(%rbp)
  40257b:	83 85 04 ff ff ff 01 	addl   $0x1,-0xfc(%rbp)
  402582:	83 bd 04 ff ff ff 63 	cmpl   $0x63,-0xfc(%rbp)
  402589:	7e ec                	jle    402577 <_Z11icache_missPv+0x844>
  40258b:	e9 96 05 00 00       	jmpq   402b26 <_Z11icache_missPv+0xdf3>
  402590:	c7 85 00 ff ff ff 00 	movl   $0x0,-0x100(%rbp)
  402597:	00 00 00 
  40259a:	eb 0b                	jmp    4025a7 <_Z11icache_missPv+0x874>
  40259c:	83 45 f8 01          	addl   $0x1,-0x8(%rbp)
  4025a0:	83 85 00 ff ff ff 01 	addl   $0x1,-0x100(%rbp)
  4025a7:	83 bd 00 ff ff ff 63 	cmpl   $0x63,-0x100(%rbp)
  4025ae:	7e ec                	jle    40259c <_Z11icache_missPv+0x869>
  4025b0:	e9 71 05 00 00       	jmpq   402b26 <_Z11icache_missPv+0xdf3>
  4025b5:	c7 85 fc fe ff ff 00 	movl   $0x0,-0x104(%rbp)
  4025bc:	00 00 00 
  4025bf:	eb 0b                	jmp    4025cc <_Z11icache_missPv+0x899>
  4025c1:	83 45 f8 01          	addl   $0x1,-0x8(%rbp)
  4025c5:	83 85 fc fe ff ff 01 	addl   $0x1,-0x104(%rbp)
  4025cc:	83 bd fc fe ff ff 63 	cmpl   $0x63,-0x104(%rbp)
  4025d3:	7e ec                	jle    4025c1 <_Z11icache_missPv+0x88e>
  4025d5:	e9 4c 05 00 00       	jmpq   402b26 <_Z11icache_missPv+0xdf3>
  4025da:	c7 85 f8 fe ff ff 00 	movl   $0x0,-0x108(%rbp)
  4025e1:	00 00 00 
  4025e4:	eb 0b                	jmp    4025f1 <_Z11icache_missPv+0x8be>
  4025e6:	83 45 f8 01          	addl   $0x1,-0x8(%rbp)
  4025ea:	83 85 f8 fe ff ff 01 	addl   $0x1,-0x108(%rbp)
  4025f1:	83 bd f8 fe ff ff 63 	cmpl   $0x63,-0x108(%rbp)
  4025f8:	7e ec                	jle    4025e6 <_Z11icache_missPv+0x8b3>
  4025fa:	e9 27 05 00 00       	jmpq   402b26 <_Z11icache_missPv+0xdf3>
  4025ff:	c7 85 f4 fe ff ff 00 	movl   $0x0,-0x10c(%rbp)
  402606:	00 00 00 
  402609:	eb 0b                	jmp    402616 <_Z11icache_missPv+0x8e3>
  40260b:	83 45 f8 01          	addl   $0x1,-0x8(%rbp)
  40260f:	83 85 f4 fe ff ff 01 	addl   $0x1,-0x10c(%rbp)
  402616:	83 bd f4 fe ff ff 63 	cmpl   $0x63,-0x10c(%rbp)
  40261d:	7e ec                	jle    40260b <_Z11icache_missPv+0x8d8>
  40261f:	e9 02 05 00 00       	jmpq   402b26 <_Z11icache_missPv+0xdf3>
  402624:	c7 85 f0 fe ff ff 00 	movl   $0x0,-0x110(%rbp)
  40262b:	00 00 00 
  40262e:	eb 0b                	jmp    40263b <_Z11icache_missPv+0x908>
  402630:	83 45 f8 01          	addl   $0x1,-0x8(%rbp)
  402634:	83 85 f0 fe ff ff 01 	addl   $0x1,-0x110(%rbp)
  40263b:	83 bd f0 fe ff ff 63 	cmpl   $0x63,-0x110(%rbp)
  402642:	7e ec                	jle    402630 <_Z11icache_missPv+0x8fd>
  402644:	e9 dd 04 00 00       	jmpq   402b26 <_Z11icache_missPv+0xdf3>
  402649:	c7 85 ec fe ff ff 00 	movl   $0x0,-0x114(%rbp)
  402650:	00 00 00 
  402653:	eb 0b                	jmp    402660 <_Z11icache_missPv+0x92d>
  402655:	83 45 f8 01          	addl   $0x1,-0x8(%rbp)
  402659:	83 85 ec fe ff ff 01 	addl   $0x1,-0x114(%rbp)
  402660:	83 bd ec fe ff ff 63 	cmpl   $0x63,-0x114(%rbp)
  402667:	7e ec                	jle    402655 <_Z11icache_missPv+0x922>
  402669:	e9 b8 04 00 00       	jmpq   402b26 <_Z11icache_missPv+0xdf3>
  40266e:	c7 85 e8 fe ff ff 00 	movl   $0x0,-0x118(%rbp)
  402675:	00 00 00 
  402678:	eb 0b                	jmp    402685 <_Z11icache_missPv+0x952>
  40267a:	83 45 f8 01          	addl   $0x1,-0x8(%rbp)
  40267e:	83 85 e8 fe ff ff 01 	addl   $0x1,-0x118(%rbp)
  402685:	83 bd e8 fe ff ff 63 	cmpl   $0x63,-0x118(%rbp)
  40268c:	7e ec                	jle    40267a <_Z11icache_missPv+0x947>
  40268e:	e9 93 04 00 00       	jmpq   402b26 <_Z11icache_missPv+0xdf3>
  402693:	c7 85 e4 fe ff ff 00 	movl   $0x0,-0x11c(%rbp)
  40269a:	00 00 00 
  40269d:	eb 0b                	jmp    4026aa <_Z11icache_missPv+0x977>
  40269f:	83 45 f8 01          	addl   $0x1,-0x8(%rbp)
  4026a3:	83 85 e4 fe ff ff 01 	addl   $0x1,-0x11c(%rbp)
  4026aa:	83 bd e4 fe ff ff 63 	cmpl   $0x63,-0x11c(%rbp)
  4026b1:	7e ec                	jle    40269f <_Z11icache_missPv+0x96c>
  4026b3:	e9 6e 04 00 00       	jmpq   402b26 <_Z11icache_missPv+0xdf3>
  4026b8:	c7 85 e0 fe ff ff 00 	movl   $0x0,-0x120(%rbp)
  4026bf:	00 00 00 
  4026c2:	eb 0b                	jmp    4026cf <_Z11icache_missPv+0x99c>
  4026c4:	83 45 f8 01          	addl   $0x1,-0x8(%rbp)
  4026c8:	83 85 e0 fe ff ff 01 	addl   $0x1,-0x120(%rbp)
  4026cf:	83 bd e0 fe ff ff 63 	cmpl   $0x63,-0x120(%rbp)
  4026d6:	7e ec                	jle    4026c4 <_Z11icache_missPv+0x991>
  4026d8:	e9 49 04 00 00       	jmpq   402b26 <_Z11icache_missPv+0xdf3>
  4026dd:	c7 85 dc fe ff ff 00 	movl   $0x0,-0x124(%rbp)
  4026e4:	00 00 00 
  4026e7:	eb 0b                	jmp    4026f4 <_Z11icache_missPv+0x9c1>
  4026e9:	83 45 f8 01          	addl   $0x1,-0x8(%rbp)
  4026ed:	83 85 dc fe ff ff 01 	addl   $0x1,-0x124(%rbp)
  4026f4:	83 bd dc fe ff ff 63 	cmpl   $0x63,-0x124(%rbp)
  4026fb:	7e ec                	jle    4026e9 <_Z11icache_missPv+0x9b6>
  4026fd:	e9 24 04 00 00       	jmpq   402b26 <_Z11icache_missPv+0xdf3>
  402702:	c7 85 d8 fe ff ff 00 	movl   $0x0,-0x128(%rbp)
  402709:	00 00 00 
  40270c:	eb 0b                	jmp    402719 <_Z11icache_missPv+0x9e6>
  40270e:	83 45 f8 01          	addl   $0x1,-0x8(%rbp)
  402712:	83 85 d8 fe ff ff 01 	addl   $0x1,-0x128(%rbp)
  402719:	83 bd d8 fe ff ff 63 	cmpl   $0x63,-0x128(%rbp)
  402720:	7e ec                	jle    40270e <_Z11icache_missPv+0x9db>
  402722:	e9 ff 03 00 00       	jmpq   402b26 <_Z11icache_missPv+0xdf3>
  402727:	c7 85 d4 fe ff ff 00 	movl   $0x0,-0x12c(%rbp)
  40272e:	00 00 00 
  402731:	eb 0b                	jmp    40273e <_Z11icache_missPv+0xa0b>
  402733:	83 45 f8 01          	addl   $0x1,-0x8(%rbp)
  402737:	83 85 d4 fe ff ff 01 	addl   $0x1,-0x12c(%rbp)
  40273e:	83 bd d4 fe ff ff 63 	cmpl   $0x63,-0x12c(%rbp)
  402745:	7e ec                	jle    402733 <_Z11icache_missPv+0xa00>
  402747:	e9 da 03 00 00       	jmpq   402b26 <_Z11icache_missPv+0xdf3>
  40274c:	c7 85 d0 fe ff ff 00 	movl   $0x0,-0x130(%rbp)
  402753:	00 00 00 
  402756:	eb 0b                	jmp    402763 <_Z11icache_missPv+0xa30>
  402758:	83 45 f8 01          	addl   $0x1,-0x8(%rbp)
  40275c:	83 85 d0 fe ff ff 01 	addl   $0x1,-0x130(%rbp)
  402763:	83 bd d0 fe ff ff 63 	cmpl   $0x63,-0x130(%rbp)
  40276a:	7e ec                	jle    402758 <_Z11icache_missPv+0xa25>
  40276c:	e9 b5 03 00 00       	jmpq   402b26 <_Z11icache_missPv+0xdf3>
  402771:	c7 85 cc fe ff ff 00 	movl   $0x0,-0x134(%rbp)
  402778:	00 00 00 
  40277b:	eb 0b                	jmp    402788 <_Z11icache_missPv+0xa55>
  40277d:	83 45 f8 01          	addl   $0x1,-0x8(%rbp)
  402781:	83 85 cc fe ff ff 01 	addl   $0x1,-0x134(%rbp)
  402788:	83 bd cc fe ff ff 63 	cmpl   $0x63,-0x134(%rbp)
  40278f:	7e ec                	jle    40277d <_Z11icache_missPv+0xa4a>
  402791:	e9 90 03 00 00       	jmpq   402b26 <_Z11icache_missPv+0xdf3>
  402796:	c7 85 c8 fe ff ff 00 	movl   $0x0,-0x138(%rbp)
  40279d:	00 00 00 
  4027a0:	eb 0b                	jmp    4027ad <_Z11icache_missPv+0xa7a>
  4027a2:	83 45 f8 01          	addl   $0x1,-0x8(%rbp)
  4027a6:	83 85 c8 fe ff ff 01 	addl   $0x1,-0x138(%rbp)
  4027ad:	83 bd c8 fe ff ff 63 	cmpl   $0x63,-0x138(%rbp)
  4027b4:	7e ec                	jle    4027a2 <_Z11icache_missPv+0xa6f>
  4027b6:	e9 6b 03 00 00       	jmpq   402b26 <_Z11icache_missPv+0xdf3>
  4027bb:	c7 85 c4 fe ff ff 00 	movl   $0x0,-0x13c(%rbp)
  4027c2:	00 00 00 
  4027c5:	eb 0b                	jmp    4027d2 <_Z11icache_missPv+0xa9f>
  4027c7:	83 45 f8 01          	addl   $0x1,-0x8(%rbp)
  4027cb:	83 85 c4 fe ff ff 01 	addl   $0x1,-0x13c(%rbp)
  4027d2:	83 bd c4 fe ff ff 63 	cmpl   $0x63,-0x13c(%rbp)
  4027d9:	7e ec                	jle    4027c7 <_Z11icache_missPv+0xa94>
  4027db:	e9 46 03 00 00       	jmpq   402b26 <_Z11icache_missPv+0xdf3>
  4027e0:	c7 85 c0 fe ff ff 00 	movl   $0x0,-0x140(%rbp)
  4027e7:	00 00 00 
  4027ea:	eb 0b                	jmp    4027f7 <_Z11icache_missPv+0xac4>
  4027ec:	83 45 f8 01          	addl   $0x1,-0x8(%rbp)
  4027f0:	83 85 c0 fe ff ff 01 	addl   $0x1,-0x140(%rbp)
  4027f7:	83 bd c0 fe ff ff 63 	cmpl   $0x63,-0x140(%rbp)
  4027fe:	7e ec                	jle    4027ec <_Z11icache_missPv+0xab9>
  402800:	e9 21 03 00 00       	jmpq   402b26 <_Z11icache_missPv+0xdf3>
  402805:	c7 85 bc fe ff ff 00 	movl   $0x0,-0x144(%rbp)
  40280c:	00 00 00 
  40280f:	eb 0b                	jmp    40281c <_Z11icache_missPv+0xae9>
  402811:	83 45 f8 01          	addl   $0x1,-0x8(%rbp)
  402815:	83 85 bc fe ff ff 01 	addl   $0x1,-0x144(%rbp)
  40281c:	83 bd bc fe ff ff 63 	cmpl   $0x63,-0x144(%rbp)
  402823:	7e ec                	jle    402811 <_Z11icache_missPv+0xade>
  402825:	e9 fc 02 00 00       	jmpq   402b26 <_Z11icache_missPv+0xdf3>
  40282a:	c7 85 b8 fe ff ff 00 	movl   $0x0,-0x148(%rbp)
  402831:	00 00 00 
  402834:	eb 0b                	jmp    402841 <_Z11icache_missPv+0xb0e>
  402836:	83 45 f8 01          	addl   $0x1,-0x8(%rbp)
  40283a:	83 85 b8 fe ff ff 01 	addl   $0x1,-0x148(%rbp)
  402841:	83 bd b8 fe ff ff 63 	cmpl   $0x63,-0x148(%rbp)
  402848:	7e ec                	jle    402836 <_Z11icache_missPv+0xb03>
  40284a:	e9 d7 02 00 00       	jmpq   402b26 <_Z11icache_missPv+0xdf3>
  40284f:	c7 85 b4 fe ff ff 00 	movl   $0x0,-0x14c(%rbp)
  402856:	00 00 00 
  402859:	eb 0b                	jmp    402866 <_Z11icache_missPv+0xb33>
  40285b:	83 45 f8 01          	addl   $0x1,-0x8(%rbp)
  40285f:	83 85 b4 fe ff ff 01 	addl   $0x1,-0x14c(%rbp)
  402866:	83 bd b4 fe ff ff 63 	cmpl   $0x63,-0x14c(%rbp)
  40286d:	7e ec                	jle    40285b <_Z11icache_missPv+0xb28>
  40286f:	e9 b2 02 00 00       	jmpq   402b26 <_Z11icache_missPv+0xdf3>
  402874:	c7 85 b0 fe ff ff 00 	movl   $0x0,-0x150(%rbp)
  40287b:	00 00 00 
  40287e:	eb 0b                	jmp    40288b <_Z11icache_missPv+0xb58>
  402880:	83 45 f8 01          	addl   $0x1,-0x8(%rbp)
  402884:	83 85 b0 fe ff ff 01 	addl   $0x1,-0x150(%rbp)
  40288b:	83 bd b0 fe ff ff 63 	cmpl   $0x63,-0x150(%rbp)
  402892:	7e ec                	jle    402880 <_Z11icache_missPv+0xb4d>
  402894:	e9 8d 02 00 00       	jmpq   402b26 <_Z11icache_missPv+0xdf3>
  402899:	c7 85 ac fe ff ff 00 	movl   $0x0,-0x154(%rbp)
  4028a0:	00 00 00 
  4028a3:	eb 0b                	jmp    4028b0 <_Z11icache_missPv+0xb7d>
  4028a5:	83 45 f8 01          	addl   $0x1,-0x8(%rbp)
  4028a9:	83 85 ac fe ff ff 01 	addl   $0x1,-0x154(%rbp)
  4028b0:	83 bd ac fe ff ff 63 	cmpl   $0x63,-0x154(%rbp)
  4028b7:	7e ec                	jle    4028a5 <_Z11icache_missPv+0xb72>
  4028b9:	e9 68 02 00 00       	jmpq   402b26 <_Z11icache_missPv+0xdf3>
  4028be:	c7 85 a8 fe ff ff 00 	movl   $0x0,-0x158(%rbp)
  4028c5:	00 00 00 
  4028c8:	eb 0b                	jmp    4028d5 <_Z11icache_missPv+0xba2>
  4028ca:	83 45 f8 01          	addl   $0x1,-0x8(%rbp)
  4028ce:	83 85 a8 fe ff ff 01 	addl   $0x1,-0x158(%rbp)
  4028d5:	83 bd a8 fe ff ff 63 	cmpl   $0x63,-0x158(%rbp)
  4028dc:	7e ec                	jle    4028ca <_Z11icache_missPv+0xb97>
  4028de:	e9 43 02 00 00       	jmpq   402b26 <_Z11icache_missPv+0xdf3>
  4028e3:	c7 85 a4 fe ff ff 00 	movl   $0x0,-0x15c(%rbp)
  4028ea:	00 00 00 
  4028ed:	eb 0b                	jmp    4028fa <_Z11icache_missPv+0xbc7>
  4028ef:	83 45 f8 01          	addl   $0x1,-0x8(%rbp)
  4028f3:	83 85 a4 fe ff ff 01 	addl   $0x1,-0x15c(%rbp)
  4028fa:	83 bd a4 fe ff ff 63 	cmpl   $0x63,-0x15c(%rbp)
  402901:	7e ec                	jle    4028ef <_Z11icache_missPv+0xbbc>
  402903:	e9 1e 02 00 00       	jmpq   402b26 <_Z11icache_missPv+0xdf3>
  402908:	c7 85 a0 fe ff ff 00 	movl   $0x0,-0x160(%rbp)
  40290f:	00 00 00 
  402912:	eb 0b                	jmp    40291f <_Z11icache_missPv+0xbec>
  402914:	83 45 f8 01          	addl   $0x1,-0x8(%rbp)
  402918:	83 85 a0 fe ff ff 01 	addl   $0x1,-0x160(%rbp)
  40291f:	83 bd a0 fe ff ff 63 	cmpl   $0x63,-0x160(%rbp)
  402926:	7e ec                	jle    402914 <_Z11icache_missPv+0xbe1>
  402928:	e9 f9 01 00 00       	jmpq   402b26 <_Z11icache_missPv+0xdf3>
  40292d:	c7 85 9c fe ff ff 00 	movl   $0x0,-0x164(%rbp)
  402934:	00 00 00 
  402937:	eb 0b                	jmp    402944 <_Z11icache_missPv+0xc11>
  402939:	83 45 f8 01          	addl   $0x1,-0x8(%rbp)
  40293d:	83 85 9c fe ff ff 01 	addl   $0x1,-0x164(%rbp)
  402944:	83 bd 9c fe ff ff 63 	cmpl   $0x63,-0x164(%rbp)
  40294b:	7e ec                	jle    402939 <_Z11icache_missPv+0xc06>
  40294d:	e9 d4 01 00 00       	jmpq   402b26 <_Z11icache_missPv+0xdf3>
  402952:	c7 85 98 fe ff ff 00 	movl   $0x0,-0x168(%rbp)
  402959:	00 00 00 
  40295c:	eb 0b                	jmp    402969 <_Z11icache_missPv+0xc36>
  40295e:	83 45 f8 01          	addl   $0x1,-0x8(%rbp)
  402962:	83 85 98 fe ff ff 01 	addl   $0x1,-0x168(%rbp)
  402969:	83 bd 98 fe ff ff 63 	cmpl   $0x63,-0x168(%rbp)
  402970:	7e ec                	jle    40295e <_Z11icache_missPv+0xc2b>
  402972:	e9 af 01 00 00       	jmpq   402b26 <_Z11icache_missPv+0xdf3>
  402977:	c7 85 94 fe ff ff 00 	movl   $0x0,-0x16c(%rbp)
  40297e:	00 00 00 
  402981:	eb 0b                	jmp    40298e <_Z11icache_missPv+0xc5b>
  402983:	83 45 f8 01          	addl   $0x1,-0x8(%rbp)
  402987:	83 85 94 fe ff ff 01 	addl   $0x1,-0x16c(%rbp)
  40298e:	83 bd 94 fe ff ff 63 	cmpl   $0x63,-0x16c(%rbp)
  402995:	7e ec                	jle    402983 <_Z11icache_missPv+0xc50>
  402997:	e9 8a 01 00 00       	jmpq   402b26 <_Z11icache_missPv+0xdf3>
  40299c:	c7 85 90 fe ff ff 00 	movl   $0x0,-0x170(%rbp)
  4029a3:	00 00 00 
  4029a6:	eb 0b                	jmp    4029b3 <_Z11icache_missPv+0xc80>
  4029a8:	83 45 f8 01          	addl   $0x1,-0x8(%rbp)
  4029ac:	83 85 90 fe ff ff 01 	addl   $0x1,-0x170(%rbp)
  4029b3:	83 bd 90 fe ff ff 63 	cmpl   $0x63,-0x170(%rbp)
  4029ba:	7e ec                	jle    4029a8 <_Z11icache_missPv+0xc75>
  4029bc:	e9 65 01 00 00       	jmpq   402b26 <_Z11icache_missPv+0xdf3>
  4029c1:	c7 85 8c fe ff ff 00 	movl   $0x0,-0x174(%rbp)
  4029c8:	00 00 00 
  4029cb:	eb 0b                	jmp    4029d8 <_Z11icache_missPv+0xca5>
  4029cd:	83 45 f8 01          	addl   $0x1,-0x8(%rbp)
  4029d1:	83 85 8c fe ff ff 01 	addl   $0x1,-0x174(%rbp)
  4029d8:	83 bd 8c fe ff ff 63 	cmpl   $0x63,-0x174(%rbp)
  4029df:	7e ec                	jle    4029cd <_Z11icache_missPv+0xc9a>
  4029e1:	e9 40 01 00 00       	jmpq   402b26 <_Z11icache_missPv+0xdf3>
  4029e6:	c7 85 88 fe ff ff 00 	movl   $0x0,-0x178(%rbp)
  4029ed:	00 00 00 
  4029f0:	eb 0b                	jmp    4029fd <_Z11icache_missPv+0xcca>
  4029f2:	83 45 f8 01          	addl   $0x1,-0x8(%rbp)
  4029f6:	83 85 88 fe ff ff 01 	addl   $0x1,-0x178(%rbp)
  4029fd:	83 bd 88 fe ff ff 63 	cmpl   $0x63,-0x178(%rbp)
  402a04:	7e ec                	jle    4029f2 <_Z11icache_missPv+0xcbf>
  402a06:	e9 1b 01 00 00       	jmpq   402b26 <_Z11icache_missPv+0xdf3>
  402a0b:	c7 85 84 fe ff ff 00 	movl   $0x0,-0x17c(%rbp)
  402a12:	00 00 00 
  402a15:	eb 0b                	jmp    402a22 <_Z11icache_missPv+0xcef>
  402a17:	83 45 f8 01          	addl   $0x1,-0x8(%rbp)
  402a1b:	83 85 84 fe ff ff 01 	addl   $0x1,-0x17c(%rbp)
  402a22:	83 bd 84 fe ff ff 63 	cmpl   $0x63,-0x17c(%rbp)
  402a29:	7e ec                	jle    402a17 <_Z11icache_missPv+0xce4>
  402a2b:	e9 f6 00 00 00       	jmpq   402b26 <_Z11icache_missPv+0xdf3>
  402a30:	c7 85 80 fe ff ff 00 	movl   $0x0,-0x180(%rbp)
  402a37:	00 00 00 
  402a3a:	eb 0b                	jmp    402a47 <_Z11icache_missPv+0xd14>
  402a3c:	83 45 f8 01          	addl   $0x1,-0x8(%rbp)
  402a40:	83 85 80 fe ff ff 01 	addl   $0x1,-0x180(%rbp)
  402a47:	83 bd 80 fe ff ff 63 	cmpl   $0x63,-0x180(%rbp)
  402a4e:	7e ec                	jle    402a3c <_Z11icache_missPv+0xd09>
  402a50:	e9 d1 00 00 00       	jmpq   402b26 <_Z11icache_missPv+0xdf3>
  402a55:	c7 85 7c fe ff ff 00 	movl   $0x0,-0x184(%rbp)
  402a5c:	00 00 00 
  402a5f:	eb 0b                	jmp    402a6c <_Z11icache_missPv+0xd39>
  402a61:	83 45 f8 01          	addl   $0x1,-0x8(%rbp)
  402a65:	83 85 7c fe ff ff 01 	addl   $0x1,-0x184(%rbp)
  402a6c:	83 bd 7c fe ff ff 63 	cmpl   $0x63,-0x184(%rbp)
  402a73:	7e ec                	jle    402a61 <_Z11icache_missPv+0xd2e>
  402a75:	e9 ac 00 00 00       	jmpq   402b26 <_Z11icache_missPv+0xdf3>
  402a7a:	c7 85 78 fe ff ff 00 	movl   $0x0,-0x188(%rbp)
  402a81:	00 00 00 
  402a84:	eb 0b                	jmp    402a91 <_Z11icache_missPv+0xd5e>
  402a86:	83 45 f8 01          	addl   $0x1,-0x8(%rbp)
  402a8a:	83 85 78 fe ff ff 01 	addl   $0x1,-0x188(%rbp)
  402a91:	83 bd 78 fe ff ff 63 	cmpl   $0x63,-0x188(%rbp)
  402a98:	7e ec                	jle    402a86 <_Z11icache_missPv+0xd53>
  402a9a:	e9 87 00 00 00       	jmpq   402b26 <_Z11icache_missPv+0xdf3>
  402a9f:	c7 85 74 fe ff ff 00 	movl   $0x0,-0x18c(%rbp)
  402aa6:	00 00 00 
  402aa9:	eb 0b                	jmp    402ab6 <_Z11icache_missPv+0xd83>
  402aab:	83 45 f8 01          	addl   $0x1,-0x8(%rbp)
  402aaf:	83 85 74 fe ff ff 01 	addl   $0x1,-0x18c(%rbp)
  402ab6:	83 bd 74 fe ff ff 63 	cmpl   $0x63,-0x18c(%rbp)
  402abd:	7e ec                	jle    402aab <_Z11icache_missPv+0xd78>
  402abf:	eb 65                	jmp    402b26 <_Z11icache_missPv+0xdf3>
  402ac1:	c7 85 70 fe ff ff 00 	movl   $0x0,-0x190(%rbp)
  402ac8:	00 00 00 
  402acb:	eb 0b                	jmp    402ad8 <_Z11icache_missPv+0xda5>
  402acd:	83 45 f8 01          	addl   $0x1,-0x8(%rbp)
  402ad1:	83 85 70 fe ff ff 01 	addl   $0x1,-0x190(%rbp)
  402ad8:	83 bd 70 fe ff ff 63 	cmpl   $0x63,-0x190(%rbp)
  402adf:	7e ec                	jle    402acd <_Z11icache_missPv+0xd9a>
  402ae1:	eb 43                	jmp    402b26 <_Z11icache_missPv+0xdf3>
  402ae3:	c7 85 6c fe ff ff 00 	movl   $0x0,-0x194(%rbp)
  402aea:	00 00 00 
  402aed:	eb 0b                	jmp    402afa <_Z11icache_missPv+0xdc7>
  402aef:	83 45 f8 01          	addl   $0x1,-0x8(%rbp)
  402af3:	83 85 6c fe ff ff 01 	addl   $0x1,-0x194(%rbp)
  402afa:	83 bd 6c fe ff ff 63 	cmpl   $0x63,-0x194(%rbp)
  402b01:	7e ec                	jle    402aef <_Z11icache_missPv+0xdbc>
  402b03:	eb 21                	jmp    402b26 <_Z11icache_missPv+0xdf3>
  402b05:	c7 85 68 fe ff ff 00 	movl   $0x0,-0x198(%rbp)
  402b0c:	00 00 00 
  402b0f:	eb 0b                	jmp    402b1c <_Z11icache_missPv+0xde9>
  402b11:	83 45 f8 01          	addl   $0x1,-0x8(%rbp)
  402b15:	83 85 68 fe ff ff 01 	addl   $0x1,-0x198(%rbp)
  402b1c:	83 bd 68 fe ff ff 63 	cmpl   $0x63,-0x198(%rbp)
  402b23:	7e ec                	jle    402b11 <_Z11icache_missPv+0xdde>
  402b25:	90                   	nop
  402b26:	83 45 fc 01          	addl   $0x1,-0x4(%rbp)
  402b2a:	81 7d fc 0f 27 00 00 	cmpl   $0x270f,-0x4(%rbp)
  402b31:	0f 8e 61 f2 ff ff    	jle    401d98 <_Z11icache_missPv+0x65>
  402b37:	c9                   	leaveq 
  402b38:	c3                   	retq   

0000000000402b39 <_ZSt4__lgl>:
  402b39:	55                   	push   %rbp
  402b3a:	48 89 e5             	mov    %rsp,%rbp
  402b3d:	48 89 7d f8          	mov    %rdi,-0x8(%rbp)
  402b41:	ba 40 00 00 00       	mov    $0x40,%edx
  402b46:	48 8b 45 f8          	mov    -0x8(%rbp),%rax
  402b4a:	48 0f bd c0          	bsr    %rax,%rax
  402b4e:	48 83 f0 3f          	xor    $0x3f,%rax
  402b52:	48 98                	cltq   
  402b54:	48 29 c2             	sub    %rax,%rdx
  402b57:	48 89 d0             	mov    %rdx,%rax
  402b5a:	48 83 e8 01          	sub    $0x1,%rax
  402b5e:	5d                   	pop    %rbp
  402b5f:	c3                   	retq   

0000000000402b60 <_ZSt4sortIPiEvT_S1_>:
  402b60:	55                   	push   %rbp
  402b61:	48 89 e5             	mov    %rsp,%rbp
  402b64:	48 83 ec 10          	sub    $0x10,%rsp
  402b68:	48 89 7d f8          	mov    %rdi,-0x8(%rbp)
  402b6c:	48 89 75 f0          	mov    %rsi,-0x10(%rbp)
  402b70:	48 8b 45 f8          	mov    -0x8(%rbp),%rax
  402b74:	48 3b 45 f0          	cmp    -0x10(%rbp),%rax
  402b78:	74 44                	je     402bbe <_ZSt4sortIPiEvT_S1_+0x5e>
  402b7a:	48 8b 55 f0          	mov    -0x10(%rbp),%rdx
  402b7e:	48 8b 45 f8          	mov    -0x8(%rbp),%rax
  402b82:	48 29 c2             	sub    %rax,%rdx
  402b85:	48 89 d0             	mov    %rdx,%rax
  402b88:	48 c1 f8 02          	sar    $0x2,%rax
  402b8c:	48 89 c7             	mov    %rax,%rdi
  402b8f:	e8 a5 ff ff ff       	callq  402b39 <_ZSt4__lgl>
  402b94:	48 8d 14 00          	lea    (%rax,%rax,1),%rdx
  402b98:	48 8b 4d f0          	mov    -0x10(%rbp),%rcx
  402b9c:	48 8b 45 f8          	mov    -0x8(%rbp),%rax
  402ba0:	48 89 ce             	mov    %rcx,%rsi
  402ba3:	48 89 c7             	mov    %rax,%rdi
  402ba6:	e8 8c 00 00 00       	callq  402c37 <_ZSt16__introsort_loopIPilEvT_S1_T0_>
  402bab:	48 8b 55 f0          	mov    -0x10(%rbp),%rdx
  402baf:	48 8b 45 f8          	mov    -0x8(%rbp),%rax
  402bb3:	48 89 d6             	mov    %rdx,%rsi
  402bb6:	48 89 c7             	mov    %rax,%rdi
  402bb9:	e8 00 01 00 00       	callq  402cbe <_ZSt22__final_insertion_sortIPiEvT_S1_>
  402bbe:	c9                   	leaveq 
  402bbf:	c3                   	retq   

0000000000402bc0 <_ZNSt26linear_congruential_engineImLm16807ELm0ELm2147483647EEC1Em>:
  402bc0:	55                   	push   %rbp
  402bc1:	48 89 e5             	mov    %rsp,%rbp
  402bc4:	48 83 ec 10          	sub    $0x10,%rsp
  402bc8:	48 89 7d f8          	mov    %rdi,-0x8(%rbp)
  402bcc:	48 89 75 f0          	mov    %rsi,-0x10(%rbp)
  402bd0:	48 8b 55 f0          	mov    -0x10(%rbp),%rdx
  402bd4:	48 8b 45 f8          	mov    -0x8(%rbp),%rax
  402bd8:	48 89 d6             	mov    %rdx,%rsi
  402bdb:	48 89 c7             	mov    %rax,%rdi
  402bde:	e8 45 01 00 00       	callq  402d28 <_ZNSt26linear_congruential_engineImLm16807ELm0ELm2147483647EE4seedEm>
  402be3:	c9                   	leaveq 
  402be4:	c3                   	retq   
  402be5:	90                   	nop

0000000000402be6 <_ZNSt24uniform_int_distributionIiEC1Eii>:
  402be6:	55                   	push   %rbp
  402be7:	48 89 e5             	mov    %rsp,%rbp
  402bea:	48 83 ec 10          	sub    $0x10,%rsp
  402bee:	48 89 7d f8          	mov    %rdi,-0x8(%rbp)
  402bf2:	89 75 f4             	mov    %esi,-0xc(%rbp)
  402bf5:	89 55 f0             	mov    %edx,-0x10(%rbp)
  402bf8:	48 8b 45 f8          	mov    -0x8(%rbp),%rax
  402bfc:	8b 55 f0             	mov    -0x10(%rbp),%edx
  402bff:	8b 4d f4             	mov    -0xc(%rbp),%ecx
  402c02:	89 ce                	mov    %ecx,%esi
  402c04:	48 89 c7             	mov    %rax,%rdi
  402c07:	e8 7e 01 00 00       	callq  402d8a <_ZNSt24uniform_int_distributionIiE10param_typeC1Eii>
  402c0c:	c9                   	leaveq 
  402c0d:	c3                   	retq   

0000000000402c0e <_ZNSt24uniform_int_distributionIiEclISt26linear_congruential_engineImLm16807ELm0ELm2147483647EEEEiRT_>:
  402c0e:	55                   	push   %rbp
  402c0f:	48 89 e5             	mov    %rsp,%rbp
  402c12:	48 83 ec 10          	sub    $0x10,%rsp
  402c16:	48 89 7d f8          	mov    %rdi,-0x8(%rbp)
  402c1a:	48 89 75 f0          	mov    %rsi,-0x10(%rbp)
  402c1e:	48 8b 55 f8          	mov    -0x8(%rbp),%rdx
  402c22:	48 8b 4d f0          	mov    -0x10(%rbp),%rcx
  402c26:	48 8b 45 f8          	mov    -0x8(%rbp),%rax
  402c2a:	48 89 ce             	mov    %rcx,%rsi
  402c2d:	48 89 c7             	mov    %rax,%rdi
  402c30:	e8 79 01 00 00       	callq  402dae <_ZNSt24uniform_int_distributionIiEclISt26linear_congruential_engineImLm16807ELm0ELm2147483647EEEEiRT_RKNS0_10param_typeE>
  402c35:	c9                   	leaveq 
  402c36:	c3                   	retq   

0000000000402c37 <_ZSt16__introsort_loopIPilEvT_S1_T0_>:
  402c37:	55                   	push   %rbp
  402c38:	48 89 e5             	mov    %rsp,%rbp
  402c3b:	48 83 ec 30          	sub    $0x30,%rsp
  402c3f:	48 89 7d e8          	mov    %rdi,-0x18(%rbp)
  402c43:	48 89 75 e0          	mov    %rsi,-0x20(%rbp)
  402c47:	48 89 55 d8          	mov    %rdx,-0x28(%rbp)
  402c4b:	eb 5b                	jmp    402ca8 <_ZSt16__introsort_loopIPilEvT_S1_T0_+0x71>
  402c4d:	48 83 7d d8 00       	cmpq   $0x0,-0x28(%rbp)
  402c52:	75 19                	jne    402c6d <_ZSt16__introsort_loopIPilEvT_S1_T0_+0x36>
  402c54:	48 8b 55 e0          	mov    -0x20(%rbp),%rdx
  402c58:	48 8b 4d e0          	mov    -0x20(%rbp),%rcx
  402c5c:	48 8b 45 e8          	mov    -0x18(%rbp),%rax
  402c60:	48 89 ce             	mov    %rcx,%rsi
  402c63:	48 89 c7             	mov    %rax,%rdi
  402c66:	e8 eb 02 00 00       	callq  402f56 <_ZSt12partial_sortIPiEvT_S1_S1_>
  402c6b:	eb 4f                	jmp    402cbc <_ZSt16__introsort_loopIPilEvT_S1_T0_+0x85>
  402c6d:	48 83 6d d8 01       	subq   $0x1,-0x28(%rbp)
  402c72:	48 8b 55 e0          	mov    -0x20(%rbp),%rdx
  402c76:	48 8b 45 e8          	mov    -0x18(%rbp),%rax
  402c7a:	48 89 d6             	mov    %rdx,%rsi
  402c7d:	48 89 c7             	mov    %rax,%rdi
  402c80:	e8 11 03 00 00       	callq  402f96 <_ZSt27__unguarded_partition_pivotIPiET_S1_S1_>
  402c85:	48 89 45 f8          	mov    %rax,-0x8(%rbp)
  402c89:	48 8b 55 d8          	mov    -0x28(%rbp),%rdx
  402c8d:	48 8b 4d e0          	mov    -0x20(%rbp),%rcx
  402c91:	48 8b 45 f8          	mov    -0x8(%rbp),%rax
  402c95:	48 89 ce             	mov    %rcx,%rsi
  402c98:	48 89 c7             	mov    %rax,%rdi
  402c9b:	e8 97 ff ff ff       	callq  402c37 <_ZSt16__introsort_loopIPilEvT_S1_T0_>
  402ca0:	48 8b 45 f8          	mov    -0x8(%rbp),%rax
  402ca4:	48 89 45 e0          	mov    %rax,-0x20(%rbp)
  402ca8:	48 8b 55 e0          	mov    -0x20(%rbp),%rdx
  402cac:	48 8b 45 e8          	mov    -0x18(%rbp),%rax
  402cb0:	48 29 c2             	sub    %rax,%rdx
  402cb3:	48 89 d0             	mov    %rdx,%rax
  402cb6:	48 83 f8 43          	cmp    $0x43,%rax
  402cba:	7f 91                	jg     402c4d <_ZSt16__introsort_loopIPilEvT_S1_T0_+0x16>
  402cbc:	c9                   	leaveq 
  402cbd:	c3                   	retq   

0000000000402cbe <_ZSt22__final_insertion_sortIPiEvT_S1_>:
  402cbe:	55                   	push   %rbp
  402cbf:	48 89 e5             	mov    %rsp,%rbp
  402cc2:	48 83 ec 10          	sub    $0x10,%rsp
  402cc6:	48 89 7d f8          	mov    %rdi,-0x8(%rbp)
  402cca:	48 89 75 f0          	mov    %rsi,-0x10(%rbp)
  402cce:	48 8b 55 f0          	mov    -0x10(%rbp),%rdx
  402cd2:	48 8b 45 f8          	mov    -0x8(%rbp),%rax
  402cd6:	48 29 c2             	sub    %rax,%rdx
  402cd9:	48 89 d0             	mov    %rdx,%rax
  402cdc:	48 83 f8 43          	cmp    $0x43,%rax
  402ce0:	7e 30                	jle    402d12 <_ZSt22__final_insertion_sortIPiEvT_S1_+0x54>
  402ce2:	48 8b 45 f8          	mov    -0x8(%rbp),%rax
  402ce6:	48 8d 50 40          	lea    0x40(%rax),%rdx
  402cea:	48 8b 45 f8          	mov    -0x8(%rbp),%rax
  402cee:	48 89 d6             	mov    %rdx,%rsi
  402cf1:	48 89 c7             	mov    %rax,%rdi
  402cf4:	e8 2a 03 00 00       	callq  403023 <_ZSt16__insertion_sortIPiEvT_S1_>
  402cf9:	48 8b 45 f8          	mov    -0x8(%rbp),%rax
  402cfd:	48 8d 50 40          	lea    0x40(%rax),%rdx
  402d01:	48 8b 45 f0          	mov    -0x10(%rbp),%rax
  402d05:	48 89 c6             	mov    %rax,%rsi
  402d08:	48 89 d7             	mov    %rdx,%rdi
  402d0b:	e8 ac 03 00 00       	callq  4030bc <_ZSt26__unguarded_insertion_sortIPiEvT_S1_>
  402d10:	eb 13                	jmp    402d25 <_ZSt22__final_insertion_sortIPiEvT_S1_+0x67>
  402d12:	48 8b 55 f0          	mov    -0x10(%rbp),%rdx
  402d16:	48 8b 45 f8          	mov    -0x8(%rbp),%rax
  402d1a:	48 89 d6             	mov    %rdx,%rsi
  402d1d:	48 89 c7             	mov    %rax,%rdi
  402d20:	e8 fe 02 00 00       	callq  403023 <_ZSt16__insertion_sortIPiEvT_S1_>
  402d25:	c9                   	leaveq 
  402d26:	c3                   	retq   
  402d27:	90                   	nop

0000000000402d28 <_ZNSt26linear_congruential_engineImLm16807ELm0ELm2147483647EE4seedEm>:
  402d28:	55                   	push   %rbp
  402d29:	48 89 e5             	mov    %rsp,%rbp
  402d2c:	48 83 ec 10          	sub    $0x10,%rsp
  402d30:	48 89 7d f8          	mov    %rdi,-0x8(%rbp)
  402d34:	48 89 75 f0          	mov    %rsi,-0x10(%rbp)
  402d38:	bf 00 00 00 00       	mov    $0x0,%edi
  402d3d:	e8 b1 03 00 00       	callq  4030f3 <_ZNSt8__detail5__modImLm2147483647ELm1ELm0EEET_S1_>
  402d42:	48 85 c0             	test   %rax,%rax
  402d45:	75 18                	jne    402d5f <_ZNSt26linear_congruential_engineImLm16807ELm0ELm2147483647EE4seedEm+0x37>
  402d47:	48 8b 45 f0          	mov    -0x10(%rbp),%rax
  402d4b:	48 89 c7             	mov    %rax,%rdi
  402d4e:	e8 a0 03 00 00       	callq  4030f3 <_ZNSt8__detail5__modImLm2147483647ELm1ELm0EEET_S1_>
  402d53:	48 85 c0             	test   %rax,%rax
  402d56:	75 07                	jne    402d5f <_ZNSt26linear_congruential_engineImLm16807ELm0ELm2147483647EE4seedEm+0x37>
  402d58:	b8 01 00 00 00       	mov    $0x1,%eax
  402d5d:	eb 05                	jmp    402d64 <_ZNSt26linear_congruential_engineImLm16807ELm0ELm2147483647EE4seedEm+0x3c>
  402d5f:	b8 00 00 00 00       	mov    $0x0,%eax
  402d64:	84 c0                	test   %al,%al
  402d66:	74 0d                	je     402d75 <_ZNSt26linear_congruential_engineImLm16807ELm0ELm2147483647EE4seedEm+0x4d>
  402d68:	48 8b 45 f8          	mov    -0x8(%rbp),%rax
  402d6c:	48 c7 00 01 00 00 00 	movq   $0x1,(%rax)
  402d73:	eb 13                	jmp    402d88 <_ZNSt26linear_congruential_engineImLm16807ELm0ELm2147483647EE4seedEm+0x60>
  402d75:	48 8b 45 f0          	mov    -0x10(%rbp),%rax
  402d79:	48 89 c7             	mov    %rax,%rdi
  402d7c:	e8 72 03 00 00       	callq  4030f3 <_ZNSt8__detail5__modImLm2147483647ELm1ELm0EEET_S1_>
  402d81:	48 8b 55 f8          	mov    -0x8(%rbp),%rdx
  402d85:	48 89 02             	mov    %rax,(%rdx)
  402d88:	c9                   	leaveq 
  402d89:	c3                   	retq   

0000000000402d8a <_ZNSt24uniform_int_distributionIiE10param_typeC1Eii>:
  402d8a:	55                   	push   %rbp
  402d8b:	48 89 e5             	mov    %rsp,%rbp
  402d8e:	48 89 7d f8          	mov    %rdi,-0x8(%rbp)
  402d92:	89 75 f4             	mov    %esi,-0xc(%rbp)
  402d95:	89 55 f0             	mov    %edx,-0x10(%rbp)
  402d98:	48 8b 45 f8          	mov    -0x8(%rbp),%rax
  402d9c:	8b 55 f4             	mov    -0xc(%rbp),%edx
  402d9f:	89 10                	mov    %edx,(%rax)
  402da1:	48 8b 45 f8          	mov    -0x8(%rbp),%rax
  402da5:	8b 55 f0             	mov    -0x10(%rbp),%edx
  402da8:	89 50 04             	mov    %edx,0x4(%rax)
  402dab:	5d                   	pop    %rbp
  402dac:	c3                   	retq   
  402dad:	90                   	nop

0000000000402dae <_ZNSt24uniform_int_distributionIiEclISt26linear_congruential_engineImLm16807ELm0ELm2147483647EEEEiRT_RKNS0_10param_typeE>:
  402dae:	55                   	push   %rbp
  402daf:	48 89 e5             	mov    %rsp,%rbp
  402db2:	53                   	push   %rbx
  402db3:	48 81 ec 88 00 00 00 	sub    $0x88,%rsp
  402dba:	48 89 7d 88          	mov    %rdi,-0x78(%rbp)
  402dbe:	48 89 75 80          	mov    %rsi,-0x80(%rbp)
  402dc2:	48 89 95 78 ff ff ff 	mov    %rdx,-0x88(%rbp)
  402dc9:	48 c7 45 e0 01 00 00 	movq   $0x1,-0x20(%rbp)
  402dd0:	00 
  402dd1:	48 c7 45 d8 fe ff ff 	movq   $0x7ffffffe,-0x28(%rbp)
  402dd8:	7f 
  402dd9:	48 c7 45 d0 fd ff ff 	movq   $0x7ffffffd,-0x30(%rbp)
  402de0:	7f 
  402de1:	48 8b 85 78 ff ff ff 	mov    -0x88(%rbp),%rax
  402de8:	48 89 c7             	mov    %rax,%rdi
  402deb:	e8 2e 03 00 00       	callq  40311e <_ZNKSt24uniform_int_distributionIiE10param_type1bEv>
  402df0:	48 63 d8             	movslq %eax,%rbx
  402df3:	48 8b 85 78 ff ff ff 	mov    -0x88(%rbp),%rax
  402dfa:	48 89 c7             	mov    %rax,%rdi
  402dfd:	e8 0c 03 00 00       	callq  40310e <_ZNKSt24uniform_int_distributionIiE10param_type1aEv>
  402e02:	48 98                	cltq   
  402e04:	48 29 c3             	sub    %rax,%rbx
  402e07:	48 89 d8             	mov    %rbx,%rax
  402e0a:	48 89 45 c8          	mov    %rax,-0x38(%rbp)
  402e0e:	48 81 7d c8 fc ff ff 	cmpq   $0x7ffffffc,-0x38(%rbp)
  402e15:	7f 
  402e16:	77 5f                	ja     402e77 <_ZNSt24uniform_int_distributionIiEclISt26linear_congruential_engineImLm16807ELm0ELm2147483647EEEEiRT_RKNS0_10param_typeE+0xc9>
  402e18:	48 8b 45 c8          	mov    -0x38(%rbp),%rax
  402e1c:	48 83 c0 01          	add    $0x1,%rax
  402e20:	48 89 45 c0          	mov    %rax,-0x40(%rbp)
  402e24:	b8 fd ff ff 7f       	mov    $0x7ffffffd,%eax
  402e29:	ba 00 00 00 00       	mov    $0x0,%edx
  402e2e:	48 f7 75 c0          	divq   -0x40(%rbp)
  402e32:	48 89 45 b8          	mov    %rax,-0x48(%rbp)
  402e36:	48 8b 45 c0          	mov    -0x40(%rbp),%rax
  402e3a:	48 0f af 45 b8       	imul   -0x48(%rbp),%rax
  402e3f:	48 89 45 b0          	mov    %rax,-0x50(%rbp)
  402e43:	48 8b 45 80          	mov    -0x80(%rbp),%rax
  402e47:	48 89 c7             	mov    %rax,%rdi
  402e4a:	e8 e1 02 00 00       	callq  403130 <_ZNSt26linear_congruential_engineImLm16807ELm0ELm2147483647EEclEv>
  402e4f:	48 83 e8 01          	sub    $0x1,%rax
  402e53:	48 89 45 e8          	mov    %rax,-0x18(%rbp)
  402e57:	48 8b 45 e8          	mov    -0x18(%rbp),%rax
  402e5b:	48 3b 45 b0          	cmp    -0x50(%rbp),%rax
  402e5f:	73 e2                	jae    402e43 <_ZNSt24uniform_int_distributionIiEclISt26linear_congruential_engineImLm16807ELm0ELm2147483647EEEEiRT_RKNS0_10param_typeE+0x95>
  402e61:	48 8b 45 e8          	mov    -0x18(%rbp),%rax
  402e65:	ba 00 00 00 00       	mov    $0x0,%edx
  402e6a:	48 f7 75 b8          	divq   -0x48(%rbp)
  402e6e:	48 89 45 e8          	mov    %rax,-0x18(%rbp)
  402e72:	e9 be 00 00 00       	jmpq   402f35 <_ZNSt24uniform_int_distributionIiEclISt26linear_congruential_engineImLm16807ELm0ELm2147483647EEEEiRT_RKNS0_10param_typeE+0x187>
  402e77:	48 81 7d c8 fd ff ff 	cmpq   $0x7ffffffd,-0x38(%rbp)
  402e7e:	7f 
  402e7f:	0f 86 9c 00 00 00    	jbe    402f21 <_ZNSt24uniform_int_distributionIiEclISt26linear_congruential_engineImLm16807ELm0ELm2147483647EEEEiRT_RKNS0_10param_typeE+0x173>
  402e85:	48 c7 45 a8 fe ff ff 	movq   $0x7ffffffe,-0x58(%rbp)
  402e8c:	7f 
  402e8d:	48 8b 45 c8          	mov    -0x38(%rbp),%rax
  402e91:	48 d1 e8             	shr    %rax
  402e94:	48 ba 09 00 00 00 02 	movabs $0x8000000200000009,%rdx
  402e9b:	00 00 80 
  402e9e:	48 f7 e2             	mul    %rdx
  402ea1:	48 89 d0             	mov    %rdx,%rax
  402ea4:	48 c1 e8 1d          	shr    $0x1d,%rax
  402ea8:	89 c2                	mov    %eax,%edx
  402eaa:	48 8d 45 90          	lea    -0x70(%rbp),%rax
  402eae:	be 00 00 00 00       	mov    $0x0,%esi
  402eb3:	48 89 c7             	mov    %rax,%rdi
  402eb6:	e8 cf fe ff ff       	callq  402d8a <_ZNSt24uniform_int_distributionIiE10param_typeC1Eii>
  402ebb:	48 8d 55 90          	lea    -0x70(%rbp),%rdx
  402ebf:	48 8b 4d 80          	mov    -0x80(%rbp),%rcx
  402ec3:	48 8b 45 88          	mov    -0x78(%rbp),%rax
  402ec7:	48 89 ce             	mov    %rcx,%rsi
  402eca:	48 89 c7             	mov    %rax,%rdi
  402ecd:	e8 dc fe ff ff       	callq  402dae <_ZNSt24uniform_int_distributionIiEclISt26linear_congruential_engineImLm16807ELm0ELm2147483647EEEEiRT_RKNS0_10param_typeE>
  402ed2:	48 98                	cltq   
  402ed4:	48 01 c0             	add    %rax,%rax
  402ed7:	48 89 c2             	mov    %rax,%rdx
  402eda:	48 c1 e2 1e          	shl    $0x1e,%rdx
  402ede:	48 29 c2             	sub    %rax,%rdx
  402ee1:	48 89 d0             	mov    %rdx,%rax
  402ee4:	48 89 45 a0          	mov    %rax,-0x60(%rbp)
  402ee8:	48 8b 45 80          	mov    -0x80(%rbp),%rax
  402eec:	48 89 c7             	mov    %rax,%rdi
  402eef:	e8 3c 02 00 00       	callq  403130 <_ZNSt26linear_congruential_engineImLm16807ELm0ELm2147483647EEclEv>
  402ef4:	48 8b 55 a0          	mov    -0x60(%rbp),%rdx
  402ef8:	48 01 d0             	add    %rdx,%rax
  402efb:	48 83 e8 01          	sub    $0x1,%rax
  402eff:	48 89 45 e8          	mov    %rax,-0x18(%rbp)
  402f03:	48 8b 45 e8          	mov    -0x18(%rbp),%rax
  402f07:	48 3b 45 c8          	cmp    -0x38(%rbp),%rax
  402f0b:	0f 87 74 ff ff ff    	ja     402e85 <_ZNSt24uniform_int_distributionIiEclISt26linear_congruential_engineImLm16807ELm0ELm2147483647EEEEiRT_RKNS0_10param_typeE+0xd7>
  402f11:	48 8b 45 e8          	mov    -0x18(%rbp),%rax
  402f15:	48 3b 45 a0          	cmp    -0x60(%rbp),%rax
  402f19:	0f 82 66 ff ff ff    	jb     402e85 <_ZNSt24uniform_int_distributionIiEclISt26linear_congruential_engineImLm16807ELm0ELm2147483647EEEEiRT_RKNS0_10param_typeE+0xd7>
  402f1f:	eb 14                	jmp    402f35 <_ZNSt24uniform_int_distributionIiEclISt26linear_congruential_engineImLm16807ELm0ELm2147483647EEEEiRT_RKNS0_10param_typeE+0x187>
  402f21:	48 8b 45 80          	mov    -0x80(%rbp),%rax
  402f25:	48 89 c7             	mov    %rax,%rdi
  402f28:	e8 03 02 00 00       	callq  403130 <_ZNSt26linear_congruential_engineImLm16807ELm0ELm2147483647EEclEv>
  402f2d:	48 83 e8 01          	sub    $0x1,%rax
  402f31:	48 89 45 e8          	mov    %rax,-0x18(%rbp)
  402f35:	48 8b 85 78 ff ff ff 	mov    -0x88(%rbp),%rax
  402f3c:	48 89 c7             	mov    %rax,%rdi
  402f3f:	e8 ca 01 00 00       	callq  40310e <_ZNKSt24uniform_int_distributionIiE10param_type1aEv>
  402f44:	89 c2                	mov    %eax,%edx
  402f46:	48 8b 45 e8          	mov    -0x18(%rbp),%rax
  402f4a:	01 d0                	add    %edx,%eax
  402f4c:	48 81 c4 88 00 00 00 	add    $0x88,%rsp
  402f53:	5b                   	pop    %rbx
  402f54:	5d                   	pop    %rbp
  402f55:	c3                   	retq   

0000000000402f56 <_ZSt12partial_sortIPiEvT_S1_S1_>:
  402f56:	55                   	push   %rbp
  402f57:	48 89 e5             	mov    %rsp,%rbp
  402f5a:	48 83 ec 20          	sub    $0x20,%rsp
  402f5e:	48 89 7d f8          	mov    %rdi,-0x8(%rbp)
  402f62:	48 89 75 f0          	mov    %rsi,-0x10(%rbp)
  402f66:	48 89 55 e8          	mov    %rdx,-0x18(%rbp)
  402f6a:	48 8b 55 e8          	mov    -0x18(%rbp),%rdx
  402f6e:	48 8b 4d f0          	mov    -0x10(%rbp),%rcx
  402f72:	48 8b 45 f8          	mov    -0x8(%rbp),%rax
  402f76:	48 89 ce             	mov    %rcx,%rsi
  402f79:	48 89 c7             	mov    %rax,%rdi
  402f7c:	e8 da 01 00 00       	callq  40315b <_ZSt13__heap_selectIPiEvT_S1_S1_>
  402f81:	48 8b 55 f0          	mov    -0x10(%rbp),%rdx
  402f85:	48 8b 45 f8          	mov    -0x8(%rbp),%rax
  402f89:	48 89 d6             	mov    %rdx,%rsi
  402f8c:	48 89 c7             	mov    %rax,%rdi
  402f8f:	e8 30 02 00 00       	callq  4031c4 <_ZSt9sort_heapIPiEvT_S1_>
  402f94:	c9                   	leaveq 
  402f95:	c3                   	retq   

0000000000402f96 <_ZSt27__unguarded_partition_pivotIPiET_S1_S1_>:
  402f96:	55                   	push   %rbp
  402f97:	48 89 e5             	mov    %rsp,%rbp
  402f9a:	48 83 ec 20          	sub    $0x20,%rsp
  402f9e:	48 89 7d e8          	mov    %rdi,-0x18(%rbp)
  402fa2:	48 89 75 e0          	mov    %rsi,-0x20(%rbp)
  402fa6:	48 8b 55 e0          	mov    -0x20(%rbp),%rdx
  402faa:	48 8b 45 e8          	mov    -0x18(%rbp),%rax
  402fae:	48 29 c2             	sub    %rax,%rdx
  402fb1:	48 89 d0             	mov    %rdx,%rax
  402fb4:	48 c1 f8 02          	sar    $0x2,%rax
  402fb8:	48 89 c2             	mov    %rax,%rdx
  402fbb:	48 c1 ea 3f          	shr    $0x3f,%rdx
  402fbf:	48 01 d0             	add    %rdx,%rax
  402fc2:	48 d1 f8             	sar    %rax
  402fc5:	48 8d 14 85 00 00 00 	lea    0x0(,%rax,4),%rdx
  402fcc:	00 
  402fcd:	48 8b 45 e8          	mov    -0x18(%rbp),%rax
  402fd1:	48 01 d0             	add    %rdx,%rax
  402fd4:	48 89 45 f8          	mov    %rax,-0x8(%rbp)
  402fd8:	48 8b 45 e0          	mov    -0x20(%rbp),%rax
  402fdc:	48 8d 48 fc          	lea    -0x4(%rax),%rcx
  402fe0:	48 8b 45 e8          	mov    -0x18(%rbp),%rax
  402fe4:	48 8d 70 04          	lea    0x4(%rax),%rsi
  402fe8:	48 8b 55 f8          	mov    -0x8(%rbp),%rdx
  402fec:	48 8b 45 e8          	mov    -0x18(%rbp),%rax
  402ff0:	48 89 c7             	mov    %rax,%rdi
  402ff3:	e8 10 02 00 00       	callq  403208 <_ZSt22__move_median_to_firstIPiEvT_S1_S1_S1_>
  402ff8:	48 8b 45 e8          	mov    -0x18(%rbp),%rax
  402ffc:	48 8d 48 04          	lea    0x4(%rax),%rcx
  403000:	48 8b 55 e8          	mov    -0x18(%rbp),%rdx
  403004:	48 8b 45 e0          	mov    -0x20(%rbp),%rax
  403008:	48 89 c6             	mov    %rax,%rsi
  40300b:	48 89 cf             	mov    %rcx,%rdi
  40300e:	e8 de 02 00 00       	callq  4032f1 <_ZSt21__unguarded_partitionIPiiET_S1_S1_RKT0_>
  403013:	c9                   	leaveq 
  403014:	c3                   	retq   

0000000000403015 <_ZSt4moveIRiEONSt16remove_referenceIT_E4typeEOS2_>:
  403015:	55                   	push   %rbp
  403016:	48 89 e5             	mov    %rsp,%rbp
  403019:	48 89 7d f8          	mov    %rdi,-0x8(%rbp)
  40301d:	48 8b 45 f8          	mov    -0x8(%rbp),%rax
  403021:	5d                   	pop    %rbp
  403022:	c3                   	retq   

0000000000403023 <_ZSt16__insertion_sortIPiEvT_S1_>:
  403023:	55                   	push   %rbp
  403024:	48 89 e5             	mov    %rsp,%rbp
  403027:	48 83 ec 20          	sub    $0x20,%rsp
  40302b:	48 89 7d e8          	mov    %rdi,-0x18(%rbp)
  40302f:	48 89 75 e0          	mov    %rsi,-0x20(%rbp)
  403033:	48 8b 45 e8          	mov    -0x18(%rbp),%rax
  403037:	48 3b 45 e0          	cmp    -0x20(%rbp),%rax
  40303b:	75 02                	jne    40303f <_ZSt16__insertion_sortIPiEvT_S1_+0x1c>
  40303d:	eb 7b                	jmp    4030ba <_ZSt16__insertion_sortIPiEvT_S1_+0x97>
  40303f:	48 8b 45 e8          	mov    -0x18(%rbp),%rax
  403043:	48 83 c0 04          	add    $0x4,%rax
  403047:	48 89 45 f8          	mov    %rax,-0x8(%rbp)
  40304b:	eb 63                	jmp    4030b0 <_ZSt16__insertion_sortIPiEvT_S1_+0x8d>
  40304d:	48 8b 45 f8          	mov    -0x8(%rbp),%rax
  403051:	8b 10                	mov    (%rax),%edx
  403053:	48 8b 45 e8          	mov    -0x18(%rbp),%rax
  403057:	8b 00                	mov    (%rax),%eax
  403059:	39 c2                	cmp    %eax,%edx
  40305b:	7d 42                	jge    40309f <_ZSt16__insertion_sortIPiEvT_S1_+0x7c>
  40305d:	48 8b 45 f8          	mov    -0x8(%rbp),%rax
  403061:	48 89 c7             	mov    %rax,%rdi
  403064:	e8 ac ff ff ff       	callq  403015 <_ZSt4moveIRiEONSt16remove_referenceIT_E4typeEOS2_>
  403069:	8b 00                	mov    (%rax),%eax
  40306b:	89 45 f4             	mov    %eax,-0xc(%rbp)
  40306e:	48 8b 45 f8          	mov    -0x8(%rbp),%rax
  403072:	48 8d 50 04          	lea    0x4(%rax),%rdx
  403076:	48 8b 4d f8          	mov    -0x8(%rbp),%rcx
  40307a:	48 8b 45 e8          	mov    -0x18(%rbp),%rax
  40307e:	48 89 ce             	mov    %rcx,%rsi
  403081:	48 89 c7             	mov    %rax,%rdi
  403084:	e8 dc 02 00 00       	callq  403365 <_ZSt13move_backwardIPiS0_ET0_T_S2_S1_>
  403089:	48 8d 45 f4          	lea    -0xc(%rbp),%rax
  40308d:	48 89 c7             	mov    %rax,%rdi
  403090:	e8 80 ff ff ff       	callq  403015 <_ZSt4moveIRiEONSt16remove_referenceIT_E4typeEOS2_>
  403095:	8b 10                	mov    (%rax),%edx
  403097:	48 8b 45 e8          	mov    -0x18(%rbp),%rax
  40309b:	89 10                	mov    %edx,(%rax)
  40309d:	eb 0c                	jmp    4030ab <_ZSt16__insertion_sortIPiEvT_S1_+0x88>
  40309f:	48 8b 45 f8          	mov    -0x8(%rbp),%rax
  4030a3:	48 89 c7             	mov    %rax,%rdi
  4030a6:	e8 00 03 00 00       	callq  4033ab <_ZSt25__unguarded_linear_insertIPiEvT_>
  4030ab:	48 83 45 f8 04       	addq   $0x4,-0x8(%rbp)
  4030b0:	48 8b 45 f8          	mov    -0x8(%rbp),%rax
  4030b4:	48 3b 45 e0          	cmp    -0x20(%rbp),%rax
  4030b8:	75 93                	jne    40304d <_ZSt16__insertion_sortIPiEvT_S1_+0x2a>
  4030ba:	c9                   	leaveq 
  4030bb:	c3                   	retq   

00000000004030bc <_ZSt26__unguarded_insertion_sortIPiEvT_S1_>:
  4030bc:	55                   	push   %rbp
  4030bd:	48 89 e5             	mov    %rsp,%rbp
  4030c0:	48 83 ec 20          	sub    $0x20,%rsp
  4030c4:	48 89 7d e8          	mov    %rdi,-0x18(%rbp)
  4030c8:	48 89 75 e0          	mov    %rsi,-0x20(%rbp)
  4030cc:	48 8b 45 e8          	mov    -0x18(%rbp),%rax
  4030d0:	48 89 45 f8          	mov    %rax,-0x8(%rbp)
  4030d4:	eb 11                	jmp    4030e7 <_ZSt26__unguarded_insertion_sortIPiEvT_S1_+0x2b>
  4030d6:	48 8b 45 f8          	mov    -0x8(%rbp),%rax
  4030da:	48 89 c7             	mov    %rax,%rdi
  4030dd:	e8 c9 02 00 00       	callq  4033ab <_ZSt25__unguarded_linear_insertIPiEvT_>
  4030e2:	48 83 45 f8 04       	addq   $0x4,-0x8(%rbp)
  4030e7:	48 8b 45 f8          	mov    -0x8(%rbp),%rax
  4030eb:	48 3b 45 e0          	cmp    -0x20(%rbp),%rax
  4030ef:	75 e5                	jne    4030d6 <_ZSt26__unguarded_insertion_sortIPiEvT_S1_+0x1a>
  4030f1:	c9                   	leaveq 
  4030f2:	c3                   	retq   

00000000004030f3 <_ZNSt8__detail5__modImLm2147483647ELm1ELm0EEET_S1_>:
  4030f3:	55                   	push   %rbp
  4030f4:	48 89 e5             	mov    %rsp,%rbp
  4030f7:	48 83 ec 10          	sub    $0x10,%rsp
  4030fb:	48 89 7d f8          	mov    %rdi,-0x8(%rbp)
  4030ff:	48 8b 45 f8          	mov    -0x8(%rbp),%rax
  403103:	48 89 c7             	mov    %rax,%rdi
  403106:	e8 10 03 00 00       	callq  40341b <_ZNSt8__detail4_ModImLm2147483647ELm1ELm0ELb1ELb1EE6__calcEm>
  40310b:	c9                   	leaveq 
  40310c:	c3                   	retq   
  40310d:	90                   	nop

000000000040310e <_ZNKSt24uniform_int_distributionIiE10param_type1aEv>:
  40310e:	55                   	push   %rbp
  40310f:	48 89 e5             	mov    %rsp,%rbp
  403112:	48 89 7d f8          	mov    %rdi,-0x8(%rbp)
  403116:	48 8b 45 f8          	mov    -0x8(%rbp),%rax
  40311a:	8b 00                	mov    (%rax),%eax
  40311c:	5d                   	pop    %rbp
  40311d:	c3                   	retq   

000000000040311e <_ZNKSt24uniform_int_distributionIiE10param_type1bEv>:
  40311e:	55                   	push   %rbp
  40311f:	48 89 e5             	mov    %rsp,%rbp
  403122:	48 89 7d f8          	mov    %rdi,-0x8(%rbp)
  403126:	48 8b 45 f8          	mov    -0x8(%rbp),%rax
  40312a:	8b 40 04             	mov    0x4(%rax),%eax
  40312d:	5d                   	pop    %rbp
  40312e:	c3                   	retq   
  40312f:	90                   	nop

0000000000403130 <_ZNSt26linear_congruential_engineImLm16807ELm0ELm2147483647EEclEv>:
  403130:	55                   	push   %rbp
  403131:	48 89 e5             	mov    %rsp,%rbp
  403134:	48 83 ec 10          	sub    $0x10,%rsp
  403138:	48 89 7d f8          	mov    %rdi,-0x8(%rbp)
  40313c:	48 8b 45 f8          	mov    -0x8(%rbp),%rax
  403140:	48 8b 00             	mov    (%rax),%rax
  403143:	48 89 c7             	mov    %rax,%rdi
  403146:	e8 21 03 00 00       	callq  40346c <_ZNSt8__detail5__modImLm2147483647ELm16807ELm0EEET_S1_>
  40314b:	48 8b 55 f8          	mov    -0x8(%rbp),%rdx
  40314f:	48 89 02             	mov    %rax,(%rdx)
  403152:	48 8b 45 f8          	mov    -0x8(%rbp),%rax
  403156:	48 8b 00             	mov    (%rax),%rax
  403159:	c9                   	leaveq 
  40315a:	c3                   	retq   

000000000040315b <_ZSt13__heap_selectIPiEvT_S1_S1_>:
  40315b:	55                   	push   %rbp
  40315c:	48 89 e5             	mov    %rsp,%rbp
  40315f:	48 83 ec 30          	sub    $0x30,%rsp
  403163:	48 89 7d e8          	mov    %rdi,-0x18(%rbp)
  403167:	48 89 75 e0          	mov    %rsi,-0x20(%rbp)
  40316b:	48 89 55 d8          	mov    %rdx,-0x28(%rbp)
  40316f:	48 8b 55 e0          	mov    -0x20(%rbp),%rdx
  403173:	48 8b 45 e8          	mov    -0x18(%rbp),%rax
  403177:	48 89 d6             	mov    %rdx,%rsi
  40317a:	48 89 c7             	mov    %rax,%rdi
  40317d:	e8 04 03 00 00       	callq  403486 <_ZSt9make_heapIPiEvT_S1_>
  403182:	48 8b 45 e0          	mov    -0x20(%rbp),%rax
  403186:	48 89 45 f8          	mov    %rax,-0x8(%rbp)
  40318a:	eb 2c                	jmp    4031b8 <_ZSt13__heap_selectIPiEvT_S1_S1_+0x5d>
  40318c:	48 8b 45 f8          	mov    -0x8(%rbp),%rax
  403190:	8b 10                	mov    (%rax),%edx
  403192:	48 8b 45 e8          	mov    -0x18(%rbp),%rax
  403196:	8b 00                	mov    (%rax),%eax
  403198:	39 c2                	cmp    %eax,%edx
  40319a:	7d 17                	jge    4031b3 <_ZSt13__heap_selectIPiEvT_S1_S1_+0x58>
  40319c:	48 8b 55 f8          	mov    -0x8(%rbp),%rdx
  4031a0:	48 8b 4d e0          	mov    -0x20(%rbp),%rcx
  4031a4:	48 8b 45 e8          	mov    -0x18(%rbp),%rax
  4031a8:	48 89 ce             	mov    %rcx,%rsi
  4031ab:	48 89 c7             	mov    %rax,%rdi
  4031ae:	e8 7a 03 00 00       	callq  40352d <_ZSt10__pop_heapIPiEvT_S1_S1_>
  4031b3:	48 83 45 f8 04       	addq   $0x4,-0x8(%rbp)
  4031b8:	48 8b 45 f8          	mov    -0x8(%rbp),%rax
  4031bc:	48 3b 45 d8          	cmp    -0x28(%rbp),%rax
  4031c0:	72 ca                	jb     40318c <_ZSt13__heap_selectIPiEvT_S1_S1_+0x31>
  4031c2:	c9                   	leaveq 
  4031c3:	c3                   	retq   

00000000004031c4 <_ZSt9sort_heapIPiEvT_S1_>:
  4031c4:	55                   	push   %rbp
  4031c5:	48 89 e5             	mov    %rsp,%rbp
  4031c8:	48 83 ec 10          	sub    $0x10,%rsp
  4031cc:	48 89 7d f8          	mov    %rdi,-0x8(%rbp)
  4031d0:	48 89 75 f0          	mov    %rsi,-0x10(%rbp)
  4031d4:	eb 1c                	jmp    4031f2 <_ZSt9sort_heapIPiEvT_S1_+0x2e>
  4031d6:	48 83 6d f0 04       	subq   $0x4,-0x10(%rbp)
  4031db:	48 8b 55 f0          	mov    -0x10(%rbp),%rdx
  4031df:	48 8b 4d f0          	mov    -0x10(%rbp),%rcx
  4031e3:	48 8b 45 f8          	mov    -0x8(%rbp),%rax
  4031e7:	48 89 ce             	mov    %rcx,%rsi
  4031ea:	48 89 c7             	mov    %rax,%rdi
  4031ed:	e8 3b 03 00 00       	callq  40352d <_ZSt10__pop_heapIPiEvT_S1_S1_>
  4031f2:	48 8b 55 f0          	mov    -0x10(%rbp),%rdx
  4031f6:	48 8b 45 f8          	mov    -0x8(%rbp),%rax
  4031fa:	48 29 c2             	sub    %rax,%rdx
  4031fd:	48 89 d0             	mov    %rdx,%rax
  403200:	48 83 f8 07          	cmp    $0x7,%rax
  403204:	7f d0                	jg     4031d6 <_ZSt9sort_heapIPiEvT_S1_+0x12>
  403206:	c9                   	leaveq 
  403207:	c3                   	retq   

0000000000403208 <_ZSt22__move_median_to_firstIPiEvT_S1_S1_S1_>:
  403208:	55                   	push   %rbp
  403209:	48 89 e5             	mov    %rsp,%rbp
  40320c:	48 83 ec 20          	sub    $0x20,%rsp
  403210:	48 89 7d f8          	mov    %rdi,-0x8(%rbp)
  403214:	48 89 75 f0          	mov    %rsi,-0x10(%rbp)
  403218:	48 89 55 e8          	mov    %rdx,-0x18(%rbp)
  40321c:	48 89 4d e0          	mov    %rcx,-0x20(%rbp)
  403220:	48 8b 45 f0          	mov    -0x10(%rbp),%rax
  403224:	8b 10                	mov    (%rax),%edx
  403226:	48 8b 45 e8          	mov    -0x18(%rbp),%rax
  40322a:	8b 00                	mov    (%rax),%eax
  40322c:	39 c2                	cmp    %eax,%edx
  40322e:	7d 62                	jge    403292 <_ZSt22__move_median_to_firstIPiEvT_S1_S1_S1_+0x8a>
  403230:	48 8b 45 e8          	mov    -0x18(%rbp),%rax
  403234:	8b 10                	mov    (%rax),%edx
  403236:	48 8b 45 e0          	mov    -0x20(%rbp),%rax
  40323a:	8b 00                	mov    (%rax),%eax
  40323c:	39 c2                	cmp    %eax,%edx
  40323e:	7d 18                	jge    403258 <_ZSt22__move_median_to_firstIPiEvT_S1_S1_S1_+0x50>
  403240:	48 8b 55 e8          	mov    -0x18(%rbp),%rdx
  403244:	48 8b 45 f8          	mov    -0x8(%rbp),%rax
  403248:	48 89 d6             	mov    %rdx,%rsi
  40324b:	48 89 c7             	mov    %rax,%rdi
  40324e:	e8 49 03 00 00       	callq  40359c <_ZSt9iter_swapIPiS0_EvT_T0_>
  403253:	e9 97 00 00 00       	jmpq   4032ef <_ZSt22__move_median_to_firstIPiEvT_S1_S1_S1_+0xe7>
  403258:	48 8b 45 f0          	mov    -0x10(%rbp),%rax
  40325c:	8b 10                	mov    (%rax),%edx
  40325e:	48 8b 45 e0          	mov    -0x20(%rbp),%rax
  403262:	8b 00                	mov    (%rax),%eax
  403264:	39 c2                	cmp    %eax,%edx
  403266:	7d 15                	jge    40327d <_ZSt22__move_median_to_firstIPiEvT_S1_S1_S1_+0x75>
  403268:	48 8b 55 e0          	mov    -0x20(%rbp),%rdx
  40326c:	48 8b 45 f8          	mov    -0x8(%rbp),%rax
  403270:	48 89 d6             	mov    %rdx,%rsi
  403273:	48 89 c7             	mov    %rax,%rdi
  403276:	e8 21 03 00 00       	callq  40359c <_ZSt9iter_swapIPiS0_EvT_T0_>
  40327b:	eb 72                	jmp    4032ef <_ZSt22__move_median_to_firstIPiEvT_S1_S1_S1_+0xe7>
  40327d:	48 8b 55 f0          	mov    -0x10(%rbp),%rdx
  403281:	48 8b 45 f8          	mov    -0x8(%rbp),%rax
  403285:	48 89 d6             	mov    %rdx,%rsi
  403288:	48 89 c7             	mov    %rax,%rdi
  40328b:	e8 0c 03 00 00       	callq  40359c <_ZSt9iter_swapIPiS0_EvT_T0_>
  403290:	eb 5d                	jmp    4032ef <_ZSt22__move_median_to_firstIPiEvT_S1_S1_S1_+0xe7>
  403292:	48 8b 45 f0          	mov    -0x10(%rbp),%rax
  403296:	8b 10                	mov    (%rax),%edx
  403298:	48 8b 45 e0          	mov    -0x20(%rbp),%rax
  40329c:	8b 00                	mov    (%rax),%eax
  40329e:	39 c2                	cmp    %eax,%edx
  4032a0:	7d 15                	jge    4032b7 <_ZSt22__move_median_to_firstIPiEvT_S1_S1_S1_+0xaf>
  4032a2:	48 8b 55 f0          	mov    -0x10(%rbp),%rdx
  4032a6:	48 8b 45 f8          	mov    -0x8(%rbp),%rax
  4032aa:	48 89 d6             	mov    %rdx,%rsi
  4032ad:	48 89 c7             	mov    %rax,%rdi
  4032b0:	e8 e7 02 00 00       	callq  40359c <_ZSt9iter_swapIPiS0_EvT_T0_>
  4032b5:	eb 38                	jmp    4032ef <_ZSt22__move_median_to_firstIPiEvT_S1_S1_S1_+0xe7>
  4032b7:	48 8b 45 e8          	mov    -0x18(%rbp),%rax
  4032bb:	8b 10                	mov    (%rax),%edx
  4032bd:	48 8b 45 e0          	mov    -0x20(%rbp),%rax
  4032c1:	8b 00                	mov    (%rax),%eax
  4032c3:	39 c2                	cmp    %eax,%edx
  4032c5:	7d 15                	jge    4032dc <_ZSt22__move_median_to_firstIPiEvT_S1_S1_S1_+0xd4>
  4032c7:	48 8b 55 e0          	mov    -0x20(%rbp),%rdx
  4032cb:	48 8b 45 f8          	mov    -0x8(%rbp),%rax
  4032cf:	48 89 d6             	mov    %rdx,%rsi
  4032d2:	48 89 c7             	mov    %rax,%rdi
  4032d5:	e8 c2 02 00 00       	callq  40359c <_ZSt9iter_swapIPiS0_EvT_T0_>
  4032da:	eb 13                	jmp    4032ef <_ZSt22__move_median_to_firstIPiEvT_S1_S1_S1_+0xe7>
  4032dc:	48 8b 55 e8          	mov    -0x18(%rbp),%rdx
  4032e0:	48 8b 45 f8          	mov    -0x8(%rbp),%rax
  4032e4:	48 89 d6             	mov    %rdx,%rsi
  4032e7:	48 89 c7             	mov    %rax,%rdi
  4032ea:	e8 ad 02 00 00       	callq  40359c <_ZSt9iter_swapIPiS0_EvT_T0_>
  4032ef:	c9                   	leaveq 
  4032f0:	c3                   	retq   

00000000004032f1 <_ZSt21__unguarded_partitionIPiiET_S1_S1_RKT0_>:
  4032f1:	55                   	push   %rbp
  4032f2:	48 89 e5             	mov    %rsp,%rbp
  4032f5:	48 83 ec 20          	sub    $0x20,%rsp
  4032f9:	48 89 7d f8          	mov    %rdi,-0x8(%rbp)
  4032fd:	48 89 75 f0          	mov    %rsi,-0x10(%rbp)
  403301:	48 89 55 e8          	mov    %rdx,-0x18(%rbp)
  403305:	eb 05                	jmp    40330c <_ZSt21__unguarded_partitionIPiiET_S1_S1_RKT0_+0x1b>
  403307:	48 83 45 f8 04       	addq   $0x4,-0x8(%rbp)
  40330c:	48 8b 45 f8          	mov    -0x8(%rbp),%rax
  403310:	8b 10                	mov    (%rax),%edx
  403312:	48 8b 45 e8          	mov    -0x18(%rbp),%rax
  403316:	8b 00                	mov    (%rax),%eax
  403318:	39 c2                	cmp    %eax,%edx
  40331a:	7c eb                	jl     403307 <_ZSt21__unguarded_partitionIPiiET_S1_S1_RKT0_+0x16>
  40331c:	48 83 6d f0 04       	subq   $0x4,-0x10(%rbp)
  403321:	eb 05                	jmp    403328 <_ZSt21__unguarded_partitionIPiiET_S1_S1_RKT0_+0x37>
  403323:	48 83 6d f0 04       	subq   $0x4,-0x10(%rbp)
  403328:	48 8b 45 e8          	mov    -0x18(%rbp),%rax
  40332c:	8b 10                	mov    (%rax),%edx
  40332e:	48 8b 45 f0          	mov    -0x10(%rbp),%rax
  403332:	8b 00                	mov    (%rax),%eax
  403334:	39 c2                	cmp    %eax,%edx
  403336:	7c eb                	jl     403323 <_ZSt21__unguarded_partitionIPiiET_S1_S1_RKT0_+0x32>
  403338:	48 8b 45 f8          	mov    -0x8(%rbp),%rax
  40333c:	48 3b 45 f0          	cmp    -0x10(%rbp),%rax
  403340:	72 06                	jb     403348 <_ZSt21__unguarded_partitionIPiiET_S1_S1_RKT0_+0x57>
  403342:	48 8b 45 f8          	mov    -0x8(%rbp),%rax
  403346:	eb 1b                	jmp    403363 <_ZSt21__unguarded_partitionIPiiET_S1_S1_RKT0_+0x72>
  403348:	48 8b 55 f0          	mov    -0x10(%rbp),%rdx
  40334c:	48 8b 45 f8          	mov    -0x8(%rbp),%rax
  403350:	48 89 d6             	mov    %rdx,%rsi
  403353:	48 89 c7             	mov    %rax,%rdi
  403356:	e8 41 02 00 00       	callq  40359c <_ZSt9iter_swapIPiS0_EvT_T0_>
  40335b:	48 83 45 f8 04       	addq   $0x4,-0x8(%rbp)
  403360:	90                   	nop
  403361:	eb a9                	jmp    40330c <_ZSt21__unguarded_partitionIPiiET_S1_S1_RKT0_+0x1b>
  403363:	c9                   	leaveq 
  403364:	c3                   	retq   

0000000000403365 <_ZSt13move_backwardIPiS0_ET0_T_S2_S1_>:
  403365:	55                   	push   %rbp
  403366:	48 89 e5             	mov    %rsp,%rbp
  403369:	53                   	push   %rbx
  40336a:	48 83 ec 28          	sub    $0x28,%rsp
  40336e:	48 89 7d e8          	mov    %rdi,-0x18(%rbp)
  403372:	48 89 75 e0          	mov    %rsi,-0x20(%rbp)
  403376:	48 89 55 d8          	mov    %rdx,-0x28(%rbp)
  40337a:	48 8b 45 e0          	mov    -0x20(%rbp),%rax
  40337e:	48 89 c7             	mov    %rax,%rdi
  403381:	e8 3b 02 00 00       	callq  4035c1 <_ZSt12__miter_baseIPiENSt11_Miter_baseIT_E13iterator_typeES2_>
  403386:	48 89 c3             	mov    %rax,%rbx
  403389:	48 8b 45 e8          	mov    -0x18(%rbp),%rax
  40338d:	48 89 c7             	mov    %rax,%rdi
  403390:	e8 2c 02 00 00       	callq  4035c1 <_ZSt12__miter_baseIPiENSt11_Miter_baseIT_E13iterator_typeES2_>
  403395:	48 8b 55 d8          	mov    -0x28(%rbp),%rdx
  403399:	48 89 de             	mov    %rbx,%rsi
  40339c:	48 89 c7             	mov    %rax,%rdi
  40339f:	e8 37 02 00 00       	callq  4035db <_ZSt23__copy_move_backward_a2ILb1EPiS0_ET1_T0_S2_S1_>
  4033a4:	48 83 c4 28          	add    $0x28,%rsp
  4033a8:	5b                   	pop    %rbx
  4033a9:	5d                   	pop    %rbp
  4033aa:	c3                   	retq   

00000000004033ab <_ZSt25__unguarded_linear_insertIPiEvT_>:
  4033ab:	55                   	push   %rbp
  4033ac:	48 89 e5             	mov    %rsp,%rbp
  4033af:	48 83 ec 20          	sub    $0x20,%rsp
  4033b3:	48 89 7d e8          	mov    %rdi,-0x18(%rbp)
  4033b7:	48 8b 45 e8          	mov    -0x18(%rbp),%rax
  4033bb:	48 89 c7             	mov    %rax,%rdi
  4033be:	e8 52 fc ff ff       	callq  403015 <_ZSt4moveIRiEONSt16remove_referenceIT_E4typeEOS2_>
  4033c3:	8b 00                	mov    (%rax),%eax
  4033c5:	89 45 f4             	mov    %eax,-0xc(%rbp)
  4033c8:	48 8b 45 e8          	mov    -0x18(%rbp),%rax
  4033cc:	48 89 45 f8          	mov    %rax,-0x8(%rbp)
  4033d0:	48 83 6d f8 04       	subq   $0x4,-0x8(%rbp)
  4033d5:	eb 21                	jmp    4033f8 <_ZSt25__unguarded_linear_insertIPiEvT_+0x4d>
  4033d7:	48 8b 45 f8          	mov    -0x8(%rbp),%rax
  4033db:	48 89 c7             	mov    %rax,%rdi
  4033de:	e8 32 fc ff ff       	callq  403015 <_ZSt4moveIRiEONSt16remove_referenceIT_E4typeEOS2_>
  4033e3:	8b 10                	mov    (%rax),%edx
  4033e5:	48 8b 45 e8          	mov    -0x18(%rbp),%rax
  4033e9:	89 10                	mov    %edx,(%rax)
  4033eb:	48 8b 45 f8          	mov    -0x8(%rbp),%rax
  4033ef:	48 89 45 e8          	mov    %rax,-0x18(%rbp)
  4033f3:	48 83 6d f8 04       	subq   $0x4,-0x8(%rbp)
  4033f8:	48 8b 45 f8          	mov    -0x8(%rbp),%rax
  4033fc:	8b 10                	mov    (%rax),%edx
  4033fe:	8b 45 f4             	mov    -0xc(%rbp),%eax
  403401:	39 c2                	cmp    %eax,%edx
  403403:	7f d2                	jg     4033d7 <_ZSt25__unguarded_linear_insertIPiEvT_+0x2c>
  403405:	48 8d 45 f4          	lea    -0xc(%rbp),%rax
  403409:	48 89 c7             	mov    %rax,%rdi
  40340c:	e8 04 fc ff ff       	callq  403015 <_ZSt4moveIRiEONSt16remove_referenceIT_E4typeEOS2_>
  403411:	8b 10                	mov    (%rax),%edx
  403413:	48 8b 45 e8          	mov    -0x18(%rbp),%rax
  403417:	89 10                	mov    %edx,(%rax)
  403419:	c9                   	leaveq 
  40341a:	c3                   	retq   

000000000040341b <_ZNSt8__detail4_ModImLm2147483647ELm1ELm0ELb1ELb1EE6__calcEm>:
  40341b:	55                   	push   %rbp
  40341c:	48 89 e5             	mov    %rsp,%rbp
  40341f:	48 89 7d e8          	mov    %rdi,-0x18(%rbp)
  403423:	48 8b 45 e8          	mov    -0x18(%rbp),%rax
  403427:	48 89 45 f8          	mov    %rax,-0x8(%rbp)
  40342b:	48 8b 4d f8          	mov    -0x8(%rbp),%rcx
  40342f:	48 ba 05 00 00 00 02 	movabs $0x200000005,%rdx
  403436:	00 00 00 
  403439:	48 89 c8             	mov    %rcx,%rax
  40343c:	48 f7 e2             	mul    %rdx
  40343f:	48 89 c8             	mov    %rcx,%rax
  403442:	48 29 d0             	sub    %rdx,%rax
  403445:	48 d1 e8             	shr    %rax
  403448:	48 01 d0             	add    %rdx,%rax
  40344b:	48 c1 e8 1e          	shr    $0x1e,%rax
  40344f:	48 89 c2             	mov    %rax,%rdx
  403452:	48 89 d0             	mov    %rdx,%rax
  403455:	48 c1 e0 1f          	shl    $0x1f,%rax
  403459:	48 29 d0             	sub    %rdx,%rax
  40345c:	48 29 c1             	sub    %rax,%rcx
  40345f:	48 89 c8             	mov    %rcx,%rax
  403462:	48 89 45 f8          	mov    %rax,-0x8(%rbp)
  403466:	48 8b 45 f8          	mov    -0x8(%rbp),%rax
  40346a:	5d                   	pop    %rbp
  40346b:	c3                   	retq   

000000000040346c <_ZNSt8__detail5__modImLm2147483647ELm16807ELm0EEET_S1_>:
  40346c:	55                   	push   %rbp
  40346d:	48 89 e5             	mov    %rsp,%rbp
  403470:	48 83 ec 10          	sub    $0x10,%rsp
  403474:	48 89 7d f8          	mov    %rdi,-0x8(%rbp)
  403478:	48 8b 45 f8          	mov    -0x8(%rbp),%rax
  40347c:	48 89 c7             	mov    %rax,%rdi
  40347f:	e8 af 01 00 00       	callq  403633 <_ZNSt8__detail4_ModImLm2147483647ELm16807ELm0ELb1ELb1EE6__calcEm>
  403484:	c9                   	leaveq 
  403485:	c3                   	retq   

0000000000403486 <_ZSt9make_heapIPiEvT_S1_>:
  403486:	55                   	push   %rbp
  403487:	48 89 e5             	mov    %rsp,%rbp
  40348a:	48 83 ec 30          	sub    $0x30,%rsp
  40348e:	48 89 7d d8          	mov    %rdi,-0x28(%rbp)
  403492:	48 89 75 d0          	mov    %rsi,-0x30(%rbp)
  403496:	48 8b 55 d0          	mov    -0x30(%rbp),%rdx
  40349a:	48 8b 45 d8          	mov    -0x28(%rbp),%rax
  40349e:	48 29 c2             	sub    %rax,%rdx
  4034a1:	48 89 d0             	mov    %rdx,%rax
  4034a4:	48 83 f8 07          	cmp    $0x7,%rax
  4034a8:	7f 02                	jg     4034ac <_ZSt9make_heapIPiEvT_S1_+0x26>
  4034aa:	eb 7f                	jmp    40352b <_ZSt9make_heapIPiEvT_S1_+0xa5>
  4034ac:	48 8b 55 d0          	mov    -0x30(%rbp),%rdx
  4034b0:	48 8b 45 d8          	mov    -0x28(%rbp),%rax
  4034b4:	48 29 c2             	sub    %rax,%rdx
  4034b7:	48 89 d0             	mov    %rdx,%rax
  4034ba:	48 c1 f8 02          	sar    $0x2,%rax
  4034be:	48 89 45 f0          	mov    %rax,-0x10(%rbp)
  4034c2:	48 8b 45 f0          	mov    -0x10(%rbp),%rax
  4034c6:	48 83 e8 02          	sub    $0x2,%rax
  4034ca:	48 89 c2             	mov    %rax,%rdx
  4034cd:	48 c1 ea 3f          	shr    $0x3f,%rdx
  4034d1:	48 01 d0             	add    %rdx,%rax
  4034d4:	48 d1 f8             	sar    %rax
  4034d7:	48 89 45 f8          	mov    %rax,-0x8(%rbp)
  4034db:	48 8b 45 f8          	mov    -0x8(%rbp),%rax
  4034df:	48 8d 14 85 00 00 00 	lea    0x0(,%rax,4),%rdx
  4034e6:	00 
  4034e7:	48 8b 45 d8          	mov    -0x28(%rbp),%rax
  4034eb:	48 01 d0             	add    %rdx,%rax
  4034ee:	48 89 c7             	mov    %rax,%rdi
  4034f1:	e8 1f fb ff ff       	callq  403015 <_ZSt4moveIRiEONSt16remove_referenceIT_E4typeEOS2_>
  4034f6:	8b 00                	mov    (%rax),%eax
  4034f8:	89 45 ec             	mov    %eax,-0x14(%rbp)
  4034fb:	48 8d 45 ec          	lea    -0x14(%rbp),%rax
  4034ff:	48 89 c7             	mov    %rax,%rdi
  403502:	e8 0e fb ff ff       	callq  403015 <_ZSt4moveIRiEONSt16remove_referenceIT_E4typeEOS2_>
  403507:	8b 08                	mov    (%rax),%ecx
  403509:	48 8b 55 f0          	mov    -0x10(%rbp),%rdx
  40350d:	48 8b 75 f8          	mov    -0x8(%rbp),%rsi
  403511:	48 8b 45 d8          	mov    -0x28(%rbp),%rax
  403515:	48 89 c7             	mov    %rax,%rdi
  403518:	e8 6e 01 00 00       	callq  40368b <_ZSt13__adjust_heapIPiliEvT_T0_S2_T1_>
  40351d:	48 83 7d f8 00       	cmpq   $0x0,-0x8(%rbp)
  403522:	74 07                	je     40352b <_ZSt9make_heapIPiEvT_S1_+0xa5>
  403524:	48 83 6d f8 01       	subq   $0x1,-0x8(%rbp)
  403529:	eb b0                	jmp    4034db <_ZSt9make_heapIPiEvT_S1_+0x55>
  40352b:	c9                   	leaveq 
  40352c:	c3                   	retq   

000000000040352d <_ZSt10__pop_heapIPiEvT_S1_S1_>:
  40352d:	55                   	push   %rbp
  40352e:	48 89 e5             	mov    %rsp,%rbp
  403531:	48 83 ec 30          	sub    $0x30,%rsp
  403535:	48 89 7d e8          	mov    %rdi,-0x18(%rbp)
  403539:	48 89 75 e0          	mov    %rsi,-0x20(%rbp)
  40353d:	48 89 55 d8          	mov    %rdx,-0x28(%rbp)
  403541:	48 8b 45 d8          	mov    -0x28(%rbp),%rax
  403545:	48 89 c7             	mov    %rax,%rdi
  403548:	e8 c8 fa ff ff       	callq  403015 <_ZSt4moveIRiEONSt16remove_referenceIT_E4typeEOS2_>
  40354d:	8b 00                	mov    (%rax),%eax
  40354f:	89 45 fc             	mov    %eax,-0x4(%rbp)
  403552:	48 8b 45 e8          	mov    -0x18(%rbp),%rax
  403556:	48 89 c7             	mov    %rax,%rdi
  403559:	e8 b7 fa ff ff       	callq  403015 <_ZSt4moveIRiEONSt16remove_referenceIT_E4typeEOS2_>
  40355e:	8b 10                	mov    (%rax),%edx
  403560:	48 8b 45 d8          	mov    -0x28(%rbp),%rax
  403564:	89 10                	mov    %edx,(%rax)
  403566:	48 8d 45 fc          	lea    -0x4(%rbp),%rax
  40356a:	48 89 c7             	mov    %rax,%rdi
  40356d:	e8 a3 fa ff ff       	callq  403015 <_ZSt4moveIRiEONSt16remove_referenceIT_E4typeEOS2_>
  403572:	8b 08                	mov    (%rax),%ecx
  403574:	48 8b 55 e0          	mov    -0x20(%rbp),%rdx
  403578:	48 8b 45 e8          	mov    -0x18(%rbp),%rax
  40357c:	48 29 c2             	sub    %rax,%rdx
  40357f:	48 89 d0             	mov    %rdx,%rax
  403582:	48 c1 f8 02          	sar    $0x2,%rax
  403586:	48 89 c2             	mov    %rax,%rdx
  403589:	48 8b 45 e8          	mov    -0x18(%rbp),%rax
  40358d:	be 00 00 00 00       	mov    $0x0,%esi
  403592:	48 89 c7             	mov    %rax,%rdi
  403595:	e8 f1 00 00 00       	callq  40368b <_ZSt13__adjust_heapIPiliEvT_T0_S2_T1_>
  40359a:	c9                   	leaveq 
  40359b:	c3                   	retq   

000000000040359c <_ZSt9iter_swapIPiS0_EvT_T0_>:
  40359c:	55                   	push   %rbp
  40359d:	48 89 e5             	mov    %rsp,%rbp
  4035a0:	48 83 ec 10          	sub    $0x10,%rsp
  4035a4:	48 89 7d f8          	mov    %rdi,-0x8(%rbp)
  4035a8:	48 89 75 f0          	mov    %rsi,-0x10(%rbp)
  4035ac:	48 8b 55 f0          	mov    -0x10(%rbp),%rdx
  4035b0:	48 8b 45 f8          	mov    -0x8(%rbp),%rax
  4035b4:	48 89 d6             	mov    %rdx,%rsi
  4035b7:	48 89 c7             	mov    %rax,%rdi
  4035ba:	e8 30 02 00 00       	callq  4037ef <_ZSt4swapIiEvRT_S1_>
  4035bf:	c9                   	leaveq 
  4035c0:	c3                   	retq   

00000000004035c1 <_ZSt12__miter_baseIPiENSt11_Miter_baseIT_E13iterator_typeES2_>:
  4035c1:	55                   	push   %rbp
  4035c2:	48 89 e5             	mov    %rsp,%rbp
  4035c5:	48 83 ec 10          	sub    $0x10,%rsp
  4035c9:	48 89 7d f8          	mov    %rdi,-0x8(%rbp)
  4035cd:	48 8b 45 f8          	mov    -0x8(%rbp),%rax
  4035d1:	48 89 c7             	mov    %rax,%rdi
  4035d4:	e8 61 02 00 00       	callq  40383a <_ZNSt10_Iter_baseIPiLb0EE7_S_baseES0_>
  4035d9:	c9                   	leaveq 
  4035da:	c3                   	retq   

00000000004035db <_ZSt23__copy_move_backward_a2ILb1EPiS0_ET1_T0_S2_S1_>:
  4035db:	55                   	push   %rbp
  4035dc:	48 89 e5             	mov    %rsp,%rbp
  4035df:	41 54                	push   %r12
  4035e1:	53                   	push   %rbx
  4035e2:	48 83 ec 20          	sub    $0x20,%rsp
  4035e6:	48 89 7d e8          	mov    %rdi,-0x18(%rbp)
  4035ea:	48 89 75 e0          	mov    %rsi,-0x20(%rbp)
  4035ee:	48 89 55 d8          	mov    %rdx,-0x28(%rbp)
  4035f2:	48 8b 45 d8          	mov    -0x28(%rbp),%rax
  4035f6:	48 89 c7             	mov    %rax,%rdi
  4035f9:	e8 4a 02 00 00       	callq  403848 <_ZSt12__niter_baseIPiENSt11_Niter_baseIT_E13iterator_typeES2_>
  4035fe:	49 89 c4             	mov    %rax,%r12
  403601:	48 8b 45 e0          	mov    -0x20(%rbp),%rax
  403605:	48 89 c7             	mov    %rax,%rdi
  403608:	e8 3b 02 00 00       	callq  403848 <_ZSt12__niter_baseIPiENSt11_Niter_baseIT_E13iterator_typeES2_>
  40360d:	48 89 c3             	mov    %rax,%rbx
  403610:	48 8b 45 e8          	mov    -0x18(%rbp),%rax
  403614:	48 89 c7             	mov    %rax,%rdi
  403617:	e8 2c 02 00 00       	callq  403848 <_ZSt12__niter_baseIPiENSt11_Niter_baseIT_E13iterator_typeES2_>
  40361c:	4c 89 e2             	mov    %r12,%rdx
  40361f:	48 89 de             	mov    %rbx,%rsi
  403622:	48 89 c7             	mov    %rax,%rdi
  403625:	e8 38 02 00 00       	callq  403862 <_ZSt22__copy_move_backward_aILb1EPiS0_ET1_T0_S2_S1_>
  40362a:	48 83 c4 20          	add    $0x20,%rsp
  40362e:	5b                   	pop    %rbx
  40362f:	41 5c                	pop    %r12
  403631:	5d                   	pop    %rbp
  403632:	c3                   	retq   

0000000000403633 <_ZNSt8__detail4_ModImLm2147483647ELm16807ELm0ELb1ELb1EE6__calcEm>:
  403633:	55                   	push   %rbp
  403634:	48 89 e5             	mov    %rsp,%rbp
  403637:	48 89 7d e8          	mov    %rdi,-0x18(%rbp)
  40363b:	48 8b 45 e8          	mov    -0x18(%rbp),%rax
  40363f:	48 69 c0 a7 41 00 00 	imul   $0x41a7,%rax,%rax
  403646:	48 89 45 f8          	mov    %rax,-0x8(%rbp)
  40364a:	48 8b 4d f8          	mov    -0x8(%rbp),%rcx
  40364e:	48 ba 05 00 00 00 02 	movabs $0x200000005,%rdx
  403655:	00 00 00 
  403658:	48 89 c8             	mov    %rcx,%rax
  40365b:	48 f7 e2             	mul    %rdx
  40365e:	48 89 c8             	mov    %rcx,%rax
  403661:	48 29 d0             	sub    %rdx,%rax
  403664:	48 d1 e8             	shr    %rax
  403667:	48 01 d0             	add    %rdx,%rax
  40366a:	48 c1 e8 1e          	shr    $0x1e,%rax
  40366e:	48 89 c2             	mov    %rax,%rdx
  403671:	48 89 d0             	mov    %rdx,%rax
  403674:	48 c1 e0 1f          	shl    $0x1f,%rax
  403678:	48 29 d0             	sub    %rdx,%rax
  40367b:	48 29 c1             	sub    %rax,%rcx
  40367e:	48 89 c8             	mov    %rcx,%rax
  403681:	48 89 45 f8          	mov    %rax,-0x8(%rbp)
  403685:	48 8b 45 f8          	mov    -0x8(%rbp),%rax
  403689:	5d                   	pop    %rbp
  40368a:	c3                   	retq   

000000000040368b <_ZSt13__adjust_heapIPiliEvT_T0_S2_T1_>:
  40368b:	55                   	push   %rbp
  40368c:	48 89 e5             	mov    %rsp,%rbp
  40368f:	53                   	push   %rbx
  403690:	48 83 ec 38          	sub    $0x38,%rsp
  403694:	48 89 7d d8          	mov    %rdi,-0x28(%rbp)
  403698:	48 89 75 d0          	mov    %rsi,-0x30(%rbp)
  40369c:	48 89 55 c8          	mov    %rdx,-0x38(%rbp)
  4036a0:	89 4d c4             	mov    %ecx,-0x3c(%rbp)
  4036a3:	48 8b 45 d0          	mov    -0x30(%rbp),%rax
  4036a7:	48 89 45 e0          	mov    %rax,-0x20(%rbp)
  4036ab:	48 8b 45 d0          	mov    -0x30(%rbp),%rax
  4036af:	48 89 45 e8          	mov    %rax,-0x18(%rbp)
  4036b3:	eb 7d                	jmp    403732 <_ZSt13__adjust_heapIPiliEvT_T0_S2_T1_+0xa7>
  4036b5:	48 8b 45 e8          	mov    -0x18(%rbp),%rax
  4036b9:	48 83 c0 01          	add    $0x1,%rax
  4036bd:	48 01 c0             	add    %rax,%rax
  4036c0:	48 89 45 e8          	mov    %rax,-0x18(%rbp)
  4036c4:	48 8b 45 e8          	mov    -0x18(%rbp),%rax
  4036c8:	48 8d 14 85 00 00 00 	lea    0x0(,%rax,4),%rdx
  4036cf:	00 
  4036d0:	48 8b 45 d8          	mov    -0x28(%rbp),%rax
  4036d4:	48 01 d0             	add    %rdx,%rax
  4036d7:	8b 10                	mov    (%rax),%edx
  4036d9:	48 8b 45 e8          	mov    -0x18(%rbp),%rax
  4036dd:	48 c1 e0 02          	shl    $0x2,%rax
  4036e1:	48 8d 48 fc          	lea    -0x4(%rax),%rcx
  4036e5:	48 8b 45 d8          	mov    -0x28(%rbp),%rax
  4036e9:	48 01 c8             	add    %rcx,%rax
  4036ec:	8b 00                	mov    (%rax),%eax
  4036ee:	39 c2                	cmp    %eax,%edx
  4036f0:	7d 05                	jge    4036f7 <_ZSt13__adjust_heapIPiliEvT_T0_S2_T1_+0x6c>
  4036f2:	48 83 6d e8 01       	subq   $0x1,-0x18(%rbp)
  4036f7:	48 8b 45 d0          	mov    -0x30(%rbp),%rax
  4036fb:	48 8d 14 85 00 00 00 	lea    0x0(,%rax,4),%rdx
  403702:	00 
  403703:	48 8b 45 d8          	mov    -0x28(%rbp),%rax
  403707:	48 8d 1c 02          	lea    (%rdx,%rax,1),%rbx
  40370b:	48 8b 45 e8          	mov    -0x18(%rbp),%rax
  40370f:	48 8d 14 85 00 00 00 	lea    0x0(,%rax,4),%rdx
  403716:	00 
  403717:	48 8b 45 d8          	mov    -0x28(%rbp),%rax
  40371b:	48 01 d0             	add    %rdx,%rax
  40371e:	48 89 c7             	mov    %rax,%rdi
  403721:	e8 ef f8 ff ff       	callq  403015 <_ZSt4moveIRiEONSt16remove_referenceIT_E4typeEOS2_>
  403726:	8b 00                	mov    (%rax),%eax
  403728:	89 03                	mov    %eax,(%rbx)
  40372a:	48 8b 45 e8          	mov    -0x18(%rbp),%rax
  40372e:	48 89 45 d0          	mov    %rax,-0x30(%rbp)
  403732:	48 8b 45 c8          	mov    -0x38(%rbp),%rax
  403736:	48 83 e8 01          	sub    $0x1,%rax
  40373a:	48 89 c2             	mov    %rax,%rdx
  40373d:	48 c1 ea 3f          	shr    $0x3f,%rdx
  403741:	48 01 d0             	add    %rdx,%rax
  403744:	48 d1 f8             	sar    %rax
  403747:	48 3b 45 e8          	cmp    -0x18(%rbp),%rax
  40374b:	0f 8f 64 ff ff ff    	jg     4036b5 <_ZSt13__adjust_heapIPiliEvT_T0_S2_T1_+0x2a>
  403751:	48 8b 45 c8          	mov    -0x38(%rbp),%rax
  403755:	83 e0 01             	and    $0x1,%eax
  403758:	48 85 c0             	test   %rax,%rax
  40375b:	75 69                	jne    4037c6 <_ZSt13__adjust_heapIPiliEvT_T0_S2_T1_+0x13b>
  40375d:	48 8b 45 c8          	mov    -0x38(%rbp),%rax
  403761:	48 83 e8 02          	sub    $0x2,%rax
  403765:	48 89 c2             	mov    %rax,%rdx
  403768:	48 c1 ea 3f          	shr    $0x3f,%rdx
  40376c:	48 01 d0             	add    %rdx,%rax
  40376f:	48 d1 f8             	sar    %rax
  403772:	48 3b 45 e8          	cmp    -0x18(%rbp),%rax
  403776:	75 4e                	jne    4037c6 <_ZSt13__adjust_heapIPiliEvT_T0_S2_T1_+0x13b>
  403778:	48 8b 45 e8          	mov    -0x18(%rbp),%rax
  40377c:	48 83 c0 01          	add    $0x1,%rax
  403780:	48 01 c0             	add    %rax,%rax
  403783:	48 89 45 e8          	mov    %rax,-0x18(%rbp)
  403787:	48 8b 45 d0          	mov    -0x30(%rbp),%rax
  40378b:	48 8d 14 85 00 00 00 	lea    0x0(,%rax,4),%rdx
  403792:	00 
  403793:	48 8b 45 d8          	mov    -0x28(%rbp),%rax
  403797:	48 8d 1c 02          	lea    (%rdx,%rax,1),%rbx
  40379b:	48 8b 45 e8          	mov    -0x18(%rbp),%rax
  40379f:	48 c1 e0 02          	shl    $0x2,%rax
  4037a3:	48 8d 50 fc          	lea    -0x4(%rax),%rdx
  4037a7:	48 8b 45 d8          	mov    -0x28(%rbp),%rax
  4037ab:	48 01 d0             	add    %rdx,%rax
  4037ae:	48 89 c7             	mov    %rax,%rdi
  4037b1:	e8 5f f8 ff ff       	callq  403015 <_ZSt4moveIRiEONSt16remove_referenceIT_E4typeEOS2_>
  4037b6:	8b 00                	mov    (%rax),%eax
  4037b8:	89 03                	mov    %eax,(%rbx)
  4037ba:	48 8b 45 e8          	mov    -0x18(%rbp),%rax
  4037be:	48 83 e8 01          	sub    $0x1,%rax
  4037c2:	48 89 45 d0          	mov    %rax,-0x30(%rbp)
  4037c6:	48 8d 45 c4          	lea    -0x3c(%rbp),%rax
  4037ca:	48 89 c7             	mov    %rax,%rdi
  4037cd:	e8 43 f8 ff ff       	callq  403015 <_ZSt4moveIRiEONSt16remove_referenceIT_E4typeEOS2_>
  4037d2:	8b 08                	mov    (%rax),%ecx
  4037d4:	48 8b 55 e0          	mov    -0x20(%rbp),%rdx
  4037d8:	48 8b 75 d0          	mov    -0x30(%rbp),%rsi
  4037dc:	48 8b 45 d8          	mov    -0x28(%rbp),%rax
  4037e0:	48 89 c7             	mov    %rax,%rdi
  4037e3:	e8 ab 00 00 00       	callq  403893 <_ZSt11__push_heapIPiliEvT_T0_S2_T1_>
  4037e8:	48 83 c4 38          	add    $0x38,%rsp
  4037ec:	5b                   	pop    %rbx
  4037ed:	5d                   	pop    %rbp
  4037ee:	c3                   	retq   

00000000004037ef <_ZSt4swapIiEvRT_S1_>:
  4037ef:	55                   	push   %rbp
  4037f0:	48 89 e5             	mov    %rsp,%rbp
  4037f3:	48 83 ec 20          	sub    $0x20,%rsp
  4037f7:	48 89 7d e8          	mov    %rdi,-0x18(%rbp)
  4037fb:	48 89 75 e0          	mov    %rsi,-0x20(%rbp)
  4037ff:	48 8b 45 e8          	mov    -0x18(%rbp),%rax
  403803:	48 89 c7             	mov    %rax,%rdi
  403806:	e8 0a f8 ff ff       	callq  403015 <_ZSt4moveIRiEONSt16remove_referenceIT_E4typeEOS2_>
  40380b:	8b 00                	mov    (%rax),%eax
  40380d:	89 45 fc             	mov    %eax,-0x4(%rbp)
  403810:	48 8b 45 e0          	mov    -0x20(%rbp),%rax
  403814:	48 89 c7             	mov    %rax,%rdi
  403817:	e8 f9 f7 ff ff       	callq  403015 <_ZSt4moveIRiEONSt16remove_referenceIT_E4typeEOS2_>
  40381c:	8b 10                	mov    (%rax),%edx
  40381e:	48 8b 45 e8          	mov    -0x18(%rbp),%rax
  403822:	89 10                	mov    %edx,(%rax)
  403824:	48 8d 45 fc          	lea    -0x4(%rbp),%rax
  403828:	48 89 c7             	mov    %rax,%rdi
  40382b:	e8 e5 f7 ff ff       	callq  403015 <_ZSt4moveIRiEONSt16remove_referenceIT_E4typeEOS2_>
  403830:	8b 10                	mov    (%rax),%edx
  403832:	48 8b 45 e0          	mov    -0x20(%rbp),%rax
  403836:	89 10                	mov    %edx,(%rax)
  403838:	c9                   	leaveq 
  403839:	c3                   	retq   

000000000040383a <_ZNSt10_Iter_baseIPiLb0EE7_S_baseES0_>:
  40383a:	55                   	push   %rbp
  40383b:	48 89 e5             	mov    %rsp,%rbp
  40383e:	48 89 7d f8          	mov    %rdi,-0x8(%rbp)
  403842:	48 8b 45 f8          	mov    -0x8(%rbp),%rax
  403846:	5d                   	pop    %rbp
  403847:	c3                   	retq   

0000000000403848 <_ZSt12__niter_baseIPiENSt11_Niter_baseIT_E13iterator_typeES2_>:
  403848:	55                   	push   %rbp
  403849:	48 89 e5             	mov    %rsp,%rbp
  40384c:	48 83 ec 10          	sub    $0x10,%rsp
  403850:	48 89 7d f8          	mov    %rdi,-0x8(%rbp)
  403854:	48 8b 45 f8          	mov    -0x8(%rbp),%rax
  403858:	48 89 c7             	mov    %rax,%rdi
  40385b:	e8 da ff ff ff       	callq  40383a <_ZNSt10_Iter_baseIPiLb0EE7_S_baseES0_>
  403860:	c9                   	leaveq 
  403861:	c3                   	retq   

0000000000403862 <_ZSt22__copy_move_backward_aILb1EPiS0_ET1_T0_S2_S1_>:
  403862:	55                   	push   %rbp
  403863:	48 89 e5             	mov    %rsp,%rbp
  403866:	48 83 ec 30          	sub    $0x30,%rsp
  40386a:	48 89 7d e8          	mov    %rdi,-0x18(%rbp)
  40386e:	48 89 75 e0          	mov    %rsi,-0x20(%rbp)
  403872:	48 89 55 d8          	mov    %rdx,-0x28(%rbp)
  403876:	c6 45 ff 01          	movb   $0x1,-0x1(%rbp)
  40387a:	48 8b 55 d8          	mov    -0x28(%rbp),%rdx
  40387e:	48 8b 4d e0          	mov    -0x20(%rbp),%rcx
  403882:	48 8b 45 e8          	mov    -0x18(%rbp),%rax
  403886:	48 89 ce             	mov    %rcx,%rsi
  403889:	48 89 c7             	mov    %rax,%rdi
  40388c:	e8 da 00 00 00       	callq  40396b <_ZNSt20__copy_move_backwardILb1ELb1ESt26random_access_iterator_tagE13__copy_move_bIiEEPT_PKS3_S6_S4_>
  403891:	c9                   	leaveq 
  403892:	c3                   	retq   

0000000000403893 <_ZSt11__push_heapIPiliEvT_T0_S2_T1_>:
  403893:	55                   	push   %rbp
  403894:	48 89 e5             	mov    %rsp,%rbp
  403897:	53                   	push   %rbx
  403898:	48 83 ec 38          	sub    $0x38,%rsp
  40389c:	48 89 7d d8          	mov    %rdi,-0x28(%rbp)
  4038a0:	48 89 75 d0          	mov    %rsi,-0x30(%rbp)
  4038a4:	48 89 55 c8          	mov    %rdx,-0x38(%rbp)
  4038a8:	89 4d c4             	mov    %ecx,-0x3c(%rbp)
  4038ab:	48 8b 45 d0          	mov    -0x30(%rbp),%rax
  4038af:	48 83 e8 01          	sub    $0x1,%rax
  4038b3:	48 89 c2             	mov    %rax,%rdx
  4038b6:	48 c1 ea 3f          	shr    $0x3f,%rdx
  4038ba:	48 01 d0             	add    %rdx,%rax
  4038bd:	48 d1 f8             	sar    %rax
  4038c0:	48 89 45 e8          	mov    %rax,-0x18(%rbp)
  4038c4:	eb 54                	jmp    40391a <_ZSt11__push_heapIPiliEvT_T0_S2_T1_+0x87>
  4038c6:	48 8b 45 d0          	mov    -0x30(%rbp),%rax
  4038ca:	48 8d 14 85 00 00 00 	lea    0x0(,%rax,4),%rdx
  4038d1:	00 
  4038d2:	48 8b 45 d8          	mov    -0x28(%rbp),%rax
  4038d6:	48 8d 1c 02          	lea    (%rdx,%rax,1),%rbx
  4038da:	48 8b 45 e8          	mov    -0x18(%rbp),%rax
  4038de:	48 8d 14 85 00 00 00 	lea    0x0(,%rax,4),%rdx
  4038e5:	00 
  4038e6:	48 8b 45 d8          	mov    -0x28(%rbp),%rax
  4038ea:	48 01 d0             	add    %rdx,%rax
  4038ed:	48 89 c7             	mov    %rax,%rdi
  4038f0:	e8 20 f7 ff ff       	callq  403015 <_ZSt4moveIRiEONSt16remove_referenceIT_E4typeEOS2_>
  4038f5:	8b 00                	mov    (%rax),%eax
  4038f7:	89 03                	mov    %eax,(%rbx)
  4038f9:	48 8b 45 e8          	mov    -0x18(%rbp),%rax
  4038fd:	48 89 45 d0          	mov    %rax,-0x30(%rbp)
  403901:	48 8b 45 d0          	mov    -0x30(%rbp),%rax
  403905:	48 83 e8 01          	sub    $0x1,%rax
  403909:	48 89 c2             	mov    %rax,%rdx
  40390c:	48 c1 ea 3f          	shr    $0x3f,%rdx
  403910:	48 01 d0             	add    %rdx,%rax
  403913:	48 d1 f8             	sar    %rax
  403916:	48 89 45 e8          	mov    %rax,-0x18(%rbp)
  40391a:	48 8b 45 d0          	mov    -0x30(%rbp),%rax
  40391e:	48 3b 45 c8          	cmp    -0x38(%rbp),%rax
  403922:	7e 1c                	jle    403940 <_ZSt11__push_heapIPiliEvT_T0_S2_T1_+0xad>
  403924:	48 8b 45 e8          	mov    -0x18(%rbp),%rax
  403928:	48 8d 14 85 00 00 00 	lea    0x0(,%rax,4),%rdx
  40392f:	00 
  403930:	48 8b 45 d8          	mov    -0x28(%rbp),%rax
  403934:	48 01 d0             	add    %rdx,%rax
  403937:	8b 10                	mov    (%rax),%edx
  403939:	8b 45 c4             	mov    -0x3c(%rbp),%eax
  40393c:	39 c2                	cmp    %eax,%edx
  40393e:	7c 86                	jl     4038c6 <_ZSt11__push_heapIPiliEvT_T0_S2_T1_+0x33>
  403940:	48 8b 45 d0          	mov    -0x30(%rbp),%rax
  403944:	48 8d 14 85 00 00 00 	lea    0x0(,%rax,4),%rdx
  40394b:	00 
  40394c:	48 8b 45 d8          	mov    -0x28(%rbp),%rax
  403950:	48 8d 1c 02          	lea    (%rdx,%rax,1),%rbx
  403954:	48 8d 45 c4          	lea    -0x3c(%rbp),%rax
  403958:	48 89 c7             	mov    %rax,%rdi
  40395b:	e8 b5 f6 ff ff       	callq  403015 <_ZSt4moveIRiEONSt16remove_referenceIT_E4typeEOS2_>
  403960:	8b 00                	mov    (%rax),%eax
  403962:	89 03                	mov    %eax,(%rbx)
  403964:	48 83 c4 38          	add    $0x38,%rsp
  403968:	5b                   	pop    %rbx
  403969:	5d                   	pop    %rbp
  40396a:	c3                   	retq   

000000000040396b <_ZNSt20__copy_move_backwardILb1ELb1ESt26random_access_iterator_tagE13__copy_move_bIiEEPT_PKS3_S6_S4_>:
  40396b:	55                   	push   %rbp
  40396c:	48 89 e5             	mov    %rsp,%rbp
  40396f:	48 83 ec 30          	sub    $0x30,%rsp
  403973:	48 89 7d e8          	mov    %rdi,-0x18(%rbp)
  403977:	48 89 75 e0          	mov    %rsi,-0x20(%rbp)
  40397b:	48 89 55 d8          	mov    %rdx,-0x28(%rbp)
  40397f:	48 8b 55 e0          	mov    -0x20(%rbp),%rdx
  403983:	48 8b 45 e8          	mov    -0x18(%rbp),%rax
  403987:	48 29 c2             	sub    %rax,%rdx
  40398a:	48 89 d0             	mov    %rdx,%rax
  40398d:	48 c1 f8 02          	sar    $0x2,%rax
  403991:	48 89 45 f8          	mov    %rax,-0x8(%rbp)
  403995:	48 83 7d f8 00       	cmpq   $0x0,-0x8(%rbp)
  40399a:	74 30                	je     4039cc <_ZNSt20__copy_move_backwardILb1ELb1ESt26random_access_iterator_tagE13__copy_move_bIiEEPT_PKS3_S6_S4_+0x61>
  40399c:	48 8b 45 f8          	mov    -0x8(%rbp),%rax
  4039a0:	48 8d 14 85 00 00 00 	lea    0x0(,%rax,4),%rdx
  4039a7:	00 
  4039a8:	48 8b 45 f8          	mov    -0x8(%rbp),%rax
  4039ac:	48 c1 e0 02          	shl    $0x2,%rax
  4039b0:	48 f7 d8             	neg    %rax
  4039b3:	48 89 c1             	mov    %rax,%rcx
  4039b6:	48 8b 45 d8          	mov    -0x28(%rbp),%rax
  4039ba:	48 01 c1             	add    %rax,%rcx
  4039bd:	48 8b 45 e8          	mov    -0x18(%rbp),%rax
  4039c1:	48 89 c6             	mov    %rax,%rsi
  4039c4:	48 89 cf             	mov    %rcx,%rdi
  4039c7:	e8 44 ce ff ff       	callq  400810 <memmove@plt>
  4039cc:	48 8b 45 f8          	mov    -0x8(%rbp),%rax
  4039d0:	48 c1 e0 02          	shl    $0x2,%rax
  4039d4:	48 f7 d8             	neg    %rax
  4039d7:	48 89 c2             	mov    %rax,%rdx
  4039da:	48 8b 45 d8          	mov    -0x28(%rbp),%rax
  4039de:	48 01 d0             	add    %rdx,%rax
  4039e1:	c9                   	leaveq 
  4039e2:	c3                   	retq   
  4039e3:	66 2e 0f 1f 84 00 00 	nopw   %cs:0x0(%rax,%rax,1)
  4039ea:	00 00 00 
  4039ed:	0f 1f 00             	nopl   (%rax)

00000000004039f0 <__libc_csu_init>:
  4039f0:	41 57                	push   %r15
  4039f2:	41 56                	push   %r14
  4039f4:	41 89 ff             	mov    %edi,%r15d
  4039f7:	41 55                	push   %r13
  4039f9:	41 54                	push   %r12
  4039fb:	4c 8d 25 c6 13 20 00 	lea    0x2013c6(%rip),%r12        # 604dc8 <__frame_dummy_init_array_entry>
  403a02:	55                   	push   %rbp
  403a03:	48 8d 2d c6 13 20 00 	lea    0x2013c6(%rip),%rbp        # 604dd0 <__init_array_end>
  403a0a:	53                   	push   %rbx
  403a0b:	49 89 f6             	mov    %rsi,%r14
  403a0e:	49 89 d5             	mov    %rdx,%r13
  403a11:	4c 29 e5             	sub    %r12,%rbp
  403a14:	48 83 ec 08          	sub    $0x8,%rsp
  403a18:	48 c1 fd 03          	sar    $0x3,%rbp
  403a1c:	e8 0f cd ff ff       	callq  400730 <_init>
  403a21:	48 85 ed             	test   %rbp,%rbp
  403a24:	74 20                	je     403a46 <__libc_csu_init+0x56>
  403a26:	31 db                	xor    %ebx,%ebx
  403a28:	0f 1f 84 00 00 00 00 	nopl   0x0(%rax,%rax,1)
  403a2f:	00 
  403a30:	4c 89 ea             	mov    %r13,%rdx
  403a33:	4c 89 f6             	mov    %r14,%rsi
  403a36:	44 89 ff             	mov    %r15d,%edi
  403a39:	41 ff 14 dc          	callq  *(%r12,%rbx,8)
  403a3d:	48 83 c3 01          	add    $0x1,%rbx
  403a41:	48 39 dd             	cmp    %rbx,%rbp
  403a44:	75 ea                	jne    403a30 <__libc_csu_init+0x40>
  403a46:	48 83 c4 08          	add    $0x8,%rsp
  403a4a:	5b                   	pop    %rbx
  403a4b:	5d                   	pop    %rbp
  403a4c:	41 5c                	pop    %r12
  403a4e:	41 5d                	pop    %r13
  403a50:	41 5e                	pop    %r14
  403a52:	41 5f                	pop    %r15
  403a54:	c3                   	retq   
  403a55:	90                   	nop
  403a56:	66 2e 0f 1f 84 00 00 	nopw   %cs:0x0(%rax,%rax,1)
  403a5d:	00 00 00 

0000000000403a60 <__libc_csu_fini>:
  403a60:	f3 c3                	repz retq 

Disassembly of section .fini:

0000000000403a64 <_fini>:
  403a64:	48 83 ec 08          	sub    $0x8,%rsp
  403a68:	48 83 c4 08          	add    $0x8,%rsp
  403a6c:	c3                   	retq   
