
bench:     file format elf64-x86-64


Disassembly of section .init:

0000000000400730 <_init>:
  400730:	48 83 ec 08          	sub    $0x8,%rsp
  400734:	48 8b 05 bd 48 20 00 	mov    0x2048bd(%rip),%rax        # 604ff8 <__gmon_start__>
  40073b:	48 85 c0             	test   %rax,%rax
  40073e:	74 02                	je     400742 <_init+0x12>
  400740:	ff d0                	callq  *%rax
  400742:	48 83 c4 08          	add    $0x8,%rsp
  400746:	c3                   	retq   

Disassembly of section .plt:

0000000000400750 <.plt>:
  400750:	ff 35 b2 48 20 00    	pushq  0x2048b2(%rip)        # 605008 <_GLOBAL_OFFSET_TABLE_+0x8>
  400756:	ff 25 b4 48 20 00    	jmpq   *0x2048b4(%rip)        # 605010 <_GLOBAL_OFFSET_TABLE_+0x10>
  40075c:	0f 1f 40 00          	nopl   0x0(%rax)

0000000000400760 <printf@plt>:
  400760:	ff 25 b2 48 20 00    	jmpq   *0x2048b2(%rip)        # 605018 <printf@GLIBC_2.2.5>
  400766:	68 00 00 00 00       	pushq  $0x0
  40076b:	e9 e0 ff ff ff       	jmpq   400750 <.plt>

0000000000400770 <getopt@plt>:
  400770:	ff 25 aa 48 20 00    	jmpq   *0x2048aa(%rip)        # 605020 <getopt@GLIBC_2.2.5>
  400776:	68 01 00 00 00       	pushq  $0x1
  40077b:	e9 d0 ff ff ff       	jmpq   400750 <.plt>

0000000000400780 <rand@plt>:
  400780:	ff 25 a2 48 20 00    	jmpq   *0x2048a2(%rip)        # 605028 <rand@GLIBC_2.2.5>
  400786:	68 02 00 00 00       	pushq  $0x2
  40078b:	e9 c0 ff ff ff       	jmpq   400750 <.plt>

0000000000400790 <pthread_join@plt>:
  400790:	ff 25 9a 48 20 00    	jmpq   *0x20489a(%rip)        # 605030 <pthread_join@GLIBC_2.2.5>
  400796:	68 03 00 00 00       	pushq  $0x3
  40079b:	e9 b0 ff ff ff       	jmpq   400750 <.plt>

00000000004007a0 <pthread_create@plt>:
  4007a0:	ff 25 92 48 20 00    	jmpq   *0x204892(%rip)        # 605038 <pthread_create@GLIBC_2.2.5>
  4007a6:	68 04 00 00 00       	pushq  $0x4
  4007ab:	e9 a0 ff ff ff       	jmpq   400750 <.plt>

00000000004007b0 <sched_setaffinity@plt>:
  4007b0:	ff 25 8a 48 20 00    	jmpq   *0x20488a(%rip)        # 605040 <sched_setaffinity@GLIBC_2.3.4>
  4007b6:	68 05 00 00 00       	pushq  $0x5
  4007bb:	e9 90 ff ff ff       	jmpq   400750 <.plt>

00000000004007c0 <pthread_self@plt>:
  4007c0:	ff 25 82 48 20 00    	jmpq   *0x204882(%rip)        # 605048 <pthread_self@GLIBC_2.2.5>
  4007c6:	68 06 00 00 00       	pushq  $0x6
  4007cb:	e9 80 ff ff ff       	jmpq   400750 <.plt>

00000000004007d0 <exit@plt>:
  4007d0:	ff 25 7a 48 20 00    	jmpq   *0x20487a(%rip)        # 605050 <exit@GLIBC_2.2.5>
  4007d6:	68 07 00 00 00       	pushq  $0x7
  4007db:	e9 70 ff ff ff       	jmpq   400750 <.plt>

00000000004007e0 <strcmp@plt>:
  4007e0:	ff 25 72 48 20 00    	jmpq   *0x204872(%rip)        # 605058 <strcmp@GLIBC_2.2.5>
  4007e6:	68 08 00 00 00       	pushq  $0x8
  4007eb:	e9 60 ff ff ff       	jmpq   400750 <.plt>

00000000004007f0 <getpid@plt>:
  4007f0:	ff 25 6a 48 20 00    	jmpq   *0x20486a(%rip)        # 605060 <getpid@GLIBC_2.2.5>
  4007f6:	68 09 00 00 00       	pushq  $0x9
  4007fb:	e9 50 ff ff ff       	jmpq   400750 <.plt>

0000000000400800 <pthread_setaffinity_np@plt>:
  400800:	ff 25 62 48 20 00    	jmpq   *0x204862(%rip)        # 605068 <pthread_setaffinity_np@GLIBC_2.3.4>
  400806:	68 0a 00 00 00       	pushq  $0xa
  40080b:	e9 40 ff ff ff       	jmpq   400750 <.plt>

0000000000400810 <memmove@plt>:
  400810:	ff 25 5a 48 20 00    	jmpq   *0x20485a(%rip)        # 605070 <memmove@GLIBC_2.2.5>
  400816:	68 0b 00 00 00       	pushq  $0xb
  40081b:	e9 30 ff ff ff       	jmpq   400750 <.plt>

Disassembly of section .text:

0000000000400820 <_start>:
  400820:	31 ed                	xor    %ebp,%ebp
  400822:	49 89 d1             	mov    %rdx,%r9
  400825:	5e                   	pop    %rsi
  400826:	48 89 e2             	mov    %rsp,%rdx
  400829:	48 83 e4 f0          	and    $0xfffffffffffffff0,%rsp
  40082d:	50                   	push   %rax
  40082e:	54                   	push   %rsp
  40082f:	49 c7 c0 60 39 40 00 	mov    $0x403960,%r8
  400836:	48 c7 c1 f0 38 40 00 	mov    $0x4038f0,%rcx
  40083d:	48 c7 c7 c0 0a 40 00 	mov    $0x400ac0,%rdi
  400844:	ff 15 a6 47 20 00    	callq  *0x2047a6(%rip)        # 604ff0 <__libc_start_main@GLIBC_2.2.5>
  40084a:	f4                   	hlt    
  40084b:	0f 1f 44 00 00       	nopl   0x0(%rax,%rax,1)

0000000000400850 <deregister_tm_clones>:
  400850:	b8 8f 50 60 00       	mov    $0x60508f,%eax
  400855:	55                   	push   %rbp
  400856:	48 2d 88 50 60 00    	sub    $0x605088,%rax
  40085c:	48 83 f8 0e          	cmp    $0xe,%rax
  400860:	48 89 e5             	mov    %rsp,%rbp
  400863:	77 02                	ja     400867 <deregister_tm_clones+0x17>
  400865:	5d                   	pop    %rbp
  400866:	c3                   	retq   
  400867:	b8 00 00 00 00       	mov    $0x0,%eax
  40086c:	48 85 c0             	test   %rax,%rax
  40086f:	74 f4                	je     400865 <deregister_tm_clones+0x15>
  400871:	5d                   	pop    %rbp
  400872:	bf 88 50 60 00       	mov    $0x605088,%edi
  400877:	ff e0                	jmpq   *%rax
  400879:	0f 1f 80 00 00 00 00 	nopl   0x0(%rax)

0000000000400880 <register_tm_clones>:
  400880:	b8 88 50 60 00       	mov    $0x605088,%eax
  400885:	55                   	push   %rbp
  400886:	48 2d 88 50 60 00    	sub    $0x605088,%rax
  40088c:	48 c1 f8 03          	sar    $0x3,%rax
  400890:	48 89 e5             	mov    %rsp,%rbp
  400893:	48 89 c2             	mov    %rax,%rdx
  400896:	48 c1 ea 3f          	shr    $0x3f,%rdx
  40089a:	48 01 d0             	add    %rdx,%rax
  40089d:	48 d1 f8             	sar    %rax
  4008a0:	75 02                	jne    4008a4 <register_tm_clones+0x24>
  4008a2:	5d                   	pop    %rbp
  4008a3:	c3                   	retq   
  4008a4:	ba 00 00 00 00       	mov    $0x0,%edx
  4008a9:	48 85 d2             	test   %rdx,%rdx
  4008ac:	74 f4                	je     4008a2 <register_tm_clones+0x22>
  4008ae:	5d                   	pop    %rbp
  4008af:	48 89 c6             	mov    %rax,%rsi
  4008b2:	bf 88 50 60 00       	mov    $0x605088,%edi
  4008b7:	ff e2                	jmpq   *%rdx
  4008b9:	0f 1f 80 00 00 00 00 	nopl   0x0(%rax)

00000000004008c0 <__do_global_dtors_aux>:
  4008c0:	80 3d cd 47 20 00 00 	cmpb   $0x0,0x2047cd(%rip)        # 605094 <completed.6373>
  4008c7:	75 11                	jne    4008da <__do_global_dtors_aux+0x1a>
  4008c9:	55                   	push   %rbp
  4008ca:	48 89 e5             	mov    %rsp,%rbp
  4008cd:	e8 7e ff ff ff       	callq  400850 <deregister_tm_clones>
  4008d2:	5d                   	pop    %rbp
  4008d3:	c6 05 ba 47 20 00 01 	movb   $0x1,0x2047ba(%rip)        # 605094 <completed.6373>
  4008da:	f3 c3                	repz retq 
  4008dc:	0f 1f 40 00          	nopl   0x0(%rax)

00000000004008e0 <frame_dummy>:
  4008e0:	48 83 3d f0 44 20 00 	cmpq   $0x0,0x2044f0(%rip)        # 604dd8 <__JCR_END__>
  4008e7:	00 
  4008e8:	74 1e                	je     400908 <frame_dummy+0x28>
  4008ea:	b8 00 00 00 00       	mov    $0x0,%eax
  4008ef:	48 85 c0             	test   %rax,%rax
  4008f2:	74 14                	je     400908 <frame_dummy+0x28>
  4008f4:	55                   	push   %rbp
  4008f5:	bf d8 4d 60 00       	mov    $0x604dd8,%edi
  4008fa:	48 89 e5             	mov    %rsp,%rbp
  4008fd:	ff d0                	callq  *%rax
  4008ff:	5d                   	pop    %rbp
  400900:	e9 7b ff ff ff       	jmpq   400880 <register_tm_clones>
  400905:	0f 1f 00             	nopl   (%rax)
  400908:	e9 73 ff ff ff       	jmpq   400880 <register_tm_clones>

000000000040090d <_Z7set_cpui>:
  40090d:	55                   	push   %rbp
  40090e:	48 89 e5             	mov    %rsp,%rbp
  400911:	53                   	push   %rbx
  400912:	48 81 ec a8 00 00 00 	sub    $0xa8,%rsp
  400919:	89 bd 5c ff ff ff    	mov    %edi,-0xa4(%rbp)
  40091f:	48 8d 85 60 ff ff ff 	lea    -0xa0(%rbp),%rax
  400926:	48 89 c6             	mov    %rax,%rsi
  400929:	b8 00 00 00 00       	mov    $0x0,%eax
  40092e:	ba 10 00 00 00       	mov    $0x10,%edx
  400933:	48 89 f7             	mov    %rsi,%rdi
  400936:	48 89 d1             	mov    %rdx,%rcx
  400939:	f3 48 ab             	rep stos %rax,%es:(%rdi)
  40093c:	8b 85 5c ff ff ff    	mov    -0xa4(%rbp),%eax
  400942:	48 98                	cltq   
  400944:	48 89 45 e8          	mov    %rax,-0x18(%rbp)
  400948:	48 8b 45 e8          	mov    -0x18(%rbp),%rax
  40094c:	48 c1 e8 03          	shr    $0x3,%rax
  400950:	48 3d 80 00 00 00    	cmp    $0x80,%rax
  400956:	73 48                	jae    4009a0 <_Z7set_cpui+0x93>
  400958:	bb 40 00 00 00       	mov    $0x40,%ebx
  40095d:	48 8b 45 e8          	mov    -0x18(%rbp),%rax
  400961:	ba 00 00 00 00       	mov    $0x0,%edx
  400966:	48 f7 f3             	div    %rbx
  400969:	48 89 c6             	mov    %rax,%rsi
  40096c:	48 8b bc f5 60 ff ff 	mov    -0xa0(%rbp,%rsi,8),%rdi
  400973:	ff 
  400974:	b9 40 00 00 00       	mov    $0x40,%ecx
  400979:	48 8b 45 e8          	mov    -0x18(%rbp),%rax
  40097d:	ba 00 00 00 00       	mov    $0x0,%edx
  400982:	48 f7 f1             	div    %rcx
  400985:	48 89 d0             	mov    %rdx,%rax
  400988:	ba 01 00 00 00       	mov    $0x1,%edx
  40098d:	89 c1                	mov    %eax,%ecx
  40098f:	48 d3 e2             	shl    %cl,%rdx
  400992:	48 89 d0             	mov    %rdx,%rax
  400995:	48 09 f8             	or     %rdi,%rax
  400998:	48 89 84 f5 60 ff ff 	mov    %rax,-0xa0(%rbp,%rsi,8)
  40099f:	ff 
  4009a0:	e8 4b fe ff ff       	callq  4007f0 <getpid@plt>
  4009a5:	48 8d 95 60 ff ff ff 	lea    -0xa0(%rbp),%rdx
  4009ac:	be 80 00 00 00       	mov    $0x80,%esi
  4009b1:	89 c7                	mov    %eax,%edi
  4009b3:	e8 f8 fd ff ff       	callq  4007b0 <sched_setaffinity@plt>
  4009b8:	c1 e8 1f             	shr    $0x1f,%eax
  4009bb:	84 c0                	test   %al,%al
  4009bd:	74 17                	je     4009d6 <_Z7set_cpui+0xc9>
  4009bf:	8b 85 5c ff ff ff    	mov    -0xa4(%rbp),%eax
  4009c5:	89 c6                	mov    %eax,%esi
  4009c7:	bf 78 39 40 00       	mov    $0x403978,%edi
  4009cc:	b8 00 00 00 00       	mov    $0x0,%eax
  4009d1:	e8 8a fd ff ff       	callq  400760 <printf@plt>
  4009d6:	8b 85 5c ff ff ff    	mov    -0xa4(%rbp),%eax
  4009dc:	48 81 c4 a8 00 00 00 	add    $0xa8,%rsp
  4009e3:	5b                   	pop    %rbx
  4009e4:	5d                   	pop    %rbp
  4009e5:	c3                   	retq   

00000000004009e6 <_Z14set_thread_cpui>:
  4009e6:	55                   	push   %rbp
  4009e7:	48 89 e5             	mov    %rsp,%rbp
  4009ea:	53                   	push   %rbx
  4009eb:	48 81 ec a8 00 00 00 	sub    $0xa8,%rsp
  4009f2:	89 bd 5c ff ff ff    	mov    %edi,-0xa4(%rbp)
  4009f8:	48 8d 85 60 ff ff ff 	lea    -0xa0(%rbp),%rax
  4009ff:	48 89 c6             	mov    %rax,%rsi
  400a02:	b8 00 00 00 00       	mov    $0x0,%eax
  400a07:	ba 10 00 00 00       	mov    $0x10,%edx
  400a0c:	48 89 f7             	mov    %rsi,%rdi
  400a0f:	48 89 d1             	mov    %rdx,%rcx
  400a12:	f3 48 ab             	rep stos %rax,%es:(%rdi)
  400a15:	8b 85 5c ff ff ff    	mov    -0xa4(%rbp),%eax
  400a1b:	48 98                	cltq   
  400a1d:	48 89 45 e8          	mov    %rax,-0x18(%rbp)
  400a21:	48 8b 45 e8          	mov    -0x18(%rbp),%rax
  400a25:	48 c1 e8 03          	shr    $0x3,%rax
  400a29:	48 3d 80 00 00 00    	cmp    $0x80,%rax
  400a2f:	73 48                	jae    400a79 <_Z14set_thread_cpui+0x93>
  400a31:	bb 40 00 00 00       	mov    $0x40,%ebx
  400a36:	48 8b 45 e8          	mov    -0x18(%rbp),%rax
  400a3a:	ba 00 00 00 00       	mov    $0x0,%edx
  400a3f:	48 f7 f3             	div    %rbx
  400a42:	48 89 c6             	mov    %rax,%rsi
  400a45:	48 8b bc f5 60 ff ff 	mov    -0xa0(%rbp,%rsi,8),%rdi
  400a4c:	ff 
  400a4d:	b9 40 00 00 00       	mov    $0x40,%ecx
  400a52:	48 8b 45 e8          	mov    -0x18(%rbp),%rax
  400a56:	ba 00 00 00 00       	mov    $0x0,%edx
  400a5b:	48 f7 f1             	div    %rcx
  400a5e:	48 89 d0             	mov    %rdx,%rax
  400a61:	ba 01 00 00 00       	mov    $0x1,%edx
  400a66:	89 c1                	mov    %eax,%ecx
  400a68:	48 d3 e2             	shl    %cl,%rdx
  400a6b:	48 89 d0             	mov    %rdx,%rax
  400a6e:	48 09 f8             	or     %rdi,%rax
  400a71:	48 89 84 f5 60 ff ff 	mov    %rax,-0xa0(%rbp,%rsi,8)
  400a78:	ff 
  400a79:	e8 42 fd ff ff       	callq  4007c0 <pthread_self@plt>
  400a7e:	48 8d 95 60 ff ff ff 	lea    -0xa0(%rbp),%rdx
  400a85:	be 80 00 00 00       	mov    $0x80,%esi
  400a8a:	48 89 c7             	mov    %rax,%rdi
  400a8d:	e8 6e fd ff ff       	callq  400800 <pthread_setaffinity_np@plt>
  400a92:	c1 e8 1f             	shr    $0x1f,%eax
  400a95:	84 c0                	test   %al,%al
  400a97:	74 17                	je     400ab0 <_Z14set_thread_cpui+0xca>
  400a99:	8b 85 5c ff ff ff    	mov    -0xa4(%rbp),%eax
  400a9f:	89 c6                	mov    %eax,%esi
  400aa1:	bf b0 39 40 00       	mov    $0x4039b0,%edi
  400aa6:	b8 00 00 00 00       	mov    $0x0,%eax
  400aab:	e8 b0 fc ff ff       	callq  400760 <printf@plt>
  400ab0:	8b 85 5c ff ff ff    	mov    -0xa4(%rbp),%eax
  400ab6:	48 81 c4 a8 00 00 00 	add    $0xa8,%rsp
  400abd:	5b                   	pop    %rbx
  400abe:	5d                   	pop    %rbp
  400abf:	c3                   	retq   

0000000000400ac0 <main>:
  400ac0:	55                   	push   %rbp
  400ac1:	48 89 e5             	mov    %rsp,%rbp
  400ac4:	48 83 ec 30          	sub    $0x30,%rsp
  400ac8:	89 7d dc             	mov    %edi,-0x24(%rbp)
  400acb:	48 89 75 d0          	mov    %rsi,-0x30(%rbp)
  400acf:	c7 45 fc 01 00 00 00 	movl   $0x1,-0x4(%rbp)
  400ad6:	eb 0f                	jmp    400ae7 <main+0x27>
  400ad8:	8b 45 e4             	mov    -0x1c(%rbp),%eax
  400adb:	83 f8 73             	cmp    $0x73,%eax
  400ade:	75 07                	jne    400ae7 <main+0x27>
  400ae0:	c7 45 fc 00 00 00 00 	movl   $0x0,-0x4(%rbp)
  400ae7:	48 8b 4d d0          	mov    -0x30(%rbp),%rcx
  400aeb:	8b 45 dc             	mov    -0x24(%rbp),%eax
  400aee:	ba e0 39 40 00       	mov    $0x4039e0,%edx
  400af3:	48 89 ce             	mov    %rcx,%rsi
  400af6:	89 c7                	mov    %eax,%edi
  400af8:	e8 73 fc ff ff       	callq  400770 <getopt@plt>
  400afd:	89 45 e4             	mov    %eax,-0x1c(%rbp)
  400b00:	83 7d e4 ff          	cmpl   $0xffffffff,-0x1c(%rbp)
  400b04:	0f 95 c0             	setne  %al
  400b07:	84 c0                	test   %al,%al
  400b09:	75 cd                	jne    400ad8 <main+0x18>
  400b0b:	8b 05 7f 45 20 00    	mov    0x20457f(%rip),%eax        # 605090 <optind@@GLIBC_2.2.5>
  400b11:	39 45 dc             	cmp    %eax,-0x24(%rbp)
  400b14:	7f 23                	jg     400b39 <main+0x79>
  400b16:	48 8b 45 d0          	mov    -0x30(%rbp),%rax
  400b1a:	48 8b 00             	mov    (%rax),%rax
  400b1d:	48 89 c6             	mov    %rax,%rsi
  400b20:	bf e2 39 40 00       	mov    $0x4039e2,%edi
  400b25:	b8 00 00 00 00       	mov    $0x0,%eax
  400b2a:	e8 31 fc ff ff       	callq  400760 <printf@plt>
  400b2f:	bf 01 00 00 00       	mov    $0x1,%edi
  400b34:	e8 97 fc ff ff       	callq  4007d0 <exit@plt>
  400b39:	8b 05 51 45 20 00    	mov    0x204551(%rip),%eax        # 605090 <optind@@GLIBC_2.2.5>
  400b3f:	48 98                	cltq   
  400b41:	48 8d 14 c5 00 00 00 	lea    0x0(,%rax,8),%rdx
  400b48:	00 
  400b49:	48 8b 45 d0          	mov    -0x30(%rbp),%rax
  400b4d:	48 01 d0             	add    %rdx,%rax
  400b50:	48 8b 00             	mov    (%rax),%rax
  400b53:	be fc 39 40 00       	mov    $0x4039fc,%esi
  400b58:	48 89 c7             	mov    %rax,%rdi
  400b5b:	e8 80 fc ff ff       	callq  4007e0 <strcmp@plt>
  400b60:	85 c0                	test   %eax,%eax
  400b62:	75 0d                	jne    400b71 <main+0xb1>
  400b64:	48 c7 45 f0 08 0e 40 	movq   $0x400e08,-0x10(%rbp)
  400b6b:	00 
  400b6c:	e9 c5 00 00 00       	jmpq   400c36 <main+0x176>
  400b71:	8b 05 19 45 20 00    	mov    0x204519(%rip),%eax        # 605090 <optind@@GLIBC_2.2.5>
  400b77:	48 98                	cltq   
  400b79:	48 8d 14 c5 00 00 00 	lea    0x0(,%rax,8),%rdx
  400b80:	00 
  400b81:	48 8b 45 d0          	mov    -0x30(%rbp),%rax
  400b85:	48 01 d0             	add    %rdx,%rax
  400b88:	48 8b 00             	mov    (%rax),%rax
  400b8b:	be 08 3a 40 00       	mov    $0x403a08,%esi
  400b90:	48 89 c7             	mov    %rax,%rdi
  400b93:	e8 48 fc ff ff       	callq  4007e0 <strcmp@plt>
  400b98:	85 c0                	test   %eax,%eax
  400b9a:	75 0d                	jne    400ba9 <main+0xe9>
  400b9c:	48 c7 45 f0 08 0e 40 	movq   $0x400e08,-0x10(%rbp)
  400ba3:	00 
  400ba4:	e9 8d 00 00 00       	jmpq   400c36 <main+0x176>
  400ba9:	8b 05 e1 44 20 00    	mov    0x2044e1(%rip),%eax        # 605090 <optind@@GLIBC_2.2.5>
  400baf:	48 98                	cltq   
  400bb1:	48 8d 14 c5 00 00 00 	lea    0x0(,%rax,8),%rdx
  400bb8:	00 
  400bb9:	48 8b 45 d0          	mov    -0x30(%rbp),%rax
  400bbd:	48 01 d0             	add    %rdx,%rax
  400bc0:	48 8b 00             	mov    (%rax),%rax
  400bc3:	be 14 3a 40 00       	mov    $0x403a14,%esi
  400bc8:	48 89 c7             	mov    %rax,%rdi
  400bcb:	e8 10 fc ff ff       	callq  4007e0 <strcmp@plt>
  400bd0:	85 c0                	test   %eax,%eax
  400bd2:	75 0a                	jne    400bde <main+0x11e>
  400bd4:	48 c7 45 f0 08 0e 40 	movq   $0x400e08,-0x10(%rbp)
  400bdb:	00 
  400bdc:	eb 58                	jmp    400c36 <main+0x176>
  400bde:	8b 05 ac 44 20 00    	mov    0x2044ac(%rip),%eax        # 605090 <optind@@GLIBC_2.2.5>
  400be4:	48 98                	cltq   
  400be6:	48 8d 14 c5 00 00 00 	lea    0x0(,%rax,8),%rdx
  400bed:	00 
  400bee:	48 8b 45 d0          	mov    -0x30(%rbp),%rax
  400bf2:	48 01 d0             	add    %rdx,%rax
  400bf5:	48 8b 00             	mov    (%rax),%rax
  400bf8:	be 20 3a 40 00       	mov    $0x403a20,%esi
  400bfd:	48 89 c7             	mov    %rax,%rdi
  400c00:	e8 db fb ff ff       	callq  4007e0 <strcmp@plt>
  400c05:	85 c0                	test   %eax,%eax
  400c07:	75 0a                	jne    400c13 <main+0x153>
  400c09:	48 c7 45 f0 08 0e 40 	movq   $0x400e08,-0x10(%rbp)
  400c10:	00 
  400c11:	eb 23                	jmp    400c36 <main+0x176>
  400c13:	48 8b 45 d0          	mov    -0x30(%rbp),%rax
  400c17:	48 8b 00             	mov    (%rax),%rax
  400c1a:	48 89 c6             	mov    %rax,%rsi
  400c1d:	bf 30 3a 40 00       	mov    $0x403a30,%edi
  400c22:	b8 00 00 00 00       	mov    $0x0,%eax
  400c27:	e8 34 fb ff ff       	callq  400760 <printf@plt>
  400c2c:	bf 01 00 00 00       	mov    $0x1,%edi
  400c31:	e8 9a fb ff ff       	callq  4007d0 <exit@plt>
  400c36:	c7 45 ec 00 00 00 00 	movl   $0x0,-0x14(%rbp)
  400c3d:	eb 43                	jmp    400c82 <main+0x1c2>
  400c3f:	83 7d fc 00          	cmpl   $0x0,-0x4(%rbp)
  400c43:	75 05                	jne    400c4a <main+0x18a>
  400c45:	8b 45 ec             	mov    -0x14(%rbp),%eax
  400c48:	eb 05                	jmp    400c4f <main+0x18f>
  400c4a:	b8 00 00 00 00       	mov    $0x0,%eax
  400c4f:	89 45 e0             	mov    %eax,-0x20(%rbp)
  400c52:	8b 45 e0             	mov    -0x20(%rbp),%eax
  400c55:	48 98                	cltq   
  400c57:	48 89 c2             	mov    %rax,%rdx
  400c5a:	8b 45 ec             	mov    -0x14(%rbp),%eax
  400c5d:	48 98                	cltq   
  400c5f:	48 c1 e0 03          	shl    $0x3,%rax
  400c63:	48 8d b8 a0 50 60 00 	lea    0x6050a0(%rax),%rdi
  400c6a:	48 8b 45 f0          	mov    -0x10(%rbp),%rax
  400c6e:	48 89 d1             	mov    %rdx,%rcx
  400c71:	48 89 c2             	mov    %rax,%rdx
  400c74:	be 00 00 00 00       	mov    $0x0,%esi
  400c79:	e8 22 fb ff ff       	callq  4007a0 <pthread_create@plt>
  400c7e:	83 45 ec 01          	addl   $0x1,-0x14(%rbp)
  400c82:	83 7d ec 01          	cmpl   $0x1,-0x14(%rbp)
  400c86:	7e b7                	jle    400c3f <main+0x17f>
  400c88:	c7 45 e8 00 00 00 00 	movl   $0x0,-0x18(%rbp)
  400c8f:	eb 1e                	jmp    400caf <main+0x1ef>
  400c91:	8b 45 e8             	mov    -0x18(%rbp),%eax
  400c94:	48 98                	cltq   
  400c96:	48 8b 04 c5 a0 50 60 	mov    0x6050a0(,%rax,8),%rax
  400c9d:	00 
  400c9e:	be 00 00 00 00       	mov    $0x0,%esi
  400ca3:	48 89 c7             	mov    %rax,%rdi
  400ca6:	e8 e5 fa ff ff       	callq  400790 <pthread_join@plt>
  400cab:	83 45 e8 01          	addl   $0x1,-0x18(%rbp)
  400caf:	83 7d e8 01          	cmpl   $0x1,-0x18(%rbp)
  400cb3:	7e dc                	jle    400c91 <main+0x1d1>
  400cb5:	b8 00 00 00 00       	mov    $0x0,%eax
  400cba:	c9                   	leaveq 
  400cbb:	c3                   	retq   

0000000000400cbc <_Z11branch_goodPv>:
  400cbc:	55                   	push   %rbp
  400cbd:	48 89 e5             	mov    %rsp,%rbp
  400cc0:	48 81 ec 70 9c 00 00 	sub    $0x9c70,%rsp
  400cc7:	48 89 bd 98 63 ff ff 	mov    %rdi,-0x9c68(%rbp)
  400cce:	c7 45 fc 00 00 00 00 	movl   $0x0,-0x4(%rbp)
  400cd5:	eb 20                	jmp    400cf7 <_Z11branch_goodPv+0x3b>
  400cd7:	e8 a4 fa ff ff       	callq  400780 <rand@plt>
  400cdc:	99                   	cltd   
  400cdd:	c1 ea 18             	shr    $0x18,%edx
  400ce0:	01 d0                	add    %edx,%eax
  400ce2:	0f b6 c0             	movzbl %al,%eax
  400ce5:	29 d0                	sub    %edx,%eax
  400ce7:	89 c2                	mov    %eax,%edx
  400ce9:	8b 45 fc             	mov    -0x4(%rbp),%eax
  400cec:	89 94 85 a0 63 ff ff 	mov    %edx,-0x9c60(%rbp,%rax,4)
  400cf3:	83 45 fc 01          	addl   $0x1,-0x4(%rbp)
  400cf7:	81 7d fc 0f 27 00 00 	cmpl   $0x270f,-0x4(%rbp)
  400cfe:	76 d7                	jbe    400cd7 <_Z11branch_goodPv+0x1b>
  400d00:	48 8d 85 a0 63 ff ff 	lea    -0x9c60(%rbp),%rax
  400d07:	48 8d 90 40 9c 00 00 	lea    0x9c40(%rax),%rdx
  400d0e:	48 8d 85 a0 63 ff ff 	lea    -0x9c60(%rbp),%rax
  400d15:	48 89 d6             	mov    %rdx,%rsi
  400d18:	48 89 c7             	mov    %rax,%rdi
  400d1b:	e8 4c 1d 00 00       	callq  402a6c <_ZSt4sortIPiEvT_S1_>
  400d20:	48 c7 45 f0 00 00 00 	movq   $0x0,-0x10(%rbp)
  400d27:	00 
  400d28:	c7 45 ec 00 00 00 00 	movl   $0x0,-0x14(%rbp)
  400d2f:	eb 39                	jmp    400d6a <_Z11branch_goodPv+0xae>
  400d31:	c7 45 e8 00 00 00 00 	movl   $0x0,-0x18(%rbp)
  400d38:	eb 23                	jmp    400d5d <_Z11branch_goodPv+0xa1>
  400d3a:	8b 45 e8             	mov    -0x18(%rbp),%eax
  400d3d:	8b 84 85 a0 63 ff ff 	mov    -0x9c60(%rbp,%rax,4),%eax
  400d44:	83 f8 7f             	cmp    $0x7f,%eax
  400d47:	7e 10                	jle    400d59 <_Z11branch_goodPv+0x9d>
  400d49:	8b 45 e8             	mov    -0x18(%rbp),%eax
  400d4c:	8b 84 85 a0 63 ff ff 	mov    -0x9c60(%rbp,%rax,4),%eax
  400d53:	48 98                	cltq   
  400d55:	48 01 45 f0          	add    %rax,-0x10(%rbp)
  400d59:	83 45 e8 01          	addl   $0x1,-0x18(%rbp)
  400d5d:	81 7d e8 0f 27 00 00 	cmpl   $0x270f,-0x18(%rbp)
  400d64:	76 d4                	jbe    400d3a <_Z11branch_goodPv+0x7e>
  400d66:	83 45 ec 01          	addl   $0x1,-0x14(%rbp)
  400d6a:	83 7d ec 63          	cmpl   $0x63,-0x14(%rbp)
  400d6e:	76 c1                	jbe    400d31 <_Z11branch_goodPv+0x75>
  400d70:	c9                   	leaveq 
  400d71:	c3                   	retq   

0000000000400d72 <_Z11branch_missPv>:
  400d72:	55                   	push   %rbp
  400d73:	48 89 e5             	mov    %rsp,%rbp
  400d76:	48 81 ec 70 9c 00 00 	sub    $0x9c70,%rsp
  400d7d:	48 89 bd 98 63 ff ff 	mov    %rdi,-0x9c68(%rbp)
  400d84:	c7 45 fc 00 00 00 00 	movl   $0x0,-0x4(%rbp)
  400d8b:	eb 20                	jmp    400dad <_Z11branch_missPv+0x3b>
  400d8d:	e8 ee f9 ff ff       	callq  400780 <rand@plt>
  400d92:	99                   	cltd   
  400d93:	c1 ea 18             	shr    $0x18,%edx
  400d96:	01 d0                	add    %edx,%eax
  400d98:	0f b6 c0             	movzbl %al,%eax
  400d9b:	29 d0                	sub    %edx,%eax
  400d9d:	89 c2                	mov    %eax,%edx
  400d9f:	8b 45 fc             	mov    -0x4(%rbp),%eax
  400da2:	89 94 85 a0 63 ff ff 	mov    %edx,-0x9c60(%rbp,%rax,4)
  400da9:	83 45 fc 01          	addl   $0x1,-0x4(%rbp)
  400dad:	81 7d fc 0f 27 00 00 	cmpl   $0x270f,-0x4(%rbp)
  400db4:	76 d7                	jbe    400d8d <_Z11branch_missPv+0x1b>
  400db6:	48 c7 45 f0 00 00 00 	movq   $0x0,-0x10(%rbp)
  400dbd:	00 
  400dbe:	c7 45 ec 00 00 00 00 	movl   $0x0,-0x14(%rbp)
  400dc5:	eb 39                	jmp    400e00 <_Z11branch_missPv+0x8e>
  400dc7:	c7 45 e8 00 00 00 00 	movl   $0x0,-0x18(%rbp)
  400dce:	eb 23                	jmp    400df3 <_Z11branch_missPv+0x81>
  400dd0:	8b 45 e8             	mov    -0x18(%rbp),%eax
  400dd3:	8b 84 85 a0 63 ff ff 	mov    -0x9c60(%rbp,%rax,4),%eax
  400dda:	83 f8 7f             	cmp    $0x7f,%eax
  400ddd:	7e 10                	jle    400def <_Z11branch_missPv+0x7d>
  400ddf:	8b 45 e8             	mov    -0x18(%rbp),%eax
  400de2:	8b 84 85 a0 63 ff ff 	mov    -0x9c60(%rbp,%rax,4),%eax
  400de9:	48 98                	cltq   
  400deb:	48 01 45 f0          	add    %rax,-0x10(%rbp)
  400def:	83 45 e8 01          	addl   $0x1,-0x18(%rbp)
  400df3:	81 7d e8 0f 27 00 00 	cmpl   $0x270f,-0x18(%rbp)
  400dfa:	76 d4                	jbe    400dd0 <_Z11branch_missPv+0x5e>
  400dfc:	83 45 ec 01          	addl   $0x1,-0x14(%rbp)
  400e00:	83 7d ec 63          	cmpl   $0x63,-0x14(%rbp)
  400e04:	76 c1                	jbe    400dc7 <_Z11branch_missPv+0x55>
  400e06:	c9                   	leaveq 
  400e07:	c3                   	retq   

0000000000400e08 <_Z11dcache_goodPv>:
  400e08:	55                   	push   %rbp
  400e09:	48 89 e5             	mov    %rsp,%rbp
  400e0c:	48 81 ec a0 08 3d 00 	sub    $0x3d08a0,%rsp
  400e13:	48 89 bd e8 f6 c2 ff 	mov    %rdi,-0x3d0918(%rbp)
  400e1a:	c7 45 fc 00 00 00 00 	movl   $0x0,-0x4(%rbp)
  400e21:	eb 13                	jmp    400e36 <_Z11dcache_goodPv+0x2e>
  400e23:	8b 45 fc             	mov    -0x4(%rbp),%eax
  400e26:	48 98                	cltq   
  400e28:	8b 55 fc             	mov    -0x4(%rbp),%edx
  400e2b:	89 94 85 f0 f6 c2 ff 	mov    %edx,-0x3d0910(%rbp,%rax,4)
  400e32:	83 45 fc 01          	addl   $0x1,-0x4(%rbp)
  400e36:	81 7d fc 1f 4e 00 00 	cmpl   $0x4e1f,-0x4(%rbp)
  400e3d:	7e e4                	jle    400e23 <_Z11dcache_goodPv+0x1b>
  400e3f:	c9                   	leaveq 
  400e40:	c3                   	retq   

0000000000400e41 <_Z11dcache_missPv>:
  400e41:	55                   	push   %rbp
  400e42:	48 89 e5             	mov    %rsp,%rbp
  400e45:	48 81 ec 30 09 3d 00 	sub    $0x3d0930,%rsp
  400e4c:	48 89 bd d8 f6 c2 ff 	mov    %rdi,-0x3d0928(%rbp)
  400e53:	48 8d 45 f0          	lea    -0x10(%rbp),%rax
  400e57:	be 01 00 00 00       	mov    $0x1,%esi
  400e5c:	48 89 c7             	mov    %rax,%rdi
  400e5f:	e8 68 1c 00 00       	callq  402acc <_ZNSt26linear_congruential_engineImLm16807ELm0ELm2147483647EEC1Em>
  400e64:	48 8d 45 e0          	lea    -0x20(%rbp),%rax
  400e68:	ba 40 42 0f 00       	mov    $0xf4240,%edx
  400e6d:	be 00 00 00 00       	mov    $0x0,%esi
  400e72:	48 89 c7             	mov    %rax,%rdi
  400e75:	e8 78 1c 00 00       	callq  402af2 <_ZNSt24uniform_int_distributionIiEC1Eii>
  400e7a:	c7 45 fc 00 00 00 00 	movl   $0x0,-0x4(%rbp)
  400e81:	eb 23                	jmp    400ea6 <_Z11dcache_missPv+0x65>
  400e83:	48 8d 55 f0          	lea    -0x10(%rbp),%rdx
  400e87:	48 8d 45 e0          	lea    -0x20(%rbp),%rax
  400e8b:	48 89 d6             	mov    %rdx,%rsi
  400e8e:	48 89 c7             	mov    %rax,%rdi
  400e91:	e8 84 1c 00 00       	callq  402b1a <_ZNSt24uniform_int_distributionIiEclISt26linear_congruential_engineImLm16807ELm0ELm2147483647EEEEiRT_>
  400e96:	48 98                	cltq   
  400e98:	8b 55 fc             	mov    -0x4(%rbp),%edx
  400e9b:	89 94 85 e0 f6 c2 ff 	mov    %edx,-0x3d0920(%rbp,%rax,4)
  400ea2:	83 45 fc 01          	addl   $0x1,-0x4(%rbp)
  400ea6:	81 7d fc 1f 4e 00 00 	cmpl   $0x4e1f,-0x4(%rbp)
  400ead:	7e d4                	jle    400e83 <_Z11dcache_missPv+0x42>
  400eaf:	c9                   	leaveq 
  400eb0:	c3                   	retq   

0000000000400eb1 <_Z11icache_goodPv>:
  400eb1:	55                   	push   %rbp
  400eb2:	48 89 e5             	mov    %rsp,%rbp
  400eb5:	48 81 ec 30 01 00 00 	sub    $0x130,%rsp
  400ebc:	48 89 bd 58 fe ff ff 	mov    %rdi,-0x1a8(%rbp)
  400ec3:	c7 45 fc 00 00 00 00 	movl   $0x0,-0x4(%rbp)
  400eca:	e9 7b 0d 00 00       	jmpq   401c4a <_Z11icache_goodPv+0xd99>
  400ecf:	c7 45 f8 00 00 00 00 	movl   $0x0,-0x8(%rbp)
  400ed6:	83 7d fc 63          	cmpl   $0x63,-0x4(%rbp)
  400eda:	0f 87 66 0d 00 00    	ja     401c46 <_Z11icache_goodPv+0xd95>
  400ee0:	8b 45 fc             	mov    -0x4(%rbp),%eax
  400ee3:	48 8b 04 c5 88 3a 40 	mov    0x403a88(,%rax,8),%rax
  400eea:	00 
  400eeb:	ff e0                	jmpq   *%rax
  400eed:	c7 45 f4 00 00 00 00 	movl   $0x0,-0xc(%rbp)
  400ef4:	eb 08                	jmp    400efe <_Z11icache_goodPv+0x4d>
  400ef6:	83 45 f8 01          	addl   $0x1,-0x8(%rbp)
  400efa:	83 45 f4 01          	addl   $0x1,-0xc(%rbp)
  400efe:	83 7d f4 63          	cmpl   $0x63,-0xc(%rbp)
  400f02:	7e f2                	jle    400ef6 <_Z11icache_goodPv+0x45>
  400f04:	e9 3d 0d 00 00       	jmpq   401c46 <_Z11icache_goodPv+0xd95>
  400f09:	c7 45 f0 00 00 00 00 	movl   $0x0,-0x10(%rbp)
  400f10:	eb 08                	jmp    400f1a <_Z11icache_goodPv+0x69>
  400f12:	83 45 f8 01          	addl   $0x1,-0x8(%rbp)
  400f16:	83 45 f0 01          	addl   $0x1,-0x10(%rbp)
  400f1a:	83 7d f0 63          	cmpl   $0x63,-0x10(%rbp)
  400f1e:	7e f2                	jle    400f12 <_Z11icache_goodPv+0x61>
  400f20:	e9 21 0d 00 00       	jmpq   401c46 <_Z11icache_goodPv+0xd95>
  400f25:	c7 45 ec 00 00 00 00 	movl   $0x0,-0x14(%rbp)
  400f2c:	eb 08                	jmp    400f36 <_Z11icache_goodPv+0x85>
  400f2e:	83 45 f8 01          	addl   $0x1,-0x8(%rbp)
  400f32:	83 45 ec 01          	addl   $0x1,-0x14(%rbp)
  400f36:	83 7d ec 63          	cmpl   $0x63,-0x14(%rbp)
  400f3a:	7e f2                	jle    400f2e <_Z11icache_goodPv+0x7d>
  400f3c:	e9 05 0d 00 00       	jmpq   401c46 <_Z11icache_goodPv+0xd95>
  400f41:	c7 45 e8 00 00 00 00 	movl   $0x0,-0x18(%rbp)
  400f48:	eb 08                	jmp    400f52 <_Z11icache_goodPv+0xa1>
  400f4a:	83 45 f8 01          	addl   $0x1,-0x8(%rbp)
  400f4e:	83 45 e8 01          	addl   $0x1,-0x18(%rbp)
  400f52:	83 7d e8 63          	cmpl   $0x63,-0x18(%rbp)
  400f56:	7e f2                	jle    400f4a <_Z11icache_goodPv+0x99>
  400f58:	e9 e9 0c 00 00       	jmpq   401c46 <_Z11icache_goodPv+0xd95>
  400f5d:	c7 45 e4 00 00 00 00 	movl   $0x0,-0x1c(%rbp)
  400f64:	eb 08                	jmp    400f6e <_Z11icache_goodPv+0xbd>
  400f66:	83 45 f8 01          	addl   $0x1,-0x8(%rbp)
  400f6a:	83 45 e4 01          	addl   $0x1,-0x1c(%rbp)
  400f6e:	83 7d e4 63          	cmpl   $0x63,-0x1c(%rbp)
  400f72:	7e f2                	jle    400f66 <_Z11icache_goodPv+0xb5>
  400f74:	e9 cd 0c 00 00       	jmpq   401c46 <_Z11icache_goodPv+0xd95>
  400f79:	c7 45 e0 00 00 00 00 	movl   $0x0,-0x20(%rbp)
  400f80:	eb 08                	jmp    400f8a <_Z11icache_goodPv+0xd9>
  400f82:	83 45 f8 01          	addl   $0x1,-0x8(%rbp)
  400f86:	83 45 e0 01          	addl   $0x1,-0x20(%rbp)
  400f8a:	83 7d e0 63          	cmpl   $0x63,-0x20(%rbp)
  400f8e:	7e f2                	jle    400f82 <_Z11icache_goodPv+0xd1>
  400f90:	e9 b1 0c 00 00       	jmpq   401c46 <_Z11icache_goodPv+0xd95>
  400f95:	c7 45 dc 00 00 00 00 	movl   $0x0,-0x24(%rbp)
  400f9c:	eb 08                	jmp    400fa6 <_Z11icache_goodPv+0xf5>
  400f9e:	83 45 f8 01          	addl   $0x1,-0x8(%rbp)
  400fa2:	83 45 dc 01          	addl   $0x1,-0x24(%rbp)
  400fa6:	83 7d dc 63          	cmpl   $0x63,-0x24(%rbp)
  400faa:	7e f2                	jle    400f9e <_Z11icache_goodPv+0xed>
  400fac:	e9 95 0c 00 00       	jmpq   401c46 <_Z11icache_goodPv+0xd95>
  400fb1:	c7 45 d8 00 00 00 00 	movl   $0x0,-0x28(%rbp)
  400fb8:	eb 08                	jmp    400fc2 <_Z11icache_goodPv+0x111>
  400fba:	83 45 f8 01          	addl   $0x1,-0x8(%rbp)
  400fbe:	83 45 d8 01          	addl   $0x1,-0x28(%rbp)
  400fc2:	83 7d d8 63          	cmpl   $0x63,-0x28(%rbp)
  400fc6:	7e f2                	jle    400fba <_Z11icache_goodPv+0x109>
  400fc8:	e9 79 0c 00 00       	jmpq   401c46 <_Z11icache_goodPv+0xd95>
  400fcd:	c7 45 d4 00 00 00 00 	movl   $0x0,-0x2c(%rbp)
  400fd4:	eb 08                	jmp    400fde <_Z11icache_goodPv+0x12d>
  400fd6:	83 45 f8 01          	addl   $0x1,-0x8(%rbp)
  400fda:	83 45 d4 01          	addl   $0x1,-0x2c(%rbp)
  400fde:	83 7d d4 63          	cmpl   $0x63,-0x2c(%rbp)
  400fe2:	7e f2                	jle    400fd6 <_Z11icache_goodPv+0x125>
  400fe4:	e9 5d 0c 00 00       	jmpq   401c46 <_Z11icache_goodPv+0xd95>
  400fe9:	c7 45 d0 00 00 00 00 	movl   $0x0,-0x30(%rbp)
  400ff0:	eb 08                	jmp    400ffa <_Z11icache_goodPv+0x149>
  400ff2:	83 45 f8 01          	addl   $0x1,-0x8(%rbp)
  400ff6:	83 45 d0 01          	addl   $0x1,-0x30(%rbp)
  400ffa:	83 7d d0 63          	cmpl   $0x63,-0x30(%rbp)
  400ffe:	7e f2                	jle    400ff2 <_Z11icache_goodPv+0x141>
  401000:	e9 41 0c 00 00       	jmpq   401c46 <_Z11icache_goodPv+0xd95>
  401005:	c7 45 cc 00 00 00 00 	movl   $0x0,-0x34(%rbp)
  40100c:	eb 08                	jmp    401016 <_Z11icache_goodPv+0x165>
  40100e:	83 45 f8 01          	addl   $0x1,-0x8(%rbp)
  401012:	83 45 cc 01          	addl   $0x1,-0x34(%rbp)
  401016:	83 7d cc 63          	cmpl   $0x63,-0x34(%rbp)
  40101a:	7e f2                	jle    40100e <_Z11icache_goodPv+0x15d>
  40101c:	e9 25 0c 00 00       	jmpq   401c46 <_Z11icache_goodPv+0xd95>
  401021:	c7 45 c8 00 00 00 00 	movl   $0x0,-0x38(%rbp)
  401028:	eb 08                	jmp    401032 <_Z11icache_goodPv+0x181>
  40102a:	83 45 f8 01          	addl   $0x1,-0x8(%rbp)
  40102e:	83 45 c8 01          	addl   $0x1,-0x38(%rbp)
  401032:	83 7d c8 63          	cmpl   $0x63,-0x38(%rbp)
  401036:	7e f2                	jle    40102a <_Z11icache_goodPv+0x179>
  401038:	e9 09 0c 00 00       	jmpq   401c46 <_Z11icache_goodPv+0xd95>
  40103d:	c7 45 c4 00 00 00 00 	movl   $0x0,-0x3c(%rbp)
  401044:	eb 08                	jmp    40104e <_Z11icache_goodPv+0x19d>
  401046:	83 45 f8 01          	addl   $0x1,-0x8(%rbp)
  40104a:	83 45 c4 01          	addl   $0x1,-0x3c(%rbp)
  40104e:	83 7d c4 63          	cmpl   $0x63,-0x3c(%rbp)
  401052:	7e f2                	jle    401046 <_Z11icache_goodPv+0x195>
  401054:	e9 ed 0b 00 00       	jmpq   401c46 <_Z11icache_goodPv+0xd95>
  401059:	c7 45 c0 00 00 00 00 	movl   $0x0,-0x40(%rbp)
  401060:	eb 08                	jmp    40106a <_Z11icache_goodPv+0x1b9>
  401062:	83 45 f8 01          	addl   $0x1,-0x8(%rbp)
  401066:	83 45 c0 01          	addl   $0x1,-0x40(%rbp)
  40106a:	83 7d c0 63          	cmpl   $0x63,-0x40(%rbp)
  40106e:	7e f2                	jle    401062 <_Z11icache_goodPv+0x1b1>
  401070:	e9 d1 0b 00 00       	jmpq   401c46 <_Z11icache_goodPv+0xd95>
  401075:	c7 45 bc 00 00 00 00 	movl   $0x0,-0x44(%rbp)
  40107c:	eb 08                	jmp    401086 <_Z11icache_goodPv+0x1d5>
  40107e:	83 45 f8 01          	addl   $0x1,-0x8(%rbp)
  401082:	83 45 bc 01          	addl   $0x1,-0x44(%rbp)
  401086:	83 7d bc 63          	cmpl   $0x63,-0x44(%rbp)
  40108a:	7e f2                	jle    40107e <_Z11icache_goodPv+0x1cd>
  40108c:	e9 b5 0b 00 00       	jmpq   401c46 <_Z11icache_goodPv+0xd95>
  401091:	c7 45 b8 00 00 00 00 	movl   $0x0,-0x48(%rbp)
  401098:	eb 08                	jmp    4010a2 <_Z11icache_goodPv+0x1f1>
  40109a:	83 45 f8 01          	addl   $0x1,-0x8(%rbp)
  40109e:	83 45 b8 01          	addl   $0x1,-0x48(%rbp)
  4010a2:	83 7d b8 63          	cmpl   $0x63,-0x48(%rbp)
  4010a6:	7e f2                	jle    40109a <_Z11icache_goodPv+0x1e9>
  4010a8:	e9 99 0b 00 00       	jmpq   401c46 <_Z11icache_goodPv+0xd95>
  4010ad:	c7 45 b4 00 00 00 00 	movl   $0x0,-0x4c(%rbp)
  4010b4:	eb 08                	jmp    4010be <_Z11icache_goodPv+0x20d>
  4010b6:	83 45 f8 01          	addl   $0x1,-0x8(%rbp)
  4010ba:	83 45 b4 01          	addl   $0x1,-0x4c(%rbp)
  4010be:	83 7d b4 63          	cmpl   $0x63,-0x4c(%rbp)
  4010c2:	7e f2                	jle    4010b6 <_Z11icache_goodPv+0x205>
  4010c4:	e9 7d 0b 00 00       	jmpq   401c46 <_Z11icache_goodPv+0xd95>
  4010c9:	c7 45 b0 00 00 00 00 	movl   $0x0,-0x50(%rbp)
  4010d0:	eb 08                	jmp    4010da <_Z11icache_goodPv+0x229>
  4010d2:	83 45 f8 01          	addl   $0x1,-0x8(%rbp)
  4010d6:	83 45 b0 01          	addl   $0x1,-0x50(%rbp)
  4010da:	83 7d b0 63          	cmpl   $0x63,-0x50(%rbp)
  4010de:	7e f2                	jle    4010d2 <_Z11icache_goodPv+0x221>
  4010e0:	e9 61 0b 00 00       	jmpq   401c46 <_Z11icache_goodPv+0xd95>
  4010e5:	c7 45 ac 00 00 00 00 	movl   $0x0,-0x54(%rbp)
  4010ec:	eb 08                	jmp    4010f6 <_Z11icache_goodPv+0x245>
  4010ee:	83 45 f8 01          	addl   $0x1,-0x8(%rbp)
  4010f2:	83 45 ac 01          	addl   $0x1,-0x54(%rbp)
  4010f6:	83 7d ac 63          	cmpl   $0x63,-0x54(%rbp)
  4010fa:	7e f2                	jle    4010ee <_Z11icache_goodPv+0x23d>
  4010fc:	e9 45 0b 00 00       	jmpq   401c46 <_Z11icache_goodPv+0xd95>
  401101:	c7 45 a8 00 00 00 00 	movl   $0x0,-0x58(%rbp)
  401108:	eb 08                	jmp    401112 <_Z11icache_goodPv+0x261>
  40110a:	83 45 f8 01          	addl   $0x1,-0x8(%rbp)
  40110e:	83 45 a8 01          	addl   $0x1,-0x58(%rbp)
  401112:	83 7d a8 63          	cmpl   $0x63,-0x58(%rbp)
  401116:	7e f2                	jle    40110a <_Z11icache_goodPv+0x259>
  401118:	e9 29 0b 00 00       	jmpq   401c46 <_Z11icache_goodPv+0xd95>
  40111d:	c7 45 a4 00 00 00 00 	movl   $0x0,-0x5c(%rbp)
  401124:	eb 08                	jmp    40112e <_Z11icache_goodPv+0x27d>
  401126:	83 45 f8 01          	addl   $0x1,-0x8(%rbp)
  40112a:	83 45 a4 01          	addl   $0x1,-0x5c(%rbp)
  40112e:	83 7d a4 63          	cmpl   $0x63,-0x5c(%rbp)
  401132:	7e f2                	jle    401126 <_Z11icache_goodPv+0x275>
  401134:	e9 0d 0b 00 00       	jmpq   401c46 <_Z11icache_goodPv+0xd95>
  401139:	c7 45 a0 00 00 00 00 	movl   $0x0,-0x60(%rbp)
  401140:	eb 08                	jmp    40114a <_Z11icache_goodPv+0x299>
  401142:	83 45 f8 01          	addl   $0x1,-0x8(%rbp)
  401146:	83 45 a0 01          	addl   $0x1,-0x60(%rbp)
  40114a:	83 7d a0 63          	cmpl   $0x63,-0x60(%rbp)
  40114e:	7e f2                	jle    401142 <_Z11icache_goodPv+0x291>
  401150:	e9 f1 0a 00 00       	jmpq   401c46 <_Z11icache_goodPv+0xd95>
  401155:	c7 45 9c 00 00 00 00 	movl   $0x0,-0x64(%rbp)
  40115c:	eb 08                	jmp    401166 <_Z11icache_goodPv+0x2b5>
  40115e:	83 45 f8 01          	addl   $0x1,-0x8(%rbp)
  401162:	83 45 9c 01          	addl   $0x1,-0x64(%rbp)
  401166:	83 7d 9c 63          	cmpl   $0x63,-0x64(%rbp)
  40116a:	7e f2                	jle    40115e <_Z11icache_goodPv+0x2ad>
  40116c:	e9 d5 0a 00 00       	jmpq   401c46 <_Z11icache_goodPv+0xd95>
  401171:	c7 45 98 00 00 00 00 	movl   $0x0,-0x68(%rbp)
  401178:	eb 08                	jmp    401182 <_Z11icache_goodPv+0x2d1>
  40117a:	83 45 f8 01          	addl   $0x1,-0x8(%rbp)
  40117e:	83 45 98 01          	addl   $0x1,-0x68(%rbp)
  401182:	83 7d 98 63          	cmpl   $0x63,-0x68(%rbp)
  401186:	7e f2                	jle    40117a <_Z11icache_goodPv+0x2c9>
  401188:	e9 b9 0a 00 00       	jmpq   401c46 <_Z11icache_goodPv+0xd95>
  40118d:	c7 45 94 00 00 00 00 	movl   $0x0,-0x6c(%rbp)
  401194:	eb 08                	jmp    40119e <_Z11icache_goodPv+0x2ed>
  401196:	83 45 f8 01          	addl   $0x1,-0x8(%rbp)
  40119a:	83 45 94 01          	addl   $0x1,-0x6c(%rbp)
  40119e:	83 7d 94 63          	cmpl   $0x63,-0x6c(%rbp)
  4011a2:	7e f2                	jle    401196 <_Z11icache_goodPv+0x2e5>
  4011a4:	e9 9d 0a 00 00       	jmpq   401c46 <_Z11icache_goodPv+0xd95>
  4011a9:	c7 45 90 00 00 00 00 	movl   $0x0,-0x70(%rbp)
  4011b0:	eb 08                	jmp    4011ba <_Z11icache_goodPv+0x309>
  4011b2:	83 45 f8 01          	addl   $0x1,-0x8(%rbp)
  4011b6:	83 45 90 01          	addl   $0x1,-0x70(%rbp)
  4011ba:	83 7d 90 63          	cmpl   $0x63,-0x70(%rbp)
  4011be:	7e f2                	jle    4011b2 <_Z11icache_goodPv+0x301>
  4011c0:	e9 81 0a 00 00       	jmpq   401c46 <_Z11icache_goodPv+0xd95>
  4011c5:	c7 45 8c 00 00 00 00 	movl   $0x0,-0x74(%rbp)
  4011cc:	eb 08                	jmp    4011d6 <_Z11icache_goodPv+0x325>
  4011ce:	83 45 f8 01          	addl   $0x1,-0x8(%rbp)
  4011d2:	83 45 8c 01          	addl   $0x1,-0x74(%rbp)
  4011d6:	83 7d 8c 63          	cmpl   $0x63,-0x74(%rbp)
  4011da:	7e f2                	jle    4011ce <_Z11icache_goodPv+0x31d>
  4011dc:	e9 65 0a 00 00       	jmpq   401c46 <_Z11icache_goodPv+0xd95>
  4011e1:	c7 45 88 00 00 00 00 	movl   $0x0,-0x78(%rbp)
  4011e8:	eb 08                	jmp    4011f2 <_Z11icache_goodPv+0x341>
  4011ea:	83 45 f8 01          	addl   $0x1,-0x8(%rbp)
  4011ee:	83 45 88 01          	addl   $0x1,-0x78(%rbp)
  4011f2:	83 7d 88 63          	cmpl   $0x63,-0x78(%rbp)
  4011f6:	7e f2                	jle    4011ea <_Z11icache_goodPv+0x339>
  4011f8:	e9 49 0a 00 00       	jmpq   401c46 <_Z11icache_goodPv+0xd95>
  4011fd:	c7 45 84 00 00 00 00 	movl   $0x0,-0x7c(%rbp)
  401204:	eb 08                	jmp    40120e <_Z11icache_goodPv+0x35d>
  401206:	83 45 f8 01          	addl   $0x1,-0x8(%rbp)
  40120a:	83 45 84 01          	addl   $0x1,-0x7c(%rbp)
  40120e:	83 7d 84 63          	cmpl   $0x63,-0x7c(%rbp)
  401212:	7e f2                	jle    401206 <_Z11icache_goodPv+0x355>
  401214:	e9 2d 0a 00 00       	jmpq   401c46 <_Z11icache_goodPv+0xd95>
  401219:	c7 45 80 00 00 00 00 	movl   $0x0,-0x80(%rbp)
  401220:	eb 08                	jmp    40122a <_Z11icache_goodPv+0x379>
  401222:	83 45 f8 01          	addl   $0x1,-0x8(%rbp)
  401226:	83 45 80 01          	addl   $0x1,-0x80(%rbp)
  40122a:	83 7d 80 63          	cmpl   $0x63,-0x80(%rbp)
  40122e:	7e f2                	jle    401222 <_Z11icache_goodPv+0x371>
  401230:	e9 11 0a 00 00       	jmpq   401c46 <_Z11icache_goodPv+0xd95>
  401235:	c7 85 7c ff ff ff 00 	movl   $0x0,-0x84(%rbp)
  40123c:	00 00 00 
  40123f:	eb 0b                	jmp    40124c <_Z11icache_goodPv+0x39b>
  401241:	83 45 f8 01          	addl   $0x1,-0x8(%rbp)
  401245:	83 85 7c ff ff ff 01 	addl   $0x1,-0x84(%rbp)
  40124c:	83 bd 7c ff ff ff 63 	cmpl   $0x63,-0x84(%rbp)
  401253:	7e ec                	jle    401241 <_Z11icache_goodPv+0x390>
  401255:	e9 ec 09 00 00       	jmpq   401c46 <_Z11icache_goodPv+0xd95>
  40125a:	c7 85 78 ff ff ff 00 	movl   $0x0,-0x88(%rbp)
  401261:	00 00 00 
  401264:	eb 0b                	jmp    401271 <_Z11icache_goodPv+0x3c0>
  401266:	83 45 f8 01          	addl   $0x1,-0x8(%rbp)
  40126a:	83 85 78 ff ff ff 01 	addl   $0x1,-0x88(%rbp)
  401271:	83 bd 78 ff ff ff 63 	cmpl   $0x63,-0x88(%rbp)
  401278:	7e ec                	jle    401266 <_Z11icache_goodPv+0x3b5>
  40127a:	e9 c7 09 00 00       	jmpq   401c46 <_Z11icache_goodPv+0xd95>
  40127f:	c7 85 74 ff ff ff 00 	movl   $0x0,-0x8c(%rbp)
  401286:	00 00 00 
  401289:	eb 0b                	jmp    401296 <_Z11icache_goodPv+0x3e5>
  40128b:	83 45 f8 01          	addl   $0x1,-0x8(%rbp)
  40128f:	83 85 74 ff ff ff 01 	addl   $0x1,-0x8c(%rbp)
  401296:	83 bd 74 ff ff ff 63 	cmpl   $0x63,-0x8c(%rbp)
  40129d:	7e ec                	jle    40128b <_Z11icache_goodPv+0x3da>
  40129f:	e9 a2 09 00 00       	jmpq   401c46 <_Z11icache_goodPv+0xd95>
  4012a4:	c7 85 70 ff ff ff 00 	movl   $0x0,-0x90(%rbp)
  4012ab:	00 00 00 
  4012ae:	eb 0b                	jmp    4012bb <_Z11icache_goodPv+0x40a>
  4012b0:	83 45 f8 01          	addl   $0x1,-0x8(%rbp)
  4012b4:	83 85 70 ff ff ff 01 	addl   $0x1,-0x90(%rbp)
  4012bb:	83 bd 70 ff ff ff 63 	cmpl   $0x63,-0x90(%rbp)
  4012c2:	7e ec                	jle    4012b0 <_Z11icache_goodPv+0x3ff>
  4012c4:	e9 7d 09 00 00       	jmpq   401c46 <_Z11icache_goodPv+0xd95>
  4012c9:	c7 85 6c ff ff ff 00 	movl   $0x0,-0x94(%rbp)
  4012d0:	00 00 00 
  4012d3:	eb 0b                	jmp    4012e0 <_Z11icache_goodPv+0x42f>
  4012d5:	83 45 f8 01          	addl   $0x1,-0x8(%rbp)
  4012d9:	83 85 6c ff ff ff 01 	addl   $0x1,-0x94(%rbp)
  4012e0:	83 bd 6c ff ff ff 63 	cmpl   $0x63,-0x94(%rbp)
  4012e7:	7e ec                	jle    4012d5 <_Z11icache_goodPv+0x424>
  4012e9:	e9 58 09 00 00       	jmpq   401c46 <_Z11icache_goodPv+0xd95>
  4012ee:	c7 85 68 ff ff ff 00 	movl   $0x0,-0x98(%rbp)
  4012f5:	00 00 00 
  4012f8:	eb 0b                	jmp    401305 <_Z11icache_goodPv+0x454>
  4012fa:	83 45 f8 01          	addl   $0x1,-0x8(%rbp)
  4012fe:	83 85 68 ff ff ff 01 	addl   $0x1,-0x98(%rbp)
  401305:	83 bd 68 ff ff ff 63 	cmpl   $0x63,-0x98(%rbp)
  40130c:	7e ec                	jle    4012fa <_Z11icache_goodPv+0x449>
  40130e:	e9 33 09 00 00       	jmpq   401c46 <_Z11icache_goodPv+0xd95>
  401313:	c7 85 64 ff ff ff 00 	movl   $0x0,-0x9c(%rbp)
  40131a:	00 00 00 
  40131d:	eb 0b                	jmp    40132a <_Z11icache_goodPv+0x479>
  40131f:	83 45 f8 01          	addl   $0x1,-0x8(%rbp)
  401323:	83 85 64 ff ff ff 01 	addl   $0x1,-0x9c(%rbp)
  40132a:	83 bd 64 ff ff ff 63 	cmpl   $0x63,-0x9c(%rbp)
  401331:	7e ec                	jle    40131f <_Z11icache_goodPv+0x46e>
  401333:	e9 0e 09 00 00       	jmpq   401c46 <_Z11icache_goodPv+0xd95>
  401338:	c7 85 60 ff ff ff 00 	movl   $0x0,-0xa0(%rbp)
  40133f:	00 00 00 
  401342:	eb 0b                	jmp    40134f <_Z11icache_goodPv+0x49e>
  401344:	83 45 f8 01          	addl   $0x1,-0x8(%rbp)
  401348:	83 85 60 ff ff ff 01 	addl   $0x1,-0xa0(%rbp)
  40134f:	83 bd 60 ff ff ff 63 	cmpl   $0x63,-0xa0(%rbp)
  401356:	7e ec                	jle    401344 <_Z11icache_goodPv+0x493>
  401358:	e9 e9 08 00 00       	jmpq   401c46 <_Z11icache_goodPv+0xd95>
  40135d:	c7 85 5c ff ff ff 00 	movl   $0x0,-0xa4(%rbp)
  401364:	00 00 00 
  401367:	eb 0b                	jmp    401374 <_Z11icache_goodPv+0x4c3>
  401369:	83 45 f8 01          	addl   $0x1,-0x8(%rbp)
  40136d:	83 85 5c ff ff ff 01 	addl   $0x1,-0xa4(%rbp)
  401374:	83 bd 5c ff ff ff 63 	cmpl   $0x63,-0xa4(%rbp)
  40137b:	7e ec                	jle    401369 <_Z11icache_goodPv+0x4b8>
  40137d:	e9 c4 08 00 00       	jmpq   401c46 <_Z11icache_goodPv+0xd95>
  401382:	c7 85 58 ff ff ff 00 	movl   $0x0,-0xa8(%rbp)
  401389:	00 00 00 
  40138c:	eb 0b                	jmp    401399 <_Z11icache_goodPv+0x4e8>
  40138e:	83 45 f8 01          	addl   $0x1,-0x8(%rbp)
  401392:	83 85 58 ff ff ff 01 	addl   $0x1,-0xa8(%rbp)
  401399:	83 bd 58 ff ff ff 63 	cmpl   $0x63,-0xa8(%rbp)
  4013a0:	7e ec                	jle    40138e <_Z11icache_goodPv+0x4dd>
  4013a2:	e9 9f 08 00 00       	jmpq   401c46 <_Z11icache_goodPv+0xd95>
  4013a7:	c7 85 54 ff ff ff 00 	movl   $0x0,-0xac(%rbp)
  4013ae:	00 00 00 
  4013b1:	eb 0b                	jmp    4013be <_Z11icache_goodPv+0x50d>
  4013b3:	83 45 f8 01          	addl   $0x1,-0x8(%rbp)
  4013b7:	83 85 54 ff ff ff 01 	addl   $0x1,-0xac(%rbp)
  4013be:	83 bd 54 ff ff ff 63 	cmpl   $0x63,-0xac(%rbp)
  4013c5:	7e ec                	jle    4013b3 <_Z11icache_goodPv+0x502>
  4013c7:	e9 7a 08 00 00       	jmpq   401c46 <_Z11icache_goodPv+0xd95>
  4013cc:	c7 85 50 ff ff ff 00 	movl   $0x0,-0xb0(%rbp)
  4013d3:	00 00 00 
  4013d6:	eb 0b                	jmp    4013e3 <_Z11icache_goodPv+0x532>
  4013d8:	83 45 f8 01          	addl   $0x1,-0x8(%rbp)
  4013dc:	83 85 50 ff ff ff 01 	addl   $0x1,-0xb0(%rbp)
  4013e3:	83 bd 50 ff ff ff 63 	cmpl   $0x63,-0xb0(%rbp)
  4013ea:	7e ec                	jle    4013d8 <_Z11icache_goodPv+0x527>
  4013ec:	e9 55 08 00 00       	jmpq   401c46 <_Z11icache_goodPv+0xd95>
  4013f1:	c7 85 4c ff ff ff 00 	movl   $0x0,-0xb4(%rbp)
  4013f8:	00 00 00 
  4013fb:	eb 0b                	jmp    401408 <_Z11icache_goodPv+0x557>
  4013fd:	83 45 f8 01          	addl   $0x1,-0x8(%rbp)
  401401:	83 85 4c ff ff ff 01 	addl   $0x1,-0xb4(%rbp)
  401408:	83 bd 4c ff ff ff 63 	cmpl   $0x63,-0xb4(%rbp)
  40140f:	7e ec                	jle    4013fd <_Z11icache_goodPv+0x54c>
  401411:	e9 30 08 00 00       	jmpq   401c46 <_Z11icache_goodPv+0xd95>
  401416:	c7 85 48 ff ff ff 00 	movl   $0x0,-0xb8(%rbp)
  40141d:	00 00 00 
  401420:	eb 0b                	jmp    40142d <_Z11icache_goodPv+0x57c>
  401422:	83 45 f8 01          	addl   $0x1,-0x8(%rbp)
  401426:	83 85 48 ff ff ff 01 	addl   $0x1,-0xb8(%rbp)
  40142d:	83 bd 48 ff ff ff 63 	cmpl   $0x63,-0xb8(%rbp)
  401434:	7e ec                	jle    401422 <_Z11icache_goodPv+0x571>
  401436:	e9 0b 08 00 00       	jmpq   401c46 <_Z11icache_goodPv+0xd95>
  40143b:	c7 85 44 ff ff ff 00 	movl   $0x0,-0xbc(%rbp)
  401442:	00 00 00 
  401445:	eb 0b                	jmp    401452 <_Z11icache_goodPv+0x5a1>
  401447:	83 45 f8 01          	addl   $0x1,-0x8(%rbp)
  40144b:	83 85 44 ff ff ff 01 	addl   $0x1,-0xbc(%rbp)
  401452:	83 bd 44 ff ff ff 63 	cmpl   $0x63,-0xbc(%rbp)
  401459:	7e ec                	jle    401447 <_Z11icache_goodPv+0x596>
  40145b:	e9 e6 07 00 00       	jmpq   401c46 <_Z11icache_goodPv+0xd95>
  401460:	c7 85 40 ff ff ff 00 	movl   $0x0,-0xc0(%rbp)
  401467:	00 00 00 
  40146a:	eb 0b                	jmp    401477 <_Z11icache_goodPv+0x5c6>
  40146c:	83 45 f8 01          	addl   $0x1,-0x8(%rbp)
  401470:	83 85 40 ff ff ff 01 	addl   $0x1,-0xc0(%rbp)
  401477:	83 bd 40 ff ff ff 63 	cmpl   $0x63,-0xc0(%rbp)
  40147e:	7e ec                	jle    40146c <_Z11icache_goodPv+0x5bb>
  401480:	e9 c1 07 00 00       	jmpq   401c46 <_Z11icache_goodPv+0xd95>
  401485:	c7 85 3c ff ff ff 00 	movl   $0x0,-0xc4(%rbp)
  40148c:	00 00 00 
  40148f:	eb 0b                	jmp    40149c <_Z11icache_goodPv+0x5eb>
  401491:	83 45 f8 01          	addl   $0x1,-0x8(%rbp)
  401495:	83 85 3c ff ff ff 01 	addl   $0x1,-0xc4(%rbp)
  40149c:	83 bd 3c ff ff ff 63 	cmpl   $0x63,-0xc4(%rbp)
  4014a3:	7e ec                	jle    401491 <_Z11icache_goodPv+0x5e0>
  4014a5:	e9 9c 07 00 00       	jmpq   401c46 <_Z11icache_goodPv+0xd95>
  4014aa:	c7 85 38 ff ff ff 00 	movl   $0x0,-0xc8(%rbp)
  4014b1:	00 00 00 
  4014b4:	eb 0b                	jmp    4014c1 <_Z11icache_goodPv+0x610>
  4014b6:	83 45 f8 01          	addl   $0x1,-0x8(%rbp)
  4014ba:	83 85 38 ff ff ff 01 	addl   $0x1,-0xc8(%rbp)
  4014c1:	83 bd 38 ff ff ff 63 	cmpl   $0x63,-0xc8(%rbp)
  4014c8:	7e ec                	jle    4014b6 <_Z11icache_goodPv+0x605>
  4014ca:	e9 77 07 00 00       	jmpq   401c46 <_Z11icache_goodPv+0xd95>
  4014cf:	c7 85 34 ff ff ff 00 	movl   $0x0,-0xcc(%rbp)
  4014d6:	00 00 00 
  4014d9:	eb 0b                	jmp    4014e6 <_Z11icache_goodPv+0x635>
  4014db:	83 45 f8 01          	addl   $0x1,-0x8(%rbp)
  4014df:	83 85 34 ff ff ff 01 	addl   $0x1,-0xcc(%rbp)
  4014e6:	83 bd 34 ff ff ff 63 	cmpl   $0x63,-0xcc(%rbp)
  4014ed:	7e ec                	jle    4014db <_Z11icache_goodPv+0x62a>
  4014ef:	e9 52 07 00 00       	jmpq   401c46 <_Z11icache_goodPv+0xd95>
  4014f4:	c7 85 30 ff ff ff 00 	movl   $0x0,-0xd0(%rbp)
  4014fb:	00 00 00 
  4014fe:	eb 0b                	jmp    40150b <_Z11icache_goodPv+0x65a>
  401500:	83 45 f8 01          	addl   $0x1,-0x8(%rbp)
  401504:	83 85 30 ff ff ff 01 	addl   $0x1,-0xd0(%rbp)
  40150b:	83 bd 30 ff ff ff 63 	cmpl   $0x63,-0xd0(%rbp)
  401512:	7e ec                	jle    401500 <_Z11icache_goodPv+0x64f>
  401514:	e9 2d 07 00 00       	jmpq   401c46 <_Z11icache_goodPv+0xd95>
  401519:	c7 85 2c ff ff ff 00 	movl   $0x0,-0xd4(%rbp)
  401520:	00 00 00 
  401523:	eb 0b                	jmp    401530 <_Z11icache_goodPv+0x67f>
  401525:	83 45 f8 01          	addl   $0x1,-0x8(%rbp)
  401529:	83 85 2c ff ff ff 01 	addl   $0x1,-0xd4(%rbp)
  401530:	83 bd 2c ff ff ff 63 	cmpl   $0x63,-0xd4(%rbp)
  401537:	7e ec                	jle    401525 <_Z11icache_goodPv+0x674>
  401539:	e9 08 07 00 00       	jmpq   401c46 <_Z11icache_goodPv+0xd95>
  40153e:	c7 85 28 ff ff ff 00 	movl   $0x0,-0xd8(%rbp)
  401545:	00 00 00 
  401548:	eb 0b                	jmp    401555 <_Z11icache_goodPv+0x6a4>
  40154a:	83 45 f8 01          	addl   $0x1,-0x8(%rbp)
  40154e:	83 85 28 ff ff ff 01 	addl   $0x1,-0xd8(%rbp)
  401555:	83 bd 28 ff ff ff 63 	cmpl   $0x63,-0xd8(%rbp)
  40155c:	7e ec                	jle    40154a <_Z11icache_goodPv+0x699>
  40155e:	e9 e3 06 00 00       	jmpq   401c46 <_Z11icache_goodPv+0xd95>
  401563:	c7 85 24 ff ff ff 00 	movl   $0x0,-0xdc(%rbp)
  40156a:	00 00 00 
  40156d:	eb 0b                	jmp    40157a <_Z11icache_goodPv+0x6c9>
  40156f:	83 45 f8 01          	addl   $0x1,-0x8(%rbp)
  401573:	83 85 24 ff ff ff 01 	addl   $0x1,-0xdc(%rbp)
  40157a:	83 bd 24 ff ff ff 63 	cmpl   $0x63,-0xdc(%rbp)
  401581:	7e ec                	jle    40156f <_Z11icache_goodPv+0x6be>
  401583:	e9 be 06 00 00       	jmpq   401c46 <_Z11icache_goodPv+0xd95>
  401588:	c7 85 20 ff ff ff 00 	movl   $0x0,-0xe0(%rbp)
  40158f:	00 00 00 
  401592:	eb 0b                	jmp    40159f <_Z11icache_goodPv+0x6ee>
  401594:	83 45 f8 01          	addl   $0x1,-0x8(%rbp)
  401598:	83 85 20 ff ff ff 01 	addl   $0x1,-0xe0(%rbp)
  40159f:	83 bd 20 ff ff ff 63 	cmpl   $0x63,-0xe0(%rbp)
  4015a6:	7e ec                	jle    401594 <_Z11icache_goodPv+0x6e3>
  4015a8:	e9 99 06 00 00       	jmpq   401c46 <_Z11icache_goodPv+0xd95>
  4015ad:	c7 85 1c ff ff ff 00 	movl   $0x0,-0xe4(%rbp)
  4015b4:	00 00 00 
  4015b7:	eb 0b                	jmp    4015c4 <_Z11icache_goodPv+0x713>
  4015b9:	83 45 f8 01          	addl   $0x1,-0x8(%rbp)
  4015bd:	83 85 1c ff ff ff 01 	addl   $0x1,-0xe4(%rbp)
  4015c4:	83 bd 1c ff ff ff 63 	cmpl   $0x63,-0xe4(%rbp)
  4015cb:	7e ec                	jle    4015b9 <_Z11icache_goodPv+0x708>
  4015cd:	e9 74 06 00 00       	jmpq   401c46 <_Z11icache_goodPv+0xd95>
  4015d2:	c7 85 18 ff ff ff 00 	movl   $0x0,-0xe8(%rbp)
  4015d9:	00 00 00 
  4015dc:	eb 0b                	jmp    4015e9 <_Z11icache_goodPv+0x738>
  4015de:	83 45 f8 01          	addl   $0x1,-0x8(%rbp)
  4015e2:	83 85 18 ff ff ff 01 	addl   $0x1,-0xe8(%rbp)
  4015e9:	83 bd 18 ff ff ff 63 	cmpl   $0x63,-0xe8(%rbp)
  4015f0:	7e ec                	jle    4015de <_Z11icache_goodPv+0x72d>
  4015f2:	e9 4f 06 00 00       	jmpq   401c46 <_Z11icache_goodPv+0xd95>
  4015f7:	c7 85 14 ff ff ff 00 	movl   $0x0,-0xec(%rbp)
  4015fe:	00 00 00 
  401601:	eb 0b                	jmp    40160e <_Z11icache_goodPv+0x75d>
  401603:	83 45 f8 01          	addl   $0x1,-0x8(%rbp)
  401607:	83 85 14 ff ff ff 01 	addl   $0x1,-0xec(%rbp)
  40160e:	83 bd 14 ff ff ff 63 	cmpl   $0x63,-0xec(%rbp)
  401615:	7e ec                	jle    401603 <_Z11icache_goodPv+0x752>
  401617:	e9 2a 06 00 00       	jmpq   401c46 <_Z11icache_goodPv+0xd95>
  40161c:	c7 85 10 ff ff ff 00 	movl   $0x0,-0xf0(%rbp)
  401623:	00 00 00 
  401626:	eb 0b                	jmp    401633 <_Z11icache_goodPv+0x782>
  401628:	83 45 f8 01          	addl   $0x1,-0x8(%rbp)
  40162c:	83 85 10 ff ff ff 01 	addl   $0x1,-0xf0(%rbp)
  401633:	83 bd 10 ff ff ff 63 	cmpl   $0x63,-0xf0(%rbp)
  40163a:	7e ec                	jle    401628 <_Z11icache_goodPv+0x777>
  40163c:	e9 05 06 00 00       	jmpq   401c46 <_Z11icache_goodPv+0xd95>
  401641:	c7 85 0c ff ff ff 00 	movl   $0x0,-0xf4(%rbp)
  401648:	00 00 00 
  40164b:	eb 0b                	jmp    401658 <_Z11icache_goodPv+0x7a7>
  40164d:	83 45 f8 01          	addl   $0x1,-0x8(%rbp)
  401651:	83 85 0c ff ff ff 01 	addl   $0x1,-0xf4(%rbp)
  401658:	83 bd 0c ff ff ff 63 	cmpl   $0x63,-0xf4(%rbp)
  40165f:	7e ec                	jle    40164d <_Z11icache_goodPv+0x79c>
  401661:	e9 e0 05 00 00       	jmpq   401c46 <_Z11icache_goodPv+0xd95>
  401666:	c7 85 08 ff ff ff 00 	movl   $0x0,-0xf8(%rbp)
  40166d:	00 00 00 
  401670:	eb 0b                	jmp    40167d <_Z11icache_goodPv+0x7cc>
  401672:	83 45 f8 01          	addl   $0x1,-0x8(%rbp)
  401676:	83 85 08 ff ff ff 01 	addl   $0x1,-0xf8(%rbp)
  40167d:	83 bd 08 ff ff ff 63 	cmpl   $0x63,-0xf8(%rbp)
  401684:	7e ec                	jle    401672 <_Z11icache_goodPv+0x7c1>
  401686:	e9 bb 05 00 00       	jmpq   401c46 <_Z11icache_goodPv+0xd95>
  40168b:	c7 85 04 ff ff ff 00 	movl   $0x0,-0xfc(%rbp)
  401692:	00 00 00 
  401695:	eb 0b                	jmp    4016a2 <_Z11icache_goodPv+0x7f1>
  401697:	83 45 f8 01          	addl   $0x1,-0x8(%rbp)
  40169b:	83 85 04 ff ff ff 01 	addl   $0x1,-0xfc(%rbp)
  4016a2:	83 bd 04 ff ff ff 63 	cmpl   $0x63,-0xfc(%rbp)
  4016a9:	7e ec                	jle    401697 <_Z11icache_goodPv+0x7e6>
  4016ab:	e9 96 05 00 00       	jmpq   401c46 <_Z11icache_goodPv+0xd95>
  4016b0:	c7 85 00 ff ff ff 00 	movl   $0x0,-0x100(%rbp)
  4016b7:	00 00 00 
  4016ba:	eb 0b                	jmp    4016c7 <_Z11icache_goodPv+0x816>
  4016bc:	83 45 f8 01          	addl   $0x1,-0x8(%rbp)
  4016c0:	83 85 00 ff ff ff 01 	addl   $0x1,-0x100(%rbp)
  4016c7:	83 bd 00 ff ff ff 63 	cmpl   $0x63,-0x100(%rbp)
  4016ce:	7e ec                	jle    4016bc <_Z11icache_goodPv+0x80b>
  4016d0:	e9 71 05 00 00       	jmpq   401c46 <_Z11icache_goodPv+0xd95>
  4016d5:	c7 85 fc fe ff ff 00 	movl   $0x0,-0x104(%rbp)
  4016dc:	00 00 00 
  4016df:	eb 0b                	jmp    4016ec <_Z11icache_goodPv+0x83b>
  4016e1:	83 45 f8 01          	addl   $0x1,-0x8(%rbp)
  4016e5:	83 85 fc fe ff ff 01 	addl   $0x1,-0x104(%rbp)
  4016ec:	83 bd fc fe ff ff 63 	cmpl   $0x63,-0x104(%rbp)
  4016f3:	7e ec                	jle    4016e1 <_Z11icache_goodPv+0x830>
  4016f5:	e9 4c 05 00 00       	jmpq   401c46 <_Z11icache_goodPv+0xd95>
  4016fa:	c7 85 f8 fe ff ff 00 	movl   $0x0,-0x108(%rbp)
  401701:	00 00 00 
  401704:	eb 0b                	jmp    401711 <_Z11icache_goodPv+0x860>
  401706:	83 45 f8 01          	addl   $0x1,-0x8(%rbp)
  40170a:	83 85 f8 fe ff ff 01 	addl   $0x1,-0x108(%rbp)
  401711:	83 bd f8 fe ff ff 63 	cmpl   $0x63,-0x108(%rbp)
  401718:	7e ec                	jle    401706 <_Z11icache_goodPv+0x855>
  40171a:	e9 27 05 00 00       	jmpq   401c46 <_Z11icache_goodPv+0xd95>
  40171f:	c7 85 f4 fe ff ff 00 	movl   $0x0,-0x10c(%rbp)
  401726:	00 00 00 
  401729:	eb 0b                	jmp    401736 <_Z11icache_goodPv+0x885>
  40172b:	83 45 f8 01          	addl   $0x1,-0x8(%rbp)
  40172f:	83 85 f4 fe ff ff 01 	addl   $0x1,-0x10c(%rbp)
  401736:	83 bd f4 fe ff ff 63 	cmpl   $0x63,-0x10c(%rbp)
  40173d:	7e ec                	jle    40172b <_Z11icache_goodPv+0x87a>
  40173f:	e9 02 05 00 00       	jmpq   401c46 <_Z11icache_goodPv+0xd95>
  401744:	c7 85 f0 fe ff ff 00 	movl   $0x0,-0x110(%rbp)
  40174b:	00 00 00 
  40174e:	eb 0b                	jmp    40175b <_Z11icache_goodPv+0x8aa>
  401750:	83 45 f8 01          	addl   $0x1,-0x8(%rbp)
  401754:	83 85 f0 fe ff ff 01 	addl   $0x1,-0x110(%rbp)
  40175b:	83 bd f0 fe ff ff 63 	cmpl   $0x63,-0x110(%rbp)
  401762:	7e ec                	jle    401750 <_Z11icache_goodPv+0x89f>
  401764:	e9 dd 04 00 00       	jmpq   401c46 <_Z11icache_goodPv+0xd95>
  401769:	c7 85 ec fe ff ff 00 	movl   $0x0,-0x114(%rbp)
  401770:	00 00 00 
  401773:	eb 0b                	jmp    401780 <_Z11icache_goodPv+0x8cf>
  401775:	83 45 f8 01          	addl   $0x1,-0x8(%rbp)
  401779:	83 85 ec fe ff ff 01 	addl   $0x1,-0x114(%rbp)
  401780:	83 bd ec fe ff ff 63 	cmpl   $0x63,-0x114(%rbp)
  401787:	7e ec                	jle    401775 <_Z11icache_goodPv+0x8c4>
  401789:	e9 b8 04 00 00       	jmpq   401c46 <_Z11icache_goodPv+0xd95>
  40178e:	c7 85 e8 fe ff ff 00 	movl   $0x0,-0x118(%rbp)
  401795:	00 00 00 
  401798:	eb 0b                	jmp    4017a5 <_Z11icache_goodPv+0x8f4>
  40179a:	83 45 f8 01          	addl   $0x1,-0x8(%rbp)
  40179e:	83 85 e8 fe ff ff 01 	addl   $0x1,-0x118(%rbp)
  4017a5:	83 bd e8 fe ff ff 63 	cmpl   $0x63,-0x118(%rbp)
  4017ac:	7e ec                	jle    40179a <_Z11icache_goodPv+0x8e9>
  4017ae:	e9 93 04 00 00       	jmpq   401c46 <_Z11icache_goodPv+0xd95>
  4017b3:	c7 85 e4 fe ff ff 00 	movl   $0x0,-0x11c(%rbp)
  4017ba:	00 00 00 
  4017bd:	eb 0b                	jmp    4017ca <_Z11icache_goodPv+0x919>
  4017bf:	83 45 f8 01          	addl   $0x1,-0x8(%rbp)
  4017c3:	83 85 e4 fe ff ff 01 	addl   $0x1,-0x11c(%rbp)
  4017ca:	83 bd e4 fe ff ff 63 	cmpl   $0x63,-0x11c(%rbp)
  4017d1:	7e ec                	jle    4017bf <_Z11icache_goodPv+0x90e>
  4017d3:	e9 6e 04 00 00       	jmpq   401c46 <_Z11icache_goodPv+0xd95>
  4017d8:	c7 85 e0 fe ff ff 00 	movl   $0x0,-0x120(%rbp)
  4017df:	00 00 00 
  4017e2:	eb 0b                	jmp    4017ef <_Z11icache_goodPv+0x93e>
  4017e4:	83 45 f8 01          	addl   $0x1,-0x8(%rbp)
  4017e8:	83 85 e0 fe ff ff 01 	addl   $0x1,-0x120(%rbp)
  4017ef:	83 bd e0 fe ff ff 63 	cmpl   $0x63,-0x120(%rbp)
  4017f6:	7e ec                	jle    4017e4 <_Z11icache_goodPv+0x933>
  4017f8:	e9 49 04 00 00       	jmpq   401c46 <_Z11icache_goodPv+0xd95>
  4017fd:	c7 85 dc fe ff ff 00 	movl   $0x0,-0x124(%rbp)
  401804:	00 00 00 
  401807:	eb 0b                	jmp    401814 <_Z11icache_goodPv+0x963>
  401809:	83 45 f8 01          	addl   $0x1,-0x8(%rbp)
  40180d:	83 85 dc fe ff ff 01 	addl   $0x1,-0x124(%rbp)
  401814:	83 bd dc fe ff ff 63 	cmpl   $0x63,-0x124(%rbp)
  40181b:	7e ec                	jle    401809 <_Z11icache_goodPv+0x958>
  40181d:	e9 24 04 00 00       	jmpq   401c46 <_Z11icache_goodPv+0xd95>
  401822:	c7 85 d8 fe ff ff 00 	movl   $0x0,-0x128(%rbp)
  401829:	00 00 00 
  40182c:	eb 0b                	jmp    401839 <_Z11icache_goodPv+0x988>
  40182e:	83 45 f8 01          	addl   $0x1,-0x8(%rbp)
  401832:	83 85 d8 fe ff ff 01 	addl   $0x1,-0x128(%rbp)
  401839:	83 bd d8 fe ff ff 63 	cmpl   $0x63,-0x128(%rbp)
  401840:	7e ec                	jle    40182e <_Z11icache_goodPv+0x97d>
  401842:	e9 ff 03 00 00       	jmpq   401c46 <_Z11icache_goodPv+0xd95>
  401847:	c7 85 d4 fe ff ff 00 	movl   $0x0,-0x12c(%rbp)
  40184e:	00 00 00 
  401851:	eb 0b                	jmp    40185e <_Z11icache_goodPv+0x9ad>
  401853:	83 45 f8 01          	addl   $0x1,-0x8(%rbp)
  401857:	83 85 d4 fe ff ff 01 	addl   $0x1,-0x12c(%rbp)
  40185e:	83 bd d4 fe ff ff 63 	cmpl   $0x63,-0x12c(%rbp)
  401865:	7e ec                	jle    401853 <_Z11icache_goodPv+0x9a2>
  401867:	e9 da 03 00 00       	jmpq   401c46 <_Z11icache_goodPv+0xd95>
  40186c:	c7 85 d0 fe ff ff 00 	movl   $0x0,-0x130(%rbp)
  401873:	00 00 00 
  401876:	eb 0b                	jmp    401883 <_Z11icache_goodPv+0x9d2>
  401878:	83 45 f8 01          	addl   $0x1,-0x8(%rbp)
  40187c:	83 85 d0 fe ff ff 01 	addl   $0x1,-0x130(%rbp)
  401883:	83 bd d0 fe ff ff 63 	cmpl   $0x63,-0x130(%rbp)
  40188a:	7e ec                	jle    401878 <_Z11icache_goodPv+0x9c7>
  40188c:	e9 b5 03 00 00       	jmpq   401c46 <_Z11icache_goodPv+0xd95>
  401891:	c7 85 cc fe ff ff 00 	movl   $0x0,-0x134(%rbp)
  401898:	00 00 00 
  40189b:	eb 0b                	jmp    4018a8 <_Z11icache_goodPv+0x9f7>
  40189d:	83 45 f8 01          	addl   $0x1,-0x8(%rbp)
  4018a1:	83 85 cc fe ff ff 01 	addl   $0x1,-0x134(%rbp)
  4018a8:	83 bd cc fe ff ff 63 	cmpl   $0x63,-0x134(%rbp)
  4018af:	7e ec                	jle    40189d <_Z11icache_goodPv+0x9ec>
  4018b1:	e9 90 03 00 00       	jmpq   401c46 <_Z11icache_goodPv+0xd95>
  4018b6:	c7 85 c8 fe ff ff 00 	movl   $0x0,-0x138(%rbp)
  4018bd:	00 00 00 
  4018c0:	eb 0b                	jmp    4018cd <_Z11icache_goodPv+0xa1c>
  4018c2:	83 45 f8 01          	addl   $0x1,-0x8(%rbp)
  4018c6:	83 85 c8 fe ff ff 01 	addl   $0x1,-0x138(%rbp)
  4018cd:	83 bd c8 fe ff ff 63 	cmpl   $0x63,-0x138(%rbp)
  4018d4:	7e ec                	jle    4018c2 <_Z11icache_goodPv+0xa11>
  4018d6:	e9 6b 03 00 00       	jmpq   401c46 <_Z11icache_goodPv+0xd95>
  4018db:	c7 85 c4 fe ff ff 00 	movl   $0x0,-0x13c(%rbp)
  4018e2:	00 00 00 
  4018e5:	eb 0b                	jmp    4018f2 <_Z11icache_goodPv+0xa41>
  4018e7:	83 45 f8 01          	addl   $0x1,-0x8(%rbp)
  4018eb:	83 85 c4 fe ff ff 01 	addl   $0x1,-0x13c(%rbp)
  4018f2:	83 bd c4 fe ff ff 63 	cmpl   $0x63,-0x13c(%rbp)
  4018f9:	7e ec                	jle    4018e7 <_Z11icache_goodPv+0xa36>
  4018fb:	e9 46 03 00 00       	jmpq   401c46 <_Z11icache_goodPv+0xd95>
  401900:	c7 85 c0 fe ff ff 00 	movl   $0x0,-0x140(%rbp)
  401907:	00 00 00 
  40190a:	eb 0b                	jmp    401917 <_Z11icache_goodPv+0xa66>
  40190c:	83 45 f8 01          	addl   $0x1,-0x8(%rbp)
  401910:	83 85 c0 fe ff ff 01 	addl   $0x1,-0x140(%rbp)
  401917:	83 bd c0 fe ff ff 63 	cmpl   $0x63,-0x140(%rbp)
  40191e:	7e ec                	jle    40190c <_Z11icache_goodPv+0xa5b>
  401920:	e9 21 03 00 00       	jmpq   401c46 <_Z11icache_goodPv+0xd95>
  401925:	c7 85 bc fe ff ff 00 	movl   $0x0,-0x144(%rbp)
  40192c:	00 00 00 
  40192f:	eb 0b                	jmp    40193c <_Z11icache_goodPv+0xa8b>
  401931:	83 45 f8 01          	addl   $0x1,-0x8(%rbp)
  401935:	83 85 bc fe ff ff 01 	addl   $0x1,-0x144(%rbp)
  40193c:	83 bd bc fe ff ff 63 	cmpl   $0x63,-0x144(%rbp)
  401943:	7e ec                	jle    401931 <_Z11icache_goodPv+0xa80>
  401945:	e9 fc 02 00 00       	jmpq   401c46 <_Z11icache_goodPv+0xd95>
  40194a:	c7 85 b8 fe ff ff 00 	movl   $0x0,-0x148(%rbp)
  401951:	00 00 00 
  401954:	eb 0b                	jmp    401961 <_Z11icache_goodPv+0xab0>
  401956:	83 45 f8 01          	addl   $0x1,-0x8(%rbp)
  40195a:	83 85 b8 fe ff ff 01 	addl   $0x1,-0x148(%rbp)
  401961:	83 bd b8 fe ff ff 63 	cmpl   $0x63,-0x148(%rbp)
  401968:	7e ec                	jle    401956 <_Z11icache_goodPv+0xaa5>
  40196a:	e9 d7 02 00 00       	jmpq   401c46 <_Z11icache_goodPv+0xd95>
  40196f:	c7 85 b4 fe ff ff 00 	movl   $0x0,-0x14c(%rbp)
  401976:	00 00 00 
  401979:	eb 0b                	jmp    401986 <_Z11icache_goodPv+0xad5>
  40197b:	83 45 f8 01          	addl   $0x1,-0x8(%rbp)
  40197f:	83 85 b4 fe ff ff 01 	addl   $0x1,-0x14c(%rbp)
  401986:	83 bd b4 fe ff ff 63 	cmpl   $0x63,-0x14c(%rbp)
  40198d:	7e ec                	jle    40197b <_Z11icache_goodPv+0xaca>
  40198f:	e9 b2 02 00 00       	jmpq   401c46 <_Z11icache_goodPv+0xd95>
  401994:	c7 85 b0 fe ff ff 00 	movl   $0x0,-0x150(%rbp)
  40199b:	00 00 00 
  40199e:	eb 0b                	jmp    4019ab <_Z11icache_goodPv+0xafa>
  4019a0:	83 45 f8 01          	addl   $0x1,-0x8(%rbp)
  4019a4:	83 85 b0 fe ff ff 01 	addl   $0x1,-0x150(%rbp)
  4019ab:	83 bd b0 fe ff ff 63 	cmpl   $0x63,-0x150(%rbp)
  4019b2:	7e ec                	jle    4019a0 <_Z11icache_goodPv+0xaef>
  4019b4:	e9 8d 02 00 00       	jmpq   401c46 <_Z11icache_goodPv+0xd95>
  4019b9:	c7 85 ac fe ff ff 00 	movl   $0x0,-0x154(%rbp)
  4019c0:	00 00 00 
  4019c3:	eb 0b                	jmp    4019d0 <_Z11icache_goodPv+0xb1f>
  4019c5:	83 45 f8 01          	addl   $0x1,-0x8(%rbp)
  4019c9:	83 85 ac fe ff ff 01 	addl   $0x1,-0x154(%rbp)
  4019d0:	83 bd ac fe ff ff 63 	cmpl   $0x63,-0x154(%rbp)
  4019d7:	7e ec                	jle    4019c5 <_Z11icache_goodPv+0xb14>
  4019d9:	e9 68 02 00 00       	jmpq   401c46 <_Z11icache_goodPv+0xd95>
  4019de:	c7 85 a8 fe ff ff 00 	movl   $0x0,-0x158(%rbp)
  4019e5:	00 00 00 
  4019e8:	eb 0b                	jmp    4019f5 <_Z11icache_goodPv+0xb44>
  4019ea:	83 45 f8 01          	addl   $0x1,-0x8(%rbp)
  4019ee:	83 85 a8 fe ff ff 01 	addl   $0x1,-0x158(%rbp)
  4019f5:	83 bd a8 fe ff ff 63 	cmpl   $0x63,-0x158(%rbp)
  4019fc:	7e ec                	jle    4019ea <_Z11icache_goodPv+0xb39>
  4019fe:	e9 43 02 00 00       	jmpq   401c46 <_Z11icache_goodPv+0xd95>
  401a03:	c7 85 a4 fe ff ff 00 	movl   $0x0,-0x15c(%rbp)
  401a0a:	00 00 00 
  401a0d:	eb 0b                	jmp    401a1a <_Z11icache_goodPv+0xb69>
  401a0f:	83 45 f8 01          	addl   $0x1,-0x8(%rbp)
  401a13:	83 85 a4 fe ff ff 01 	addl   $0x1,-0x15c(%rbp)
  401a1a:	83 bd a4 fe ff ff 63 	cmpl   $0x63,-0x15c(%rbp)
  401a21:	7e ec                	jle    401a0f <_Z11icache_goodPv+0xb5e>
  401a23:	e9 1e 02 00 00       	jmpq   401c46 <_Z11icache_goodPv+0xd95>
  401a28:	c7 85 a0 fe ff ff 00 	movl   $0x0,-0x160(%rbp)
  401a2f:	00 00 00 
  401a32:	eb 0b                	jmp    401a3f <_Z11icache_goodPv+0xb8e>
  401a34:	83 45 f8 01          	addl   $0x1,-0x8(%rbp)
  401a38:	83 85 a0 fe ff ff 01 	addl   $0x1,-0x160(%rbp)
  401a3f:	83 bd a0 fe ff ff 63 	cmpl   $0x63,-0x160(%rbp)
  401a46:	7e ec                	jle    401a34 <_Z11icache_goodPv+0xb83>
  401a48:	e9 f9 01 00 00       	jmpq   401c46 <_Z11icache_goodPv+0xd95>
  401a4d:	c7 85 9c fe ff ff 00 	movl   $0x0,-0x164(%rbp)
  401a54:	00 00 00 
  401a57:	eb 0b                	jmp    401a64 <_Z11icache_goodPv+0xbb3>
  401a59:	83 45 f8 01          	addl   $0x1,-0x8(%rbp)
  401a5d:	83 85 9c fe ff ff 01 	addl   $0x1,-0x164(%rbp)
  401a64:	83 bd 9c fe ff ff 63 	cmpl   $0x63,-0x164(%rbp)
  401a6b:	7e ec                	jle    401a59 <_Z11icache_goodPv+0xba8>
  401a6d:	e9 d4 01 00 00       	jmpq   401c46 <_Z11icache_goodPv+0xd95>
  401a72:	c7 85 98 fe ff ff 00 	movl   $0x0,-0x168(%rbp)
  401a79:	00 00 00 
  401a7c:	eb 0b                	jmp    401a89 <_Z11icache_goodPv+0xbd8>
  401a7e:	83 45 f8 01          	addl   $0x1,-0x8(%rbp)
  401a82:	83 85 98 fe ff ff 01 	addl   $0x1,-0x168(%rbp)
  401a89:	83 bd 98 fe ff ff 63 	cmpl   $0x63,-0x168(%rbp)
  401a90:	7e ec                	jle    401a7e <_Z11icache_goodPv+0xbcd>
  401a92:	e9 af 01 00 00       	jmpq   401c46 <_Z11icache_goodPv+0xd95>
  401a97:	c7 85 94 fe ff ff 00 	movl   $0x0,-0x16c(%rbp)
  401a9e:	00 00 00 
  401aa1:	eb 0b                	jmp    401aae <_Z11icache_goodPv+0xbfd>
  401aa3:	83 45 f8 01          	addl   $0x1,-0x8(%rbp)
  401aa7:	83 85 94 fe ff ff 01 	addl   $0x1,-0x16c(%rbp)
  401aae:	83 bd 94 fe ff ff 63 	cmpl   $0x63,-0x16c(%rbp)
  401ab5:	7e ec                	jle    401aa3 <_Z11icache_goodPv+0xbf2>
  401ab7:	e9 8a 01 00 00       	jmpq   401c46 <_Z11icache_goodPv+0xd95>
  401abc:	c7 85 90 fe ff ff 00 	movl   $0x0,-0x170(%rbp)
  401ac3:	00 00 00 
  401ac6:	eb 0b                	jmp    401ad3 <_Z11icache_goodPv+0xc22>
  401ac8:	83 45 f8 01          	addl   $0x1,-0x8(%rbp)
  401acc:	83 85 90 fe ff ff 01 	addl   $0x1,-0x170(%rbp)
  401ad3:	83 bd 90 fe ff ff 63 	cmpl   $0x63,-0x170(%rbp)
  401ada:	7e ec                	jle    401ac8 <_Z11icache_goodPv+0xc17>
  401adc:	e9 65 01 00 00       	jmpq   401c46 <_Z11icache_goodPv+0xd95>
  401ae1:	c7 85 8c fe ff ff 00 	movl   $0x0,-0x174(%rbp)
  401ae8:	00 00 00 
  401aeb:	eb 0b                	jmp    401af8 <_Z11icache_goodPv+0xc47>
  401aed:	83 45 f8 01          	addl   $0x1,-0x8(%rbp)
  401af1:	83 85 8c fe ff ff 01 	addl   $0x1,-0x174(%rbp)
  401af8:	83 bd 8c fe ff ff 63 	cmpl   $0x63,-0x174(%rbp)
  401aff:	7e ec                	jle    401aed <_Z11icache_goodPv+0xc3c>
  401b01:	e9 40 01 00 00       	jmpq   401c46 <_Z11icache_goodPv+0xd95>
  401b06:	c7 85 88 fe ff ff 00 	movl   $0x0,-0x178(%rbp)
  401b0d:	00 00 00 
  401b10:	eb 0b                	jmp    401b1d <_Z11icache_goodPv+0xc6c>
  401b12:	83 45 f8 01          	addl   $0x1,-0x8(%rbp)
  401b16:	83 85 88 fe ff ff 01 	addl   $0x1,-0x178(%rbp)
  401b1d:	83 bd 88 fe ff ff 63 	cmpl   $0x63,-0x178(%rbp)
  401b24:	7e ec                	jle    401b12 <_Z11icache_goodPv+0xc61>
  401b26:	e9 1b 01 00 00       	jmpq   401c46 <_Z11icache_goodPv+0xd95>
  401b2b:	c7 85 84 fe ff ff 00 	movl   $0x0,-0x17c(%rbp)
  401b32:	00 00 00 
  401b35:	eb 0b                	jmp    401b42 <_Z11icache_goodPv+0xc91>
  401b37:	83 45 f8 01          	addl   $0x1,-0x8(%rbp)
  401b3b:	83 85 84 fe ff ff 01 	addl   $0x1,-0x17c(%rbp)
  401b42:	83 bd 84 fe ff ff 63 	cmpl   $0x63,-0x17c(%rbp)
  401b49:	7e ec                	jle    401b37 <_Z11icache_goodPv+0xc86>
  401b4b:	e9 f6 00 00 00       	jmpq   401c46 <_Z11icache_goodPv+0xd95>
  401b50:	c7 85 80 fe ff ff 00 	movl   $0x0,-0x180(%rbp)
  401b57:	00 00 00 
  401b5a:	eb 0b                	jmp    401b67 <_Z11icache_goodPv+0xcb6>
  401b5c:	83 45 f8 01          	addl   $0x1,-0x8(%rbp)
  401b60:	83 85 80 fe ff ff 01 	addl   $0x1,-0x180(%rbp)
  401b67:	83 bd 80 fe ff ff 63 	cmpl   $0x63,-0x180(%rbp)
  401b6e:	7e ec                	jle    401b5c <_Z11icache_goodPv+0xcab>
  401b70:	e9 d1 00 00 00       	jmpq   401c46 <_Z11icache_goodPv+0xd95>
  401b75:	c7 85 7c fe ff ff 00 	movl   $0x0,-0x184(%rbp)
  401b7c:	00 00 00 
  401b7f:	eb 0b                	jmp    401b8c <_Z11icache_goodPv+0xcdb>
  401b81:	83 45 f8 01          	addl   $0x1,-0x8(%rbp)
  401b85:	83 85 7c fe ff ff 01 	addl   $0x1,-0x184(%rbp)
  401b8c:	83 bd 7c fe ff ff 63 	cmpl   $0x63,-0x184(%rbp)
  401b93:	7e ec                	jle    401b81 <_Z11icache_goodPv+0xcd0>
  401b95:	e9 ac 00 00 00       	jmpq   401c46 <_Z11icache_goodPv+0xd95>
  401b9a:	c7 85 78 fe ff ff 00 	movl   $0x0,-0x188(%rbp)
  401ba1:	00 00 00 
  401ba4:	eb 0b                	jmp    401bb1 <_Z11icache_goodPv+0xd00>
  401ba6:	83 45 f8 01          	addl   $0x1,-0x8(%rbp)
  401baa:	83 85 78 fe ff ff 01 	addl   $0x1,-0x188(%rbp)
  401bb1:	83 bd 78 fe ff ff 63 	cmpl   $0x63,-0x188(%rbp)
  401bb8:	7e ec                	jle    401ba6 <_Z11icache_goodPv+0xcf5>
  401bba:	e9 87 00 00 00       	jmpq   401c46 <_Z11icache_goodPv+0xd95>
  401bbf:	c7 85 74 fe ff ff 00 	movl   $0x0,-0x18c(%rbp)
  401bc6:	00 00 00 
  401bc9:	eb 0b                	jmp    401bd6 <_Z11icache_goodPv+0xd25>
  401bcb:	83 45 f8 01          	addl   $0x1,-0x8(%rbp)
  401bcf:	83 85 74 fe ff ff 01 	addl   $0x1,-0x18c(%rbp)
  401bd6:	83 bd 74 fe ff ff 63 	cmpl   $0x63,-0x18c(%rbp)
  401bdd:	7e ec                	jle    401bcb <_Z11icache_goodPv+0xd1a>
  401bdf:	eb 65                	jmp    401c46 <_Z11icache_goodPv+0xd95>
  401be1:	c7 85 70 fe ff ff 00 	movl   $0x0,-0x190(%rbp)
  401be8:	00 00 00 
  401beb:	eb 0b                	jmp    401bf8 <_Z11icache_goodPv+0xd47>
  401bed:	83 45 f8 01          	addl   $0x1,-0x8(%rbp)
  401bf1:	83 85 70 fe ff ff 01 	addl   $0x1,-0x190(%rbp)
  401bf8:	83 bd 70 fe ff ff 63 	cmpl   $0x63,-0x190(%rbp)
  401bff:	7e ec                	jle    401bed <_Z11icache_goodPv+0xd3c>
  401c01:	eb 43                	jmp    401c46 <_Z11icache_goodPv+0xd95>
  401c03:	c7 85 6c fe ff ff 00 	movl   $0x0,-0x194(%rbp)
  401c0a:	00 00 00 
  401c0d:	eb 0b                	jmp    401c1a <_Z11icache_goodPv+0xd69>
  401c0f:	83 45 f8 01          	addl   $0x1,-0x8(%rbp)
  401c13:	83 85 6c fe ff ff 01 	addl   $0x1,-0x194(%rbp)
  401c1a:	83 bd 6c fe ff ff 63 	cmpl   $0x63,-0x194(%rbp)
  401c21:	7e ec                	jle    401c0f <_Z11icache_goodPv+0xd5e>
  401c23:	eb 21                	jmp    401c46 <_Z11icache_goodPv+0xd95>
  401c25:	c7 85 68 fe ff ff 00 	movl   $0x0,-0x198(%rbp)
  401c2c:	00 00 00 
  401c2f:	eb 0b                	jmp    401c3c <_Z11icache_goodPv+0xd8b>
  401c31:	83 45 f8 01          	addl   $0x1,-0x8(%rbp)
  401c35:	83 85 68 fe ff ff 01 	addl   $0x1,-0x198(%rbp)
  401c3c:	83 bd 68 fe ff ff 63 	cmpl   $0x63,-0x198(%rbp)
  401c43:	7e ec                	jle    401c31 <_Z11icache_goodPv+0xd80>
  401c45:	90                   	nop
  401c46:	83 45 fc 01          	addl   $0x1,-0x4(%rbp)
  401c4a:	81 7d fc 0f 27 00 00 	cmpl   $0x270f,-0x4(%rbp)
  401c51:	0f 8e 78 f2 ff ff    	jle    400ecf <_Z11icache_goodPv+0x1e>
  401c57:	c9                   	leaveq 
  401c58:	c3                   	retq   

0000000000401c59 <_Z11icache_missPv>:
  401c59:	55                   	push   %rbp
  401c5a:	48 89 e5             	mov    %rsp,%rbp
  401c5d:	48 81 ec c0 01 00 00 	sub    $0x1c0,%rsp
  401c64:	48 89 bd 48 fe ff ff 	mov    %rdi,-0x1b8(%rbp)
  401c6b:	48 8d 85 60 fe ff ff 	lea    -0x1a0(%rbp),%rax
  401c72:	be 01 00 00 00       	mov    $0x1,%esi
  401c77:	48 89 c7             	mov    %rax,%rdi
  401c7a:	e8 4d 0e 00 00       	callq  402acc <_ZNSt26linear_congruential_engineImLm16807ELm0ELm2147483647EEC1Em>
  401c7f:	48 8d 85 50 fe ff ff 	lea    -0x1b0(%rbp),%rax
  401c86:	ba 64 00 00 00       	mov    $0x64,%edx
  401c8b:	be 00 00 00 00       	mov    $0x0,%esi
  401c90:	48 89 c7             	mov    %rax,%rdi
  401c93:	e8 5a 0e 00 00       	callq  402af2 <_ZNSt24uniform_int_distributionIiEC1Eii>
  401c98:	c7 45 fc 00 00 00 00 	movl   $0x0,-0x4(%rbp)
  401c9f:	e9 92 0d 00 00       	jmpq   402a36 <_Z11icache_missPv+0xddd>
  401ca4:	c7 45 f8 00 00 00 00 	movl   $0x0,-0x8(%rbp)
  401cab:	48 8d 95 60 fe ff ff 	lea    -0x1a0(%rbp),%rdx
  401cb2:	48 8d 85 50 fe ff ff 	lea    -0x1b0(%rbp),%rax
  401cb9:	48 89 d6             	mov    %rdx,%rsi
  401cbc:	48 89 c7             	mov    %rax,%rdi
  401cbf:	e8 56 0e 00 00       	callq  402b1a <_ZNSt24uniform_int_distributionIiEclISt26linear_congruential_engineImLm16807ELm0ELm2147483647EEEEiRT_>
  401cc4:	83 f8 63             	cmp    $0x63,%eax
  401cc7:	0f 87 65 0d 00 00    	ja     402a32 <_Z11icache_missPv+0xdd9>
  401ccd:	89 c0                	mov    %eax,%eax
  401ccf:	48 8b 04 c5 a8 3d 40 	mov    0x403da8(,%rax,8),%rax
  401cd6:	00 
  401cd7:	ff e0                	jmpq   *%rax
  401cd9:	c7 45 f4 00 00 00 00 	movl   $0x0,-0xc(%rbp)
  401ce0:	eb 08                	jmp    401cea <_Z11icache_missPv+0x91>
  401ce2:	83 45 f8 01          	addl   $0x1,-0x8(%rbp)
  401ce6:	83 45 f4 01          	addl   $0x1,-0xc(%rbp)
  401cea:	83 7d f4 63          	cmpl   $0x63,-0xc(%rbp)
  401cee:	7e f2                	jle    401ce2 <_Z11icache_missPv+0x89>
  401cf0:	e9 3d 0d 00 00       	jmpq   402a32 <_Z11icache_missPv+0xdd9>
  401cf5:	c7 45 f0 00 00 00 00 	movl   $0x0,-0x10(%rbp)
  401cfc:	eb 08                	jmp    401d06 <_Z11icache_missPv+0xad>
  401cfe:	83 45 f8 01          	addl   $0x1,-0x8(%rbp)
  401d02:	83 45 f0 01          	addl   $0x1,-0x10(%rbp)
  401d06:	83 7d f0 63          	cmpl   $0x63,-0x10(%rbp)
  401d0a:	7e f2                	jle    401cfe <_Z11icache_missPv+0xa5>
  401d0c:	e9 21 0d 00 00       	jmpq   402a32 <_Z11icache_missPv+0xdd9>
  401d11:	c7 45 ec 00 00 00 00 	movl   $0x0,-0x14(%rbp)
  401d18:	eb 08                	jmp    401d22 <_Z11icache_missPv+0xc9>
  401d1a:	83 45 f8 01          	addl   $0x1,-0x8(%rbp)
  401d1e:	83 45 ec 01          	addl   $0x1,-0x14(%rbp)
  401d22:	83 7d ec 63          	cmpl   $0x63,-0x14(%rbp)
  401d26:	7e f2                	jle    401d1a <_Z11icache_missPv+0xc1>
  401d28:	e9 05 0d 00 00       	jmpq   402a32 <_Z11icache_missPv+0xdd9>
  401d2d:	c7 45 e8 00 00 00 00 	movl   $0x0,-0x18(%rbp)
  401d34:	eb 08                	jmp    401d3e <_Z11icache_missPv+0xe5>
  401d36:	83 45 f8 01          	addl   $0x1,-0x8(%rbp)
  401d3a:	83 45 e8 01          	addl   $0x1,-0x18(%rbp)
  401d3e:	83 7d e8 63          	cmpl   $0x63,-0x18(%rbp)
  401d42:	7e f2                	jle    401d36 <_Z11icache_missPv+0xdd>
  401d44:	e9 e9 0c 00 00       	jmpq   402a32 <_Z11icache_missPv+0xdd9>
  401d49:	c7 45 e4 00 00 00 00 	movl   $0x0,-0x1c(%rbp)
  401d50:	eb 08                	jmp    401d5a <_Z11icache_missPv+0x101>
  401d52:	83 45 f8 01          	addl   $0x1,-0x8(%rbp)
  401d56:	83 45 e4 01          	addl   $0x1,-0x1c(%rbp)
  401d5a:	83 7d e4 63          	cmpl   $0x63,-0x1c(%rbp)
  401d5e:	7e f2                	jle    401d52 <_Z11icache_missPv+0xf9>
  401d60:	e9 cd 0c 00 00       	jmpq   402a32 <_Z11icache_missPv+0xdd9>
  401d65:	c7 45 e0 00 00 00 00 	movl   $0x0,-0x20(%rbp)
  401d6c:	eb 08                	jmp    401d76 <_Z11icache_missPv+0x11d>
  401d6e:	83 45 f8 01          	addl   $0x1,-0x8(%rbp)
  401d72:	83 45 e0 01          	addl   $0x1,-0x20(%rbp)
  401d76:	83 7d e0 63          	cmpl   $0x63,-0x20(%rbp)
  401d7a:	7e f2                	jle    401d6e <_Z11icache_missPv+0x115>
  401d7c:	e9 b1 0c 00 00       	jmpq   402a32 <_Z11icache_missPv+0xdd9>
  401d81:	c7 45 dc 00 00 00 00 	movl   $0x0,-0x24(%rbp)
  401d88:	eb 08                	jmp    401d92 <_Z11icache_missPv+0x139>
  401d8a:	83 45 f8 01          	addl   $0x1,-0x8(%rbp)
  401d8e:	83 45 dc 01          	addl   $0x1,-0x24(%rbp)
  401d92:	83 7d dc 63          	cmpl   $0x63,-0x24(%rbp)
  401d96:	7e f2                	jle    401d8a <_Z11icache_missPv+0x131>
  401d98:	e9 95 0c 00 00       	jmpq   402a32 <_Z11icache_missPv+0xdd9>
  401d9d:	c7 45 d8 00 00 00 00 	movl   $0x0,-0x28(%rbp)
  401da4:	eb 08                	jmp    401dae <_Z11icache_missPv+0x155>
  401da6:	83 45 f8 01          	addl   $0x1,-0x8(%rbp)
  401daa:	83 45 d8 01          	addl   $0x1,-0x28(%rbp)
  401dae:	83 7d d8 63          	cmpl   $0x63,-0x28(%rbp)
  401db2:	7e f2                	jle    401da6 <_Z11icache_missPv+0x14d>
  401db4:	e9 79 0c 00 00       	jmpq   402a32 <_Z11icache_missPv+0xdd9>
  401db9:	c7 45 d4 00 00 00 00 	movl   $0x0,-0x2c(%rbp)
  401dc0:	eb 08                	jmp    401dca <_Z11icache_missPv+0x171>
  401dc2:	83 45 f8 01          	addl   $0x1,-0x8(%rbp)
  401dc6:	83 45 d4 01          	addl   $0x1,-0x2c(%rbp)
  401dca:	83 7d d4 63          	cmpl   $0x63,-0x2c(%rbp)
  401dce:	7e f2                	jle    401dc2 <_Z11icache_missPv+0x169>
  401dd0:	e9 5d 0c 00 00       	jmpq   402a32 <_Z11icache_missPv+0xdd9>
  401dd5:	c7 45 d0 00 00 00 00 	movl   $0x0,-0x30(%rbp)
  401ddc:	eb 08                	jmp    401de6 <_Z11icache_missPv+0x18d>
  401dde:	83 45 f8 01          	addl   $0x1,-0x8(%rbp)
  401de2:	83 45 d0 01          	addl   $0x1,-0x30(%rbp)
  401de6:	83 7d d0 63          	cmpl   $0x63,-0x30(%rbp)
  401dea:	7e f2                	jle    401dde <_Z11icache_missPv+0x185>
  401dec:	e9 41 0c 00 00       	jmpq   402a32 <_Z11icache_missPv+0xdd9>
  401df1:	c7 45 cc 00 00 00 00 	movl   $0x0,-0x34(%rbp)
  401df8:	eb 08                	jmp    401e02 <_Z11icache_missPv+0x1a9>
  401dfa:	83 45 f8 01          	addl   $0x1,-0x8(%rbp)
  401dfe:	83 45 cc 01          	addl   $0x1,-0x34(%rbp)
  401e02:	83 7d cc 63          	cmpl   $0x63,-0x34(%rbp)
  401e06:	7e f2                	jle    401dfa <_Z11icache_missPv+0x1a1>
  401e08:	e9 25 0c 00 00       	jmpq   402a32 <_Z11icache_missPv+0xdd9>
  401e0d:	c7 45 c8 00 00 00 00 	movl   $0x0,-0x38(%rbp)
  401e14:	eb 08                	jmp    401e1e <_Z11icache_missPv+0x1c5>
  401e16:	83 45 f8 01          	addl   $0x1,-0x8(%rbp)
  401e1a:	83 45 c8 01          	addl   $0x1,-0x38(%rbp)
  401e1e:	83 7d c8 63          	cmpl   $0x63,-0x38(%rbp)
  401e22:	7e f2                	jle    401e16 <_Z11icache_missPv+0x1bd>
  401e24:	e9 09 0c 00 00       	jmpq   402a32 <_Z11icache_missPv+0xdd9>
  401e29:	c7 45 c4 00 00 00 00 	movl   $0x0,-0x3c(%rbp)
  401e30:	eb 08                	jmp    401e3a <_Z11icache_missPv+0x1e1>
  401e32:	83 45 f8 01          	addl   $0x1,-0x8(%rbp)
  401e36:	83 45 c4 01          	addl   $0x1,-0x3c(%rbp)
  401e3a:	83 7d c4 63          	cmpl   $0x63,-0x3c(%rbp)
  401e3e:	7e f2                	jle    401e32 <_Z11icache_missPv+0x1d9>
  401e40:	e9 ed 0b 00 00       	jmpq   402a32 <_Z11icache_missPv+0xdd9>
  401e45:	c7 45 c0 00 00 00 00 	movl   $0x0,-0x40(%rbp)
  401e4c:	eb 08                	jmp    401e56 <_Z11icache_missPv+0x1fd>
  401e4e:	83 45 f8 01          	addl   $0x1,-0x8(%rbp)
  401e52:	83 45 c0 01          	addl   $0x1,-0x40(%rbp)
  401e56:	83 7d c0 63          	cmpl   $0x63,-0x40(%rbp)
  401e5a:	7e f2                	jle    401e4e <_Z11icache_missPv+0x1f5>
  401e5c:	e9 d1 0b 00 00       	jmpq   402a32 <_Z11icache_missPv+0xdd9>
  401e61:	c7 45 bc 00 00 00 00 	movl   $0x0,-0x44(%rbp)
  401e68:	eb 08                	jmp    401e72 <_Z11icache_missPv+0x219>
  401e6a:	83 45 f8 01          	addl   $0x1,-0x8(%rbp)
  401e6e:	83 45 bc 01          	addl   $0x1,-0x44(%rbp)
  401e72:	83 7d bc 63          	cmpl   $0x63,-0x44(%rbp)
  401e76:	7e f2                	jle    401e6a <_Z11icache_missPv+0x211>
  401e78:	e9 b5 0b 00 00       	jmpq   402a32 <_Z11icache_missPv+0xdd9>
  401e7d:	c7 45 b8 00 00 00 00 	movl   $0x0,-0x48(%rbp)
  401e84:	eb 08                	jmp    401e8e <_Z11icache_missPv+0x235>
  401e86:	83 45 f8 01          	addl   $0x1,-0x8(%rbp)
  401e8a:	83 45 b8 01          	addl   $0x1,-0x48(%rbp)
  401e8e:	83 7d b8 63          	cmpl   $0x63,-0x48(%rbp)
  401e92:	7e f2                	jle    401e86 <_Z11icache_missPv+0x22d>
  401e94:	e9 99 0b 00 00       	jmpq   402a32 <_Z11icache_missPv+0xdd9>
  401e99:	c7 45 b4 00 00 00 00 	movl   $0x0,-0x4c(%rbp)
  401ea0:	eb 08                	jmp    401eaa <_Z11icache_missPv+0x251>
  401ea2:	83 45 f8 01          	addl   $0x1,-0x8(%rbp)
  401ea6:	83 45 b4 01          	addl   $0x1,-0x4c(%rbp)
  401eaa:	83 7d b4 63          	cmpl   $0x63,-0x4c(%rbp)
  401eae:	7e f2                	jle    401ea2 <_Z11icache_missPv+0x249>
  401eb0:	e9 7d 0b 00 00       	jmpq   402a32 <_Z11icache_missPv+0xdd9>
  401eb5:	c7 45 b0 00 00 00 00 	movl   $0x0,-0x50(%rbp)
  401ebc:	eb 08                	jmp    401ec6 <_Z11icache_missPv+0x26d>
  401ebe:	83 45 f8 01          	addl   $0x1,-0x8(%rbp)
  401ec2:	83 45 b0 01          	addl   $0x1,-0x50(%rbp)
  401ec6:	83 7d b0 63          	cmpl   $0x63,-0x50(%rbp)
  401eca:	7e f2                	jle    401ebe <_Z11icache_missPv+0x265>
  401ecc:	e9 61 0b 00 00       	jmpq   402a32 <_Z11icache_missPv+0xdd9>
  401ed1:	c7 45 ac 00 00 00 00 	movl   $0x0,-0x54(%rbp)
  401ed8:	eb 08                	jmp    401ee2 <_Z11icache_missPv+0x289>
  401eda:	83 45 f8 01          	addl   $0x1,-0x8(%rbp)
  401ede:	83 45 ac 01          	addl   $0x1,-0x54(%rbp)
  401ee2:	83 7d ac 63          	cmpl   $0x63,-0x54(%rbp)
  401ee6:	7e f2                	jle    401eda <_Z11icache_missPv+0x281>
  401ee8:	e9 45 0b 00 00       	jmpq   402a32 <_Z11icache_missPv+0xdd9>
  401eed:	c7 45 a8 00 00 00 00 	movl   $0x0,-0x58(%rbp)
  401ef4:	eb 08                	jmp    401efe <_Z11icache_missPv+0x2a5>
  401ef6:	83 45 f8 01          	addl   $0x1,-0x8(%rbp)
  401efa:	83 45 a8 01          	addl   $0x1,-0x58(%rbp)
  401efe:	83 7d a8 63          	cmpl   $0x63,-0x58(%rbp)
  401f02:	7e f2                	jle    401ef6 <_Z11icache_missPv+0x29d>
  401f04:	e9 29 0b 00 00       	jmpq   402a32 <_Z11icache_missPv+0xdd9>
  401f09:	c7 45 a4 00 00 00 00 	movl   $0x0,-0x5c(%rbp)
  401f10:	eb 08                	jmp    401f1a <_Z11icache_missPv+0x2c1>
  401f12:	83 45 f8 01          	addl   $0x1,-0x8(%rbp)
  401f16:	83 45 a4 01          	addl   $0x1,-0x5c(%rbp)
  401f1a:	83 7d a4 63          	cmpl   $0x63,-0x5c(%rbp)
  401f1e:	7e f2                	jle    401f12 <_Z11icache_missPv+0x2b9>
  401f20:	e9 0d 0b 00 00       	jmpq   402a32 <_Z11icache_missPv+0xdd9>
  401f25:	c7 45 a0 00 00 00 00 	movl   $0x0,-0x60(%rbp)
  401f2c:	eb 08                	jmp    401f36 <_Z11icache_missPv+0x2dd>
  401f2e:	83 45 f8 01          	addl   $0x1,-0x8(%rbp)
  401f32:	83 45 a0 01          	addl   $0x1,-0x60(%rbp)
  401f36:	83 7d a0 63          	cmpl   $0x63,-0x60(%rbp)
  401f3a:	7e f2                	jle    401f2e <_Z11icache_missPv+0x2d5>
  401f3c:	e9 f1 0a 00 00       	jmpq   402a32 <_Z11icache_missPv+0xdd9>
  401f41:	c7 45 9c 00 00 00 00 	movl   $0x0,-0x64(%rbp)
  401f48:	eb 08                	jmp    401f52 <_Z11icache_missPv+0x2f9>
  401f4a:	83 45 f8 01          	addl   $0x1,-0x8(%rbp)
  401f4e:	83 45 9c 01          	addl   $0x1,-0x64(%rbp)
  401f52:	83 7d 9c 63          	cmpl   $0x63,-0x64(%rbp)
  401f56:	7e f2                	jle    401f4a <_Z11icache_missPv+0x2f1>
  401f58:	e9 d5 0a 00 00       	jmpq   402a32 <_Z11icache_missPv+0xdd9>
  401f5d:	c7 45 98 00 00 00 00 	movl   $0x0,-0x68(%rbp)
  401f64:	eb 08                	jmp    401f6e <_Z11icache_missPv+0x315>
  401f66:	83 45 f8 01          	addl   $0x1,-0x8(%rbp)
  401f6a:	83 45 98 01          	addl   $0x1,-0x68(%rbp)
  401f6e:	83 7d 98 63          	cmpl   $0x63,-0x68(%rbp)
  401f72:	7e f2                	jle    401f66 <_Z11icache_missPv+0x30d>
  401f74:	e9 b9 0a 00 00       	jmpq   402a32 <_Z11icache_missPv+0xdd9>
  401f79:	c7 45 94 00 00 00 00 	movl   $0x0,-0x6c(%rbp)
  401f80:	eb 08                	jmp    401f8a <_Z11icache_missPv+0x331>
  401f82:	83 45 f8 01          	addl   $0x1,-0x8(%rbp)
  401f86:	83 45 94 01          	addl   $0x1,-0x6c(%rbp)
  401f8a:	83 7d 94 63          	cmpl   $0x63,-0x6c(%rbp)
  401f8e:	7e f2                	jle    401f82 <_Z11icache_missPv+0x329>
  401f90:	e9 9d 0a 00 00       	jmpq   402a32 <_Z11icache_missPv+0xdd9>
  401f95:	c7 45 90 00 00 00 00 	movl   $0x0,-0x70(%rbp)
  401f9c:	eb 08                	jmp    401fa6 <_Z11icache_missPv+0x34d>
  401f9e:	83 45 f8 01          	addl   $0x1,-0x8(%rbp)
  401fa2:	83 45 90 01          	addl   $0x1,-0x70(%rbp)
  401fa6:	83 7d 90 63          	cmpl   $0x63,-0x70(%rbp)
  401faa:	7e f2                	jle    401f9e <_Z11icache_missPv+0x345>
  401fac:	e9 81 0a 00 00       	jmpq   402a32 <_Z11icache_missPv+0xdd9>
  401fb1:	c7 45 8c 00 00 00 00 	movl   $0x0,-0x74(%rbp)
  401fb8:	eb 08                	jmp    401fc2 <_Z11icache_missPv+0x369>
  401fba:	83 45 f8 01          	addl   $0x1,-0x8(%rbp)
  401fbe:	83 45 8c 01          	addl   $0x1,-0x74(%rbp)
  401fc2:	83 7d 8c 63          	cmpl   $0x63,-0x74(%rbp)
  401fc6:	7e f2                	jle    401fba <_Z11icache_missPv+0x361>
  401fc8:	e9 65 0a 00 00       	jmpq   402a32 <_Z11icache_missPv+0xdd9>
  401fcd:	c7 45 88 00 00 00 00 	movl   $0x0,-0x78(%rbp)
  401fd4:	eb 08                	jmp    401fde <_Z11icache_missPv+0x385>
  401fd6:	83 45 f8 01          	addl   $0x1,-0x8(%rbp)
  401fda:	83 45 88 01          	addl   $0x1,-0x78(%rbp)
  401fde:	83 7d 88 63          	cmpl   $0x63,-0x78(%rbp)
  401fe2:	7e f2                	jle    401fd6 <_Z11icache_missPv+0x37d>
  401fe4:	e9 49 0a 00 00       	jmpq   402a32 <_Z11icache_missPv+0xdd9>
  401fe9:	c7 45 84 00 00 00 00 	movl   $0x0,-0x7c(%rbp)
  401ff0:	eb 08                	jmp    401ffa <_Z11icache_missPv+0x3a1>
  401ff2:	83 45 f8 01          	addl   $0x1,-0x8(%rbp)
  401ff6:	83 45 84 01          	addl   $0x1,-0x7c(%rbp)
  401ffa:	83 7d 84 63          	cmpl   $0x63,-0x7c(%rbp)
  401ffe:	7e f2                	jle    401ff2 <_Z11icache_missPv+0x399>
  402000:	e9 2d 0a 00 00       	jmpq   402a32 <_Z11icache_missPv+0xdd9>
  402005:	c7 45 80 00 00 00 00 	movl   $0x0,-0x80(%rbp)
  40200c:	eb 08                	jmp    402016 <_Z11icache_missPv+0x3bd>
  40200e:	83 45 f8 01          	addl   $0x1,-0x8(%rbp)
  402012:	83 45 80 01          	addl   $0x1,-0x80(%rbp)
  402016:	83 7d 80 63          	cmpl   $0x63,-0x80(%rbp)
  40201a:	7e f2                	jle    40200e <_Z11icache_missPv+0x3b5>
  40201c:	e9 11 0a 00 00       	jmpq   402a32 <_Z11icache_missPv+0xdd9>
  402021:	c7 85 7c ff ff ff 00 	movl   $0x0,-0x84(%rbp)
  402028:	00 00 00 
  40202b:	eb 0b                	jmp    402038 <_Z11icache_missPv+0x3df>
  40202d:	83 45 f8 01          	addl   $0x1,-0x8(%rbp)
  402031:	83 85 7c ff ff ff 01 	addl   $0x1,-0x84(%rbp)
  402038:	83 bd 7c ff ff ff 63 	cmpl   $0x63,-0x84(%rbp)
  40203f:	7e ec                	jle    40202d <_Z11icache_missPv+0x3d4>
  402041:	e9 ec 09 00 00       	jmpq   402a32 <_Z11icache_missPv+0xdd9>
  402046:	c7 85 78 ff ff ff 00 	movl   $0x0,-0x88(%rbp)
  40204d:	00 00 00 
  402050:	eb 0b                	jmp    40205d <_Z11icache_missPv+0x404>
  402052:	83 45 f8 01          	addl   $0x1,-0x8(%rbp)
  402056:	83 85 78 ff ff ff 01 	addl   $0x1,-0x88(%rbp)
  40205d:	83 bd 78 ff ff ff 63 	cmpl   $0x63,-0x88(%rbp)
  402064:	7e ec                	jle    402052 <_Z11icache_missPv+0x3f9>
  402066:	e9 c7 09 00 00       	jmpq   402a32 <_Z11icache_missPv+0xdd9>
  40206b:	c7 85 74 ff ff ff 00 	movl   $0x0,-0x8c(%rbp)
  402072:	00 00 00 
  402075:	eb 0b                	jmp    402082 <_Z11icache_missPv+0x429>
  402077:	83 45 f8 01          	addl   $0x1,-0x8(%rbp)
  40207b:	83 85 74 ff ff ff 01 	addl   $0x1,-0x8c(%rbp)
  402082:	83 bd 74 ff ff ff 63 	cmpl   $0x63,-0x8c(%rbp)
  402089:	7e ec                	jle    402077 <_Z11icache_missPv+0x41e>
  40208b:	e9 a2 09 00 00       	jmpq   402a32 <_Z11icache_missPv+0xdd9>
  402090:	c7 85 70 ff ff ff 00 	movl   $0x0,-0x90(%rbp)
  402097:	00 00 00 
  40209a:	eb 0b                	jmp    4020a7 <_Z11icache_missPv+0x44e>
  40209c:	83 45 f8 01          	addl   $0x1,-0x8(%rbp)
  4020a0:	83 85 70 ff ff ff 01 	addl   $0x1,-0x90(%rbp)
  4020a7:	83 bd 70 ff ff ff 63 	cmpl   $0x63,-0x90(%rbp)
  4020ae:	7e ec                	jle    40209c <_Z11icache_missPv+0x443>
  4020b0:	e9 7d 09 00 00       	jmpq   402a32 <_Z11icache_missPv+0xdd9>
  4020b5:	c7 85 6c ff ff ff 00 	movl   $0x0,-0x94(%rbp)
  4020bc:	00 00 00 
  4020bf:	eb 0b                	jmp    4020cc <_Z11icache_missPv+0x473>
  4020c1:	83 45 f8 01          	addl   $0x1,-0x8(%rbp)
  4020c5:	83 85 6c ff ff ff 01 	addl   $0x1,-0x94(%rbp)
  4020cc:	83 bd 6c ff ff ff 63 	cmpl   $0x63,-0x94(%rbp)
  4020d3:	7e ec                	jle    4020c1 <_Z11icache_missPv+0x468>
  4020d5:	e9 58 09 00 00       	jmpq   402a32 <_Z11icache_missPv+0xdd9>
  4020da:	c7 85 68 ff ff ff 00 	movl   $0x0,-0x98(%rbp)
  4020e1:	00 00 00 
  4020e4:	eb 0b                	jmp    4020f1 <_Z11icache_missPv+0x498>
  4020e6:	83 45 f8 01          	addl   $0x1,-0x8(%rbp)
  4020ea:	83 85 68 ff ff ff 01 	addl   $0x1,-0x98(%rbp)
  4020f1:	83 bd 68 ff ff ff 63 	cmpl   $0x63,-0x98(%rbp)
  4020f8:	7e ec                	jle    4020e6 <_Z11icache_missPv+0x48d>
  4020fa:	e9 33 09 00 00       	jmpq   402a32 <_Z11icache_missPv+0xdd9>
  4020ff:	c7 85 64 ff ff ff 00 	movl   $0x0,-0x9c(%rbp)
  402106:	00 00 00 
  402109:	eb 0b                	jmp    402116 <_Z11icache_missPv+0x4bd>
  40210b:	83 45 f8 01          	addl   $0x1,-0x8(%rbp)
  40210f:	83 85 64 ff ff ff 01 	addl   $0x1,-0x9c(%rbp)
  402116:	83 bd 64 ff ff ff 63 	cmpl   $0x63,-0x9c(%rbp)
  40211d:	7e ec                	jle    40210b <_Z11icache_missPv+0x4b2>
  40211f:	e9 0e 09 00 00       	jmpq   402a32 <_Z11icache_missPv+0xdd9>
  402124:	c7 85 60 ff ff ff 00 	movl   $0x0,-0xa0(%rbp)
  40212b:	00 00 00 
  40212e:	eb 0b                	jmp    40213b <_Z11icache_missPv+0x4e2>
  402130:	83 45 f8 01          	addl   $0x1,-0x8(%rbp)
  402134:	83 85 60 ff ff ff 01 	addl   $0x1,-0xa0(%rbp)
  40213b:	83 bd 60 ff ff ff 63 	cmpl   $0x63,-0xa0(%rbp)
  402142:	7e ec                	jle    402130 <_Z11icache_missPv+0x4d7>
  402144:	e9 e9 08 00 00       	jmpq   402a32 <_Z11icache_missPv+0xdd9>
  402149:	c7 85 5c ff ff ff 00 	movl   $0x0,-0xa4(%rbp)
  402150:	00 00 00 
  402153:	eb 0b                	jmp    402160 <_Z11icache_missPv+0x507>
  402155:	83 45 f8 01          	addl   $0x1,-0x8(%rbp)
  402159:	83 85 5c ff ff ff 01 	addl   $0x1,-0xa4(%rbp)
  402160:	83 bd 5c ff ff ff 63 	cmpl   $0x63,-0xa4(%rbp)
  402167:	7e ec                	jle    402155 <_Z11icache_missPv+0x4fc>
  402169:	e9 c4 08 00 00       	jmpq   402a32 <_Z11icache_missPv+0xdd9>
  40216e:	c7 85 58 ff ff ff 00 	movl   $0x0,-0xa8(%rbp)
  402175:	00 00 00 
  402178:	eb 0b                	jmp    402185 <_Z11icache_missPv+0x52c>
  40217a:	83 45 f8 01          	addl   $0x1,-0x8(%rbp)
  40217e:	83 85 58 ff ff ff 01 	addl   $0x1,-0xa8(%rbp)
  402185:	83 bd 58 ff ff ff 63 	cmpl   $0x63,-0xa8(%rbp)
  40218c:	7e ec                	jle    40217a <_Z11icache_missPv+0x521>
  40218e:	e9 9f 08 00 00       	jmpq   402a32 <_Z11icache_missPv+0xdd9>
  402193:	c7 85 54 ff ff ff 00 	movl   $0x0,-0xac(%rbp)
  40219a:	00 00 00 
  40219d:	eb 0b                	jmp    4021aa <_Z11icache_missPv+0x551>
  40219f:	83 45 f8 01          	addl   $0x1,-0x8(%rbp)
  4021a3:	83 85 54 ff ff ff 01 	addl   $0x1,-0xac(%rbp)
  4021aa:	83 bd 54 ff ff ff 63 	cmpl   $0x63,-0xac(%rbp)
  4021b1:	7e ec                	jle    40219f <_Z11icache_missPv+0x546>
  4021b3:	e9 7a 08 00 00       	jmpq   402a32 <_Z11icache_missPv+0xdd9>
  4021b8:	c7 85 50 ff ff ff 00 	movl   $0x0,-0xb0(%rbp)
  4021bf:	00 00 00 
  4021c2:	eb 0b                	jmp    4021cf <_Z11icache_missPv+0x576>
  4021c4:	83 45 f8 01          	addl   $0x1,-0x8(%rbp)
  4021c8:	83 85 50 ff ff ff 01 	addl   $0x1,-0xb0(%rbp)
  4021cf:	83 bd 50 ff ff ff 63 	cmpl   $0x63,-0xb0(%rbp)
  4021d6:	7e ec                	jle    4021c4 <_Z11icache_missPv+0x56b>
  4021d8:	e9 55 08 00 00       	jmpq   402a32 <_Z11icache_missPv+0xdd9>
  4021dd:	c7 85 4c ff ff ff 00 	movl   $0x0,-0xb4(%rbp)
  4021e4:	00 00 00 
  4021e7:	eb 0b                	jmp    4021f4 <_Z11icache_missPv+0x59b>
  4021e9:	83 45 f8 01          	addl   $0x1,-0x8(%rbp)
  4021ed:	83 85 4c ff ff ff 01 	addl   $0x1,-0xb4(%rbp)
  4021f4:	83 bd 4c ff ff ff 63 	cmpl   $0x63,-0xb4(%rbp)
  4021fb:	7e ec                	jle    4021e9 <_Z11icache_missPv+0x590>
  4021fd:	e9 30 08 00 00       	jmpq   402a32 <_Z11icache_missPv+0xdd9>
  402202:	c7 85 48 ff ff ff 00 	movl   $0x0,-0xb8(%rbp)
  402209:	00 00 00 
  40220c:	eb 0b                	jmp    402219 <_Z11icache_missPv+0x5c0>
  40220e:	83 45 f8 01          	addl   $0x1,-0x8(%rbp)
  402212:	83 85 48 ff ff ff 01 	addl   $0x1,-0xb8(%rbp)
  402219:	83 bd 48 ff ff ff 63 	cmpl   $0x63,-0xb8(%rbp)
  402220:	7e ec                	jle    40220e <_Z11icache_missPv+0x5b5>
  402222:	e9 0b 08 00 00       	jmpq   402a32 <_Z11icache_missPv+0xdd9>
  402227:	c7 85 44 ff ff ff 00 	movl   $0x0,-0xbc(%rbp)
  40222e:	00 00 00 
  402231:	eb 0b                	jmp    40223e <_Z11icache_missPv+0x5e5>
  402233:	83 45 f8 01          	addl   $0x1,-0x8(%rbp)
  402237:	83 85 44 ff ff ff 01 	addl   $0x1,-0xbc(%rbp)
  40223e:	83 bd 44 ff ff ff 63 	cmpl   $0x63,-0xbc(%rbp)
  402245:	7e ec                	jle    402233 <_Z11icache_missPv+0x5da>
  402247:	e9 e6 07 00 00       	jmpq   402a32 <_Z11icache_missPv+0xdd9>
  40224c:	c7 85 40 ff ff ff 00 	movl   $0x0,-0xc0(%rbp)
  402253:	00 00 00 
  402256:	eb 0b                	jmp    402263 <_Z11icache_missPv+0x60a>
  402258:	83 45 f8 01          	addl   $0x1,-0x8(%rbp)
  40225c:	83 85 40 ff ff ff 01 	addl   $0x1,-0xc0(%rbp)
  402263:	83 bd 40 ff ff ff 63 	cmpl   $0x63,-0xc0(%rbp)
  40226a:	7e ec                	jle    402258 <_Z11icache_missPv+0x5ff>
  40226c:	e9 c1 07 00 00       	jmpq   402a32 <_Z11icache_missPv+0xdd9>
  402271:	c7 85 3c ff ff ff 00 	movl   $0x0,-0xc4(%rbp)
  402278:	00 00 00 
  40227b:	eb 0b                	jmp    402288 <_Z11icache_missPv+0x62f>
  40227d:	83 45 f8 01          	addl   $0x1,-0x8(%rbp)
  402281:	83 85 3c ff ff ff 01 	addl   $0x1,-0xc4(%rbp)
  402288:	83 bd 3c ff ff ff 63 	cmpl   $0x63,-0xc4(%rbp)
  40228f:	7e ec                	jle    40227d <_Z11icache_missPv+0x624>
  402291:	e9 9c 07 00 00       	jmpq   402a32 <_Z11icache_missPv+0xdd9>
  402296:	c7 85 38 ff ff ff 00 	movl   $0x0,-0xc8(%rbp)
  40229d:	00 00 00 
  4022a0:	eb 0b                	jmp    4022ad <_Z11icache_missPv+0x654>
  4022a2:	83 45 f8 01          	addl   $0x1,-0x8(%rbp)
  4022a6:	83 85 38 ff ff ff 01 	addl   $0x1,-0xc8(%rbp)
  4022ad:	83 bd 38 ff ff ff 63 	cmpl   $0x63,-0xc8(%rbp)
  4022b4:	7e ec                	jle    4022a2 <_Z11icache_missPv+0x649>
  4022b6:	e9 77 07 00 00       	jmpq   402a32 <_Z11icache_missPv+0xdd9>
  4022bb:	c7 85 34 ff ff ff 00 	movl   $0x0,-0xcc(%rbp)
  4022c2:	00 00 00 
  4022c5:	eb 0b                	jmp    4022d2 <_Z11icache_missPv+0x679>
  4022c7:	83 45 f8 01          	addl   $0x1,-0x8(%rbp)
  4022cb:	83 85 34 ff ff ff 01 	addl   $0x1,-0xcc(%rbp)
  4022d2:	83 bd 34 ff ff ff 63 	cmpl   $0x63,-0xcc(%rbp)
  4022d9:	7e ec                	jle    4022c7 <_Z11icache_missPv+0x66e>
  4022db:	e9 52 07 00 00       	jmpq   402a32 <_Z11icache_missPv+0xdd9>
  4022e0:	c7 85 30 ff ff ff 00 	movl   $0x0,-0xd0(%rbp)
  4022e7:	00 00 00 
  4022ea:	eb 0b                	jmp    4022f7 <_Z11icache_missPv+0x69e>
  4022ec:	83 45 f8 01          	addl   $0x1,-0x8(%rbp)
  4022f0:	83 85 30 ff ff ff 01 	addl   $0x1,-0xd0(%rbp)
  4022f7:	83 bd 30 ff ff ff 63 	cmpl   $0x63,-0xd0(%rbp)
  4022fe:	7e ec                	jle    4022ec <_Z11icache_missPv+0x693>
  402300:	e9 2d 07 00 00       	jmpq   402a32 <_Z11icache_missPv+0xdd9>
  402305:	c7 85 2c ff ff ff 00 	movl   $0x0,-0xd4(%rbp)
  40230c:	00 00 00 
  40230f:	eb 0b                	jmp    40231c <_Z11icache_missPv+0x6c3>
  402311:	83 45 f8 01          	addl   $0x1,-0x8(%rbp)
  402315:	83 85 2c ff ff ff 01 	addl   $0x1,-0xd4(%rbp)
  40231c:	83 bd 2c ff ff ff 63 	cmpl   $0x63,-0xd4(%rbp)
  402323:	7e ec                	jle    402311 <_Z11icache_missPv+0x6b8>
  402325:	e9 08 07 00 00       	jmpq   402a32 <_Z11icache_missPv+0xdd9>
  40232a:	c7 85 28 ff ff ff 00 	movl   $0x0,-0xd8(%rbp)
  402331:	00 00 00 
  402334:	eb 0b                	jmp    402341 <_Z11icache_missPv+0x6e8>
  402336:	83 45 f8 01          	addl   $0x1,-0x8(%rbp)
  40233a:	83 85 28 ff ff ff 01 	addl   $0x1,-0xd8(%rbp)
  402341:	83 bd 28 ff ff ff 63 	cmpl   $0x63,-0xd8(%rbp)
  402348:	7e ec                	jle    402336 <_Z11icache_missPv+0x6dd>
  40234a:	e9 e3 06 00 00       	jmpq   402a32 <_Z11icache_missPv+0xdd9>
  40234f:	c7 85 24 ff ff ff 00 	movl   $0x0,-0xdc(%rbp)
  402356:	00 00 00 
  402359:	eb 0b                	jmp    402366 <_Z11icache_missPv+0x70d>
  40235b:	83 45 f8 01          	addl   $0x1,-0x8(%rbp)
  40235f:	83 85 24 ff ff ff 01 	addl   $0x1,-0xdc(%rbp)
  402366:	83 bd 24 ff ff ff 63 	cmpl   $0x63,-0xdc(%rbp)
  40236d:	7e ec                	jle    40235b <_Z11icache_missPv+0x702>
  40236f:	e9 be 06 00 00       	jmpq   402a32 <_Z11icache_missPv+0xdd9>
  402374:	c7 85 20 ff ff ff 00 	movl   $0x0,-0xe0(%rbp)
  40237b:	00 00 00 
  40237e:	eb 0b                	jmp    40238b <_Z11icache_missPv+0x732>
  402380:	83 45 f8 01          	addl   $0x1,-0x8(%rbp)
  402384:	83 85 20 ff ff ff 01 	addl   $0x1,-0xe0(%rbp)
  40238b:	83 bd 20 ff ff ff 63 	cmpl   $0x63,-0xe0(%rbp)
  402392:	7e ec                	jle    402380 <_Z11icache_missPv+0x727>
  402394:	e9 99 06 00 00       	jmpq   402a32 <_Z11icache_missPv+0xdd9>
  402399:	c7 85 1c ff ff ff 00 	movl   $0x0,-0xe4(%rbp)
  4023a0:	00 00 00 
  4023a3:	eb 0b                	jmp    4023b0 <_Z11icache_missPv+0x757>
  4023a5:	83 45 f8 01          	addl   $0x1,-0x8(%rbp)
  4023a9:	83 85 1c ff ff ff 01 	addl   $0x1,-0xe4(%rbp)
  4023b0:	83 bd 1c ff ff ff 63 	cmpl   $0x63,-0xe4(%rbp)
  4023b7:	7e ec                	jle    4023a5 <_Z11icache_missPv+0x74c>
  4023b9:	e9 74 06 00 00       	jmpq   402a32 <_Z11icache_missPv+0xdd9>
  4023be:	c7 85 18 ff ff ff 00 	movl   $0x0,-0xe8(%rbp)
  4023c5:	00 00 00 
  4023c8:	eb 0b                	jmp    4023d5 <_Z11icache_missPv+0x77c>
  4023ca:	83 45 f8 01          	addl   $0x1,-0x8(%rbp)
  4023ce:	83 85 18 ff ff ff 01 	addl   $0x1,-0xe8(%rbp)
  4023d5:	83 bd 18 ff ff ff 63 	cmpl   $0x63,-0xe8(%rbp)
  4023dc:	7e ec                	jle    4023ca <_Z11icache_missPv+0x771>
  4023de:	e9 4f 06 00 00       	jmpq   402a32 <_Z11icache_missPv+0xdd9>
  4023e3:	c7 85 14 ff ff ff 00 	movl   $0x0,-0xec(%rbp)
  4023ea:	00 00 00 
  4023ed:	eb 0b                	jmp    4023fa <_Z11icache_missPv+0x7a1>
  4023ef:	83 45 f8 01          	addl   $0x1,-0x8(%rbp)
  4023f3:	83 85 14 ff ff ff 01 	addl   $0x1,-0xec(%rbp)
  4023fa:	83 bd 14 ff ff ff 63 	cmpl   $0x63,-0xec(%rbp)
  402401:	7e ec                	jle    4023ef <_Z11icache_missPv+0x796>
  402403:	e9 2a 06 00 00       	jmpq   402a32 <_Z11icache_missPv+0xdd9>
  402408:	c7 85 10 ff ff ff 00 	movl   $0x0,-0xf0(%rbp)
  40240f:	00 00 00 
  402412:	eb 0b                	jmp    40241f <_Z11icache_missPv+0x7c6>
  402414:	83 45 f8 01          	addl   $0x1,-0x8(%rbp)
  402418:	83 85 10 ff ff ff 01 	addl   $0x1,-0xf0(%rbp)
  40241f:	83 bd 10 ff ff ff 63 	cmpl   $0x63,-0xf0(%rbp)
  402426:	7e ec                	jle    402414 <_Z11icache_missPv+0x7bb>
  402428:	e9 05 06 00 00       	jmpq   402a32 <_Z11icache_missPv+0xdd9>
  40242d:	c7 85 0c ff ff ff 00 	movl   $0x0,-0xf4(%rbp)
  402434:	00 00 00 
  402437:	eb 0b                	jmp    402444 <_Z11icache_missPv+0x7eb>
  402439:	83 45 f8 01          	addl   $0x1,-0x8(%rbp)
  40243d:	83 85 0c ff ff ff 01 	addl   $0x1,-0xf4(%rbp)
  402444:	83 bd 0c ff ff ff 63 	cmpl   $0x63,-0xf4(%rbp)
  40244b:	7e ec                	jle    402439 <_Z11icache_missPv+0x7e0>
  40244d:	e9 e0 05 00 00       	jmpq   402a32 <_Z11icache_missPv+0xdd9>
  402452:	c7 85 08 ff ff ff 00 	movl   $0x0,-0xf8(%rbp)
  402459:	00 00 00 
  40245c:	eb 0b                	jmp    402469 <_Z11icache_missPv+0x810>
  40245e:	83 45 f8 01          	addl   $0x1,-0x8(%rbp)
  402462:	83 85 08 ff ff ff 01 	addl   $0x1,-0xf8(%rbp)
  402469:	83 bd 08 ff ff ff 63 	cmpl   $0x63,-0xf8(%rbp)
  402470:	7e ec                	jle    40245e <_Z11icache_missPv+0x805>
  402472:	e9 bb 05 00 00       	jmpq   402a32 <_Z11icache_missPv+0xdd9>
  402477:	c7 85 04 ff ff ff 00 	movl   $0x0,-0xfc(%rbp)
  40247e:	00 00 00 
  402481:	eb 0b                	jmp    40248e <_Z11icache_missPv+0x835>
  402483:	83 45 f8 01          	addl   $0x1,-0x8(%rbp)
  402487:	83 85 04 ff ff ff 01 	addl   $0x1,-0xfc(%rbp)
  40248e:	83 bd 04 ff ff ff 63 	cmpl   $0x63,-0xfc(%rbp)
  402495:	7e ec                	jle    402483 <_Z11icache_missPv+0x82a>
  402497:	e9 96 05 00 00       	jmpq   402a32 <_Z11icache_missPv+0xdd9>
  40249c:	c7 85 00 ff ff ff 00 	movl   $0x0,-0x100(%rbp)
  4024a3:	00 00 00 
  4024a6:	eb 0b                	jmp    4024b3 <_Z11icache_missPv+0x85a>
  4024a8:	83 45 f8 01          	addl   $0x1,-0x8(%rbp)
  4024ac:	83 85 00 ff ff ff 01 	addl   $0x1,-0x100(%rbp)
  4024b3:	83 bd 00 ff ff ff 63 	cmpl   $0x63,-0x100(%rbp)
  4024ba:	7e ec                	jle    4024a8 <_Z11icache_missPv+0x84f>
  4024bc:	e9 71 05 00 00       	jmpq   402a32 <_Z11icache_missPv+0xdd9>
  4024c1:	c7 85 fc fe ff ff 00 	movl   $0x0,-0x104(%rbp)
  4024c8:	00 00 00 
  4024cb:	eb 0b                	jmp    4024d8 <_Z11icache_missPv+0x87f>
  4024cd:	83 45 f8 01          	addl   $0x1,-0x8(%rbp)
  4024d1:	83 85 fc fe ff ff 01 	addl   $0x1,-0x104(%rbp)
  4024d8:	83 bd fc fe ff ff 63 	cmpl   $0x63,-0x104(%rbp)
  4024df:	7e ec                	jle    4024cd <_Z11icache_missPv+0x874>
  4024e1:	e9 4c 05 00 00       	jmpq   402a32 <_Z11icache_missPv+0xdd9>
  4024e6:	c7 85 f8 fe ff ff 00 	movl   $0x0,-0x108(%rbp)
  4024ed:	00 00 00 
  4024f0:	eb 0b                	jmp    4024fd <_Z11icache_missPv+0x8a4>
  4024f2:	83 45 f8 01          	addl   $0x1,-0x8(%rbp)
  4024f6:	83 85 f8 fe ff ff 01 	addl   $0x1,-0x108(%rbp)
  4024fd:	83 bd f8 fe ff ff 63 	cmpl   $0x63,-0x108(%rbp)
  402504:	7e ec                	jle    4024f2 <_Z11icache_missPv+0x899>
  402506:	e9 27 05 00 00       	jmpq   402a32 <_Z11icache_missPv+0xdd9>
  40250b:	c7 85 f4 fe ff ff 00 	movl   $0x0,-0x10c(%rbp)
  402512:	00 00 00 
  402515:	eb 0b                	jmp    402522 <_Z11icache_missPv+0x8c9>
  402517:	83 45 f8 01          	addl   $0x1,-0x8(%rbp)
  40251b:	83 85 f4 fe ff ff 01 	addl   $0x1,-0x10c(%rbp)
  402522:	83 bd f4 fe ff ff 63 	cmpl   $0x63,-0x10c(%rbp)
  402529:	7e ec                	jle    402517 <_Z11icache_missPv+0x8be>
  40252b:	e9 02 05 00 00       	jmpq   402a32 <_Z11icache_missPv+0xdd9>
  402530:	c7 85 f0 fe ff ff 00 	movl   $0x0,-0x110(%rbp)
  402537:	00 00 00 
  40253a:	eb 0b                	jmp    402547 <_Z11icache_missPv+0x8ee>
  40253c:	83 45 f8 01          	addl   $0x1,-0x8(%rbp)
  402540:	83 85 f0 fe ff ff 01 	addl   $0x1,-0x110(%rbp)
  402547:	83 bd f0 fe ff ff 63 	cmpl   $0x63,-0x110(%rbp)
  40254e:	7e ec                	jle    40253c <_Z11icache_missPv+0x8e3>
  402550:	e9 dd 04 00 00       	jmpq   402a32 <_Z11icache_missPv+0xdd9>
  402555:	c7 85 ec fe ff ff 00 	movl   $0x0,-0x114(%rbp)
  40255c:	00 00 00 
  40255f:	eb 0b                	jmp    40256c <_Z11icache_missPv+0x913>
  402561:	83 45 f8 01          	addl   $0x1,-0x8(%rbp)
  402565:	83 85 ec fe ff ff 01 	addl   $0x1,-0x114(%rbp)
  40256c:	83 bd ec fe ff ff 63 	cmpl   $0x63,-0x114(%rbp)
  402573:	7e ec                	jle    402561 <_Z11icache_missPv+0x908>
  402575:	e9 b8 04 00 00       	jmpq   402a32 <_Z11icache_missPv+0xdd9>
  40257a:	c7 85 e8 fe ff ff 00 	movl   $0x0,-0x118(%rbp)
  402581:	00 00 00 
  402584:	eb 0b                	jmp    402591 <_Z11icache_missPv+0x938>
  402586:	83 45 f8 01          	addl   $0x1,-0x8(%rbp)
  40258a:	83 85 e8 fe ff ff 01 	addl   $0x1,-0x118(%rbp)
  402591:	83 bd e8 fe ff ff 63 	cmpl   $0x63,-0x118(%rbp)
  402598:	7e ec                	jle    402586 <_Z11icache_missPv+0x92d>
  40259a:	e9 93 04 00 00       	jmpq   402a32 <_Z11icache_missPv+0xdd9>
  40259f:	c7 85 e4 fe ff ff 00 	movl   $0x0,-0x11c(%rbp)
  4025a6:	00 00 00 
  4025a9:	eb 0b                	jmp    4025b6 <_Z11icache_missPv+0x95d>
  4025ab:	83 45 f8 01          	addl   $0x1,-0x8(%rbp)
  4025af:	83 85 e4 fe ff ff 01 	addl   $0x1,-0x11c(%rbp)
  4025b6:	83 bd e4 fe ff ff 63 	cmpl   $0x63,-0x11c(%rbp)
  4025bd:	7e ec                	jle    4025ab <_Z11icache_missPv+0x952>
  4025bf:	e9 6e 04 00 00       	jmpq   402a32 <_Z11icache_missPv+0xdd9>
  4025c4:	c7 85 e0 fe ff ff 00 	movl   $0x0,-0x120(%rbp)
  4025cb:	00 00 00 
  4025ce:	eb 0b                	jmp    4025db <_Z11icache_missPv+0x982>
  4025d0:	83 45 f8 01          	addl   $0x1,-0x8(%rbp)
  4025d4:	83 85 e0 fe ff ff 01 	addl   $0x1,-0x120(%rbp)
  4025db:	83 bd e0 fe ff ff 63 	cmpl   $0x63,-0x120(%rbp)
  4025e2:	7e ec                	jle    4025d0 <_Z11icache_missPv+0x977>
  4025e4:	e9 49 04 00 00       	jmpq   402a32 <_Z11icache_missPv+0xdd9>
  4025e9:	c7 85 dc fe ff ff 00 	movl   $0x0,-0x124(%rbp)
  4025f0:	00 00 00 
  4025f3:	eb 0b                	jmp    402600 <_Z11icache_missPv+0x9a7>
  4025f5:	83 45 f8 01          	addl   $0x1,-0x8(%rbp)
  4025f9:	83 85 dc fe ff ff 01 	addl   $0x1,-0x124(%rbp)
  402600:	83 bd dc fe ff ff 63 	cmpl   $0x63,-0x124(%rbp)
  402607:	7e ec                	jle    4025f5 <_Z11icache_missPv+0x99c>
  402609:	e9 24 04 00 00       	jmpq   402a32 <_Z11icache_missPv+0xdd9>
  40260e:	c7 85 d8 fe ff ff 00 	movl   $0x0,-0x128(%rbp)
  402615:	00 00 00 
  402618:	eb 0b                	jmp    402625 <_Z11icache_missPv+0x9cc>
  40261a:	83 45 f8 01          	addl   $0x1,-0x8(%rbp)
  40261e:	83 85 d8 fe ff ff 01 	addl   $0x1,-0x128(%rbp)
  402625:	83 bd d8 fe ff ff 63 	cmpl   $0x63,-0x128(%rbp)
  40262c:	7e ec                	jle    40261a <_Z11icache_missPv+0x9c1>
  40262e:	e9 ff 03 00 00       	jmpq   402a32 <_Z11icache_missPv+0xdd9>
  402633:	c7 85 d4 fe ff ff 00 	movl   $0x0,-0x12c(%rbp)
  40263a:	00 00 00 
  40263d:	eb 0b                	jmp    40264a <_Z11icache_missPv+0x9f1>
  40263f:	83 45 f8 01          	addl   $0x1,-0x8(%rbp)
  402643:	83 85 d4 fe ff ff 01 	addl   $0x1,-0x12c(%rbp)
  40264a:	83 bd d4 fe ff ff 63 	cmpl   $0x63,-0x12c(%rbp)
  402651:	7e ec                	jle    40263f <_Z11icache_missPv+0x9e6>
  402653:	e9 da 03 00 00       	jmpq   402a32 <_Z11icache_missPv+0xdd9>
  402658:	c7 85 d0 fe ff ff 00 	movl   $0x0,-0x130(%rbp)
  40265f:	00 00 00 
  402662:	eb 0b                	jmp    40266f <_Z11icache_missPv+0xa16>
  402664:	83 45 f8 01          	addl   $0x1,-0x8(%rbp)
  402668:	83 85 d0 fe ff ff 01 	addl   $0x1,-0x130(%rbp)
  40266f:	83 bd d0 fe ff ff 63 	cmpl   $0x63,-0x130(%rbp)
  402676:	7e ec                	jle    402664 <_Z11icache_missPv+0xa0b>
  402678:	e9 b5 03 00 00       	jmpq   402a32 <_Z11icache_missPv+0xdd9>
  40267d:	c7 85 cc fe ff ff 00 	movl   $0x0,-0x134(%rbp)
  402684:	00 00 00 
  402687:	eb 0b                	jmp    402694 <_Z11icache_missPv+0xa3b>
  402689:	83 45 f8 01          	addl   $0x1,-0x8(%rbp)
  40268d:	83 85 cc fe ff ff 01 	addl   $0x1,-0x134(%rbp)
  402694:	83 bd cc fe ff ff 63 	cmpl   $0x63,-0x134(%rbp)
  40269b:	7e ec                	jle    402689 <_Z11icache_missPv+0xa30>
  40269d:	e9 90 03 00 00       	jmpq   402a32 <_Z11icache_missPv+0xdd9>
  4026a2:	c7 85 c8 fe ff ff 00 	movl   $0x0,-0x138(%rbp)
  4026a9:	00 00 00 
  4026ac:	eb 0b                	jmp    4026b9 <_Z11icache_missPv+0xa60>
  4026ae:	83 45 f8 01          	addl   $0x1,-0x8(%rbp)
  4026b2:	83 85 c8 fe ff ff 01 	addl   $0x1,-0x138(%rbp)
  4026b9:	83 bd c8 fe ff ff 63 	cmpl   $0x63,-0x138(%rbp)
  4026c0:	7e ec                	jle    4026ae <_Z11icache_missPv+0xa55>
  4026c2:	e9 6b 03 00 00       	jmpq   402a32 <_Z11icache_missPv+0xdd9>
  4026c7:	c7 85 c4 fe ff ff 00 	movl   $0x0,-0x13c(%rbp)
  4026ce:	00 00 00 
  4026d1:	eb 0b                	jmp    4026de <_Z11icache_missPv+0xa85>
  4026d3:	83 45 f8 01          	addl   $0x1,-0x8(%rbp)
  4026d7:	83 85 c4 fe ff ff 01 	addl   $0x1,-0x13c(%rbp)
  4026de:	83 bd c4 fe ff ff 63 	cmpl   $0x63,-0x13c(%rbp)
  4026e5:	7e ec                	jle    4026d3 <_Z11icache_missPv+0xa7a>
  4026e7:	e9 46 03 00 00       	jmpq   402a32 <_Z11icache_missPv+0xdd9>
  4026ec:	c7 85 c0 fe ff ff 00 	movl   $0x0,-0x140(%rbp)
  4026f3:	00 00 00 
  4026f6:	eb 0b                	jmp    402703 <_Z11icache_missPv+0xaaa>
  4026f8:	83 45 f8 01          	addl   $0x1,-0x8(%rbp)
  4026fc:	83 85 c0 fe ff ff 01 	addl   $0x1,-0x140(%rbp)
  402703:	83 bd c0 fe ff ff 63 	cmpl   $0x63,-0x140(%rbp)
  40270a:	7e ec                	jle    4026f8 <_Z11icache_missPv+0xa9f>
  40270c:	e9 21 03 00 00       	jmpq   402a32 <_Z11icache_missPv+0xdd9>
  402711:	c7 85 bc fe ff ff 00 	movl   $0x0,-0x144(%rbp)
  402718:	00 00 00 
  40271b:	eb 0b                	jmp    402728 <_Z11icache_missPv+0xacf>
  40271d:	83 45 f8 01          	addl   $0x1,-0x8(%rbp)
  402721:	83 85 bc fe ff ff 01 	addl   $0x1,-0x144(%rbp)
  402728:	83 bd bc fe ff ff 63 	cmpl   $0x63,-0x144(%rbp)
  40272f:	7e ec                	jle    40271d <_Z11icache_missPv+0xac4>
  402731:	e9 fc 02 00 00       	jmpq   402a32 <_Z11icache_missPv+0xdd9>
  402736:	c7 85 b8 fe ff ff 00 	movl   $0x0,-0x148(%rbp)
  40273d:	00 00 00 
  402740:	eb 0b                	jmp    40274d <_Z11icache_missPv+0xaf4>
  402742:	83 45 f8 01          	addl   $0x1,-0x8(%rbp)
  402746:	83 85 b8 fe ff ff 01 	addl   $0x1,-0x148(%rbp)
  40274d:	83 bd b8 fe ff ff 63 	cmpl   $0x63,-0x148(%rbp)
  402754:	7e ec                	jle    402742 <_Z11icache_missPv+0xae9>
  402756:	e9 d7 02 00 00       	jmpq   402a32 <_Z11icache_missPv+0xdd9>
  40275b:	c7 85 b4 fe ff ff 00 	movl   $0x0,-0x14c(%rbp)
  402762:	00 00 00 
  402765:	eb 0b                	jmp    402772 <_Z11icache_missPv+0xb19>
  402767:	83 45 f8 01          	addl   $0x1,-0x8(%rbp)
  40276b:	83 85 b4 fe ff ff 01 	addl   $0x1,-0x14c(%rbp)
  402772:	83 bd b4 fe ff ff 63 	cmpl   $0x63,-0x14c(%rbp)
  402779:	7e ec                	jle    402767 <_Z11icache_missPv+0xb0e>
  40277b:	e9 b2 02 00 00       	jmpq   402a32 <_Z11icache_missPv+0xdd9>
  402780:	c7 85 b0 fe ff ff 00 	movl   $0x0,-0x150(%rbp)
  402787:	00 00 00 
  40278a:	eb 0b                	jmp    402797 <_Z11icache_missPv+0xb3e>
  40278c:	83 45 f8 01          	addl   $0x1,-0x8(%rbp)
  402790:	83 85 b0 fe ff ff 01 	addl   $0x1,-0x150(%rbp)
  402797:	83 bd b0 fe ff ff 63 	cmpl   $0x63,-0x150(%rbp)
  40279e:	7e ec                	jle    40278c <_Z11icache_missPv+0xb33>
  4027a0:	e9 8d 02 00 00       	jmpq   402a32 <_Z11icache_missPv+0xdd9>
  4027a5:	c7 85 ac fe ff ff 00 	movl   $0x0,-0x154(%rbp)
  4027ac:	00 00 00 
  4027af:	eb 0b                	jmp    4027bc <_Z11icache_missPv+0xb63>
  4027b1:	83 45 f8 01          	addl   $0x1,-0x8(%rbp)
  4027b5:	83 85 ac fe ff ff 01 	addl   $0x1,-0x154(%rbp)
  4027bc:	83 bd ac fe ff ff 63 	cmpl   $0x63,-0x154(%rbp)
  4027c3:	7e ec                	jle    4027b1 <_Z11icache_missPv+0xb58>
  4027c5:	e9 68 02 00 00       	jmpq   402a32 <_Z11icache_missPv+0xdd9>
  4027ca:	c7 85 a8 fe ff ff 00 	movl   $0x0,-0x158(%rbp)
  4027d1:	00 00 00 
  4027d4:	eb 0b                	jmp    4027e1 <_Z11icache_missPv+0xb88>
  4027d6:	83 45 f8 01          	addl   $0x1,-0x8(%rbp)
  4027da:	83 85 a8 fe ff ff 01 	addl   $0x1,-0x158(%rbp)
  4027e1:	83 bd a8 fe ff ff 63 	cmpl   $0x63,-0x158(%rbp)
  4027e8:	7e ec                	jle    4027d6 <_Z11icache_missPv+0xb7d>
  4027ea:	e9 43 02 00 00       	jmpq   402a32 <_Z11icache_missPv+0xdd9>
  4027ef:	c7 85 a4 fe ff ff 00 	movl   $0x0,-0x15c(%rbp)
  4027f6:	00 00 00 
  4027f9:	eb 0b                	jmp    402806 <_Z11icache_missPv+0xbad>
  4027fb:	83 45 f8 01          	addl   $0x1,-0x8(%rbp)
  4027ff:	83 85 a4 fe ff ff 01 	addl   $0x1,-0x15c(%rbp)
  402806:	83 bd a4 fe ff ff 63 	cmpl   $0x63,-0x15c(%rbp)
  40280d:	7e ec                	jle    4027fb <_Z11icache_missPv+0xba2>
  40280f:	e9 1e 02 00 00       	jmpq   402a32 <_Z11icache_missPv+0xdd9>
  402814:	c7 85 a0 fe ff ff 00 	movl   $0x0,-0x160(%rbp)
  40281b:	00 00 00 
  40281e:	eb 0b                	jmp    40282b <_Z11icache_missPv+0xbd2>
  402820:	83 45 f8 01          	addl   $0x1,-0x8(%rbp)
  402824:	83 85 a0 fe ff ff 01 	addl   $0x1,-0x160(%rbp)
  40282b:	83 bd a0 fe ff ff 63 	cmpl   $0x63,-0x160(%rbp)
  402832:	7e ec                	jle    402820 <_Z11icache_missPv+0xbc7>
  402834:	e9 f9 01 00 00       	jmpq   402a32 <_Z11icache_missPv+0xdd9>
  402839:	c7 85 9c fe ff ff 00 	movl   $0x0,-0x164(%rbp)
  402840:	00 00 00 
  402843:	eb 0b                	jmp    402850 <_Z11icache_missPv+0xbf7>
  402845:	83 45 f8 01          	addl   $0x1,-0x8(%rbp)
  402849:	83 85 9c fe ff ff 01 	addl   $0x1,-0x164(%rbp)
  402850:	83 bd 9c fe ff ff 63 	cmpl   $0x63,-0x164(%rbp)
  402857:	7e ec                	jle    402845 <_Z11icache_missPv+0xbec>
  402859:	e9 d4 01 00 00       	jmpq   402a32 <_Z11icache_missPv+0xdd9>
  40285e:	c7 85 98 fe ff ff 00 	movl   $0x0,-0x168(%rbp)
  402865:	00 00 00 
  402868:	eb 0b                	jmp    402875 <_Z11icache_missPv+0xc1c>
  40286a:	83 45 f8 01          	addl   $0x1,-0x8(%rbp)
  40286e:	83 85 98 fe ff ff 01 	addl   $0x1,-0x168(%rbp)
  402875:	83 bd 98 fe ff ff 63 	cmpl   $0x63,-0x168(%rbp)
  40287c:	7e ec                	jle    40286a <_Z11icache_missPv+0xc11>
  40287e:	e9 af 01 00 00       	jmpq   402a32 <_Z11icache_missPv+0xdd9>
  402883:	c7 85 94 fe ff ff 00 	movl   $0x0,-0x16c(%rbp)
  40288a:	00 00 00 
  40288d:	eb 0b                	jmp    40289a <_Z11icache_missPv+0xc41>
  40288f:	83 45 f8 01          	addl   $0x1,-0x8(%rbp)
  402893:	83 85 94 fe ff ff 01 	addl   $0x1,-0x16c(%rbp)
  40289a:	83 bd 94 fe ff ff 63 	cmpl   $0x63,-0x16c(%rbp)
  4028a1:	7e ec                	jle    40288f <_Z11icache_missPv+0xc36>
  4028a3:	e9 8a 01 00 00       	jmpq   402a32 <_Z11icache_missPv+0xdd9>
  4028a8:	c7 85 90 fe ff ff 00 	movl   $0x0,-0x170(%rbp)
  4028af:	00 00 00 
  4028b2:	eb 0b                	jmp    4028bf <_Z11icache_missPv+0xc66>
  4028b4:	83 45 f8 01          	addl   $0x1,-0x8(%rbp)
  4028b8:	83 85 90 fe ff ff 01 	addl   $0x1,-0x170(%rbp)
  4028bf:	83 bd 90 fe ff ff 63 	cmpl   $0x63,-0x170(%rbp)
  4028c6:	7e ec                	jle    4028b4 <_Z11icache_missPv+0xc5b>
  4028c8:	e9 65 01 00 00       	jmpq   402a32 <_Z11icache_missPv+0xdd9>
  4028cd:	c7 85 8c fe ff ff 00 	movl   $0x0,-0x174(%rbp)
  4028d4:	00 00 00 
  4028d7:	eb 0b                	jmp    4028e4 <_Z11icache_missPv+0xc8b>
  4028d9:	83 45 f8 01          	addl   $0x1,-0x8(%rbp)
  4028dd:	83 85 8c fe ff ff 01 	addl   $0x1,-0x174(%rbp)
  4028e4:	83 bd 8c fe ff ff 63 	cmpl   $0x63,-0x174(%rbp)
  4028eb:	7e ec                	jle    4028d9 <_Z11icache_missPv+0xc80>
  4028ed:	e9 40 01 00 00       	jmpq   402a32 <_Z11icache_missPv+0xdd9>
  4028f2:	c7 85 88 fe ff ff 00 	movl   $0x0,-0x178(%rbp)
  4028f9:	00 00 00 
  4028fc:	eb 0b                	jmp    402909 <_Z11icache_missPv+0xcb0>
  4028fe:	83 45 f8 01          	addl   $0x1,-0x8(%rbp)
  402902:	83 85 88 fe ff ff 01 	addl   $0x1,-0x178(%rbp)
  402909:	83 bd 88 fe ff ff 63 	cmpl   $0x63,-0x178(%rbp)
  402910:	7e ec                	jle    4028fe <_Z11icache_missPv+0xca5>
  402912:	e9 1b 01 00 00       	jmpq   402a32 <_Z11icache_missPv+0xdd9>
  402917:	c7 85 84 fe ff ff 00 	movl   $0x0,-0x17c(%rbp)
  40291e:	00 00 00 
  402921:	eb 0b                	jmp    40292e <_Z11icache_missPv+0xcd5>
  402923:	83 45 f8 01          	addl   $0x1,-0x8(%rbp)
  402927:	83 85 84 fe ff ff 01 	addl   $0x1,-0x17c(%rbp)
  40292e:	83 bd 84 fe ff ff 63 	cmpl   $0x63,-0x17c(%rbp)
  402935:	7e ec                	jle    402923 <_Z11icache_missPv+0xcca>
  402937:	e9 f6 00 00 00       	jmpq   402a32 <_Z11icache_missPv+0xdd9>
  40293c:	c7 85 80 fe ff ff 00 	movl   $0x0,-0x180(%rbp)
  402943:	00 00 00 
  402946:	eb 0b                	jmp    402953 <_Z11icache_missPv+0xcfa>
  402948:	83 45 f8 01          	addl   $0x1,-0x8(%rbp)
  40294c:	83 85 80 fe ff ff 01 	addl   $0x1,-0x180(%rbp)
  402953:	83 bd 80 fe ff ff 63 	cmpl   $0x63,-0x180(%rbp)
  40295a:	7e ec                	jle    402948 <_Z11icache_missPv+0xcef>
  40295c:	e9 d1 00 00 00       	jmpq   402a32 <_Z11icache_missPv+0xdd9>
  402961:	c7 85 7c fe ff ff 00 	movl   $0x0,-0x184(%rbp)
  402968:	00 00 00 
  40296b:	eb 0b                	jmp    402978 <_Z11icache_missPv+0xd1f>
  40296d:	83 45 f8 01          	addl   $0x1,-0x8(%rbp)
  402971:	83 85 7c fe ff ff 01 	addl   $0x1,-0x184(%rbp)
  402978:	83 bd 7c fe ff ff 63 	cmpl   $0x63,-0x184(%rbp)
  40297f:	7e ec                	jle    40296d <_Z11icache_missPv+0xd14>
  402981:	e9 ac 00 00 00       	jmpq   402a32 <_Z11icache_missPv+0xdd9>
  402986:	c7 85 78 fe ff ff 00 	movl   $0x0,-0x188(%rbp)
  40298d:	00 00 00 
  402990:	eb 0b                	jmp    40299d <_Z11icache_missPv+0xd44>
  402992:	83 45 f8 01          	addl   $0x1,-0x8(%rbp)
  402996:	83 85 78 fe ff ff 01 	addl   $0x1,-0x188(%rbp)
  40299d:	83 bd 78 fe ff ff 63 	cmpl   $0x63,-0x188(%rbp)
  4029a4:	7e ec                	jle    402992 <_Z11icache_missPv+0xd39>
  4029a6:	e9 87 00 00 00       	jmpq   402a32 <_Z11icache_missPv+0xdd9>
  4029ab:	c7 85 74 fe ff ff 00 	movl   $0x0,-0x18c(%rbp)
  4029b2:	00 00 00 
  4029b5:	eb 0b                	jmp    4029c2 <_Z11icache_missPv+0xd69>
  4029b7:	83 45 f8 01          	addl   $0x1,-0x8(%rbp)
  4029bb:	83 85 74 fe ff ff 01 	addl   $0x1,-0x18c(%rbp)
  4029c2:	83 bd 74 fe ff ff 63 	cmpl   $0x63,-0x18c(%rbp)
  4029c9:	7e ec                	jle    4029b7 <_Z11icache_missPv+0xd5e>
  4029cb:	eb 65                	jmp    402a32 <_Z11icache_missPv+0xdd9>
  4029cd:	c7 85 70 fe ff ff 00 	movl   $0x0,-0x190(%rbp)
  4029d4:	00 00 00 
  4029d7:	eb 0b                	jmp    4029e4 <_Z11icache_missPv+0xd8b>
  4029d9:	83 45 f8 01          	addl   $0x1,-0x8(%rbp)
  4029dd:	83 85 70 fe ff ff 01 	addl   $0x1,-0x190(%rbp)
  4029e4:	83 bd 70 fe ff ff 63 	cmpl   $0x63,-0x190(%rbp)
  4029eb:	7e ec                	jle    4029d9 <_Z11icache_missPv+0xd80>
  4029ed:	eb 43                	jmp    402a32 <_Z11icache_missPv+0xdd9>
  4029ef:	c7 85 6c fe ff ff 00 	movl   $0x0,-0x194(%rbp)
  4029f6:	00 00 00 
  4029f9:	eb 0b                	jmp    402a06 <_Z11icache_missPv+0xdad>
  4029fb:	83 45 f8 01          	addl   $0x1,-0x8(%rbp)
  4029ff:	83 85 6c fe ff ff 01 	addl   $0x1,-0x194(%rbp)
  402a06:	83 bd 6c fe ff ff 63 	cmpl   $0x63,-0x194(%rbp)
  402a0d:	7e ec                	jle    4029fb <_Z11icache_missPv+0xda2>
  402a0f:	eb 21                	jmp    402a32 <_Z11icache_missPv+0xdd9>
  402a11:	c7 85 68 fe ff ff 00 	movl   $0x0,-0x198(%rbp)
  402a18:	00 00 00 
  402a1b:	eb 0b                	jmp    402a28 <_Z11icache_missPv+0xdcf>
  402a1d:	83 45 f8 01          	addl   $0x1,-0x8(%rbp)
  402a21:	83 85 68 fe ff ff 01 	addl   $0x1,-0x198(%rbp)
  402a28:	83 bd 68 fe ff ff 63 	cmpl   $0x63,-0x198(%rbp)
  402a2f:	7e ec                	jle    402a1d <_Z11icache_missPv+0xdc4>
  402a31:	90                   	nop
  402a32:	83 45 fc 01          	addl   $0x1,-0x4(%rbp)
  402a36:	81 7d fc 0f 27 00 00 	cmpl   $0x270f,-0x4(%rbp)
  402a3d:	0f 8e 61 f2 ff ff    	jle    401ca4 <_Z11icache_missPv+0x4b>
  402a43:	c9                   	leaveq 
  402a44:	c3                   	retq   

0000000000402a45 <_ZSt4__lgl>:
  402a45:	55                   	push   %rbp
  402a46:	48 89 e5             	mov    %rsp,%rbp
  402a49:	48 89 7d f8          	mov    %rdi,-0x8(%rbp)
  402a4d:	ba 40 00 00 00       	mov    $0x40,%edx
  402a52:	48 8b 45 f8          	mov    -0x8(%rbp),%rax
  402a56:	48 0f bd c0          	bsr    %rax,%rax
  402a5a:	48 83 f0 3f          	xor    $0x3f,%rax
  402a5e:	48 98                	cltq   
  402a60:	48 29 c2             	sub    %rax,%rdx
  402a63:	48 89 d0             	mov    %rdx,%rax
  402a66:	48 83 e8 01          	sub    $0x1,%rax
  402a6a:	5d                   	pop    %rbp
  402a6b:	c3                   	retq   

0000000000402a6c <_ZSt4sortIPiEvT_S1_>:
  402a6c:	55                   	push   %rbp
  402a6d:	48 89 e5             	mov    %rsp,%rbp
  402a70:	48 83 ec 10          	sub    $0x10,%rsp
  402a74:	48 89 7d f8          	mov    %rdi,-0x8(%rbp)
  402a78:	48 89 75 f0          	mov    %rsi,-0x10(%rbp)
  402a7c:	48 8b 45 f8          	mov    -0x8(%rbp),%rax
  402a80:	48 3b 45 f0          	cmp    -0x10(%rbp),%rax
  402a84:	74 44                	je     402aca <_ZSt4sortIPiEvT_S1_+0x5e>
  402a86:	48 8b 55 f0          	mov    -0x10(%rbp),%rdx
  402a8a:	48 8b 45 f8          	mov    -0x8(%rbp),%rax
  402a8e:	48 29 c2             	sub    %rax,%rdx
  402a91:	48 89 d0             	mov    %rdx,%rax
  402a94:	48 c1 f8 02          	sar    $0x2,%rax
  402a98:	48 89 c7             	mov    %rax,%rdi
  402a9b:	e8 a5 ff ff ff       	callq  402a45 <_ZSt4__lgl>
  402aa0:	48 8d 14 00          	lea    (%rax,%rax,1),%rdx
  402aa4:	48 8b 4d f0          	mov    -0x10(%rbp),%rcx
  402aa8:	48 8b 45 f8          	mov    -0x8(%rbp),%rax
  402aac:	48 89 ce             	mov    %rcx,%rsi
  402aaf:	48 89 c7             	mov    %rax,%rdi
  402ab2:	e8 8c 00 00 00       	callq  402b43 <_ZSt16__introsort_loopIPilEvT_S1_T0_>
  402ab7:	48 8b 55 f0          	mov    -0x10(%rbp),%rdx
  402abb:	48 8b 45 f8          	mov    -0x8(%rbp),%rax
  402abf:	48 89 d6             	mov    %rdx,%rsi
  402ac2:	48 89 c7             	mov    %rax,%rdi
  402ac5:	e8 00 01 00 00       	callq  402bca <_ZSt22__final_insertion_sortIPiEvT_S1_>
  402aca:	c9                   	leaveq 
  402acb:	c3                   	retq   

0000000000402acc <_ZNSt26linear_congruential_engineImLm16807ELm0ELm2147483647EEC1Em>:
  402acc:	55                   	push   %rbp
  402acd:	48 89 e5             	mov    %rsp,%rbp
  402ad0:	48 83 ec 10          	sub    $0x10,%rsp
  402ad4:	48 89 7d f8          	mov    %rdi,-0x8(%rbp)
  402ad8:	48 89 75 f0          	mov    %rsi,-0x10(%rbp)
  402adc:	48 8b 55 f0          	mov    -0x10(%rbp),%rdx
  402ae0:	48 8b 45 f8          	mov    -0x8(%rbp),%rax
  402ae4:	48 89 d6             	mov    %rdx,%rsi
  402ae7:	48 89 c7             	mov    %rax,%rdi
  402aea:	e8 45 01 00 00       	callq  402c34 <_ZNSt26linear_congruential_engineImLm16807ELm0ELm2147483647EE4seedEm>
  402aef:	c9                   	leaveq 
  402af0:	c3                   	retq   
  402af1:	90                   	nop

0000000000402af2 <_ZNSt24uniform_int_distributionIiEC1Eii>:
  402af2:	55                   	push   %rbp
  402af3:	48 89 e5             	mov    %rsp,%rbp
  402af6:	48 83 ec 10          	sub    $0x10,%rsp
  402afa:	48 89 7d f8          	mov    %rdi,-0x8(%rbp)
  402afe:	89 75 f4             	mov    %esi,-0xc(%rbp)
  402b01:	89 55 f0             	mov    %edx,-0x10(%rbp)
  402b04:	48 8b 45 f8          	mov    -0x8(%rbp),%rax
  402b08:	8b 55 f0             	mov    -0x10(%rbp),%edx
  402b0b:	8b 4d f4             	mov    -0xc(%rbp),%ecx
  402b0e:	89 ce                	mov    %ecx,%esi
  402b10:	48 89 c7             	mov    %rax,%rdi
  402b13:	e8 7e 01 00 00       	callq  402c96 <_ZNSt24uniform_int_distributionIiE10param_typeC1Eii>
  402b18:	c9                   	leaveq 
  402b19:	c3                   	retq   

0000000000402b1a <_ZNSt24uniform_int_distributionIiEclISt26linear_congruential_engineImLm16807ELm0ELm2147483647EEEEiRT_>:
  402b1a:	55                   	push   %rbp
  402b1b:	48 89 e5             	mov    %rsp,%rbp
  402b1e:	48 83 ec 10          	sub    $0x10,%rsp
  402b22:	48 89 7d f8          	mov    %rdi,-0x8(%rbp)
  402b26:	48 89 75 f0          	mov    %rsi,-0x10(%rbp)
  402b2a:	48 8b 55 f8          	mov    -0x8(%rbp),%rdx
  402b2e:	48 8b 4d f0          	mov    -0x10(%rbp),%rcx
  402b32:	48 8b 45 f8          	mov    -0x8(%rbp),%rax
  402b36:	48 89 ce             	mov    %rcx,%rsi
  402b39:	48 89 c7             	mov    %rax,%rdi
  402b3c:	e8 79 01 00 00       	callq  402cba <_ZNSt24uniform_int_distributionIiEclISt26linear_congruential_engineImLm16807ELm0ELm2147483647EEEEiRT_RKNS0_10param_typeE>
  402b41:	c9                   	leaveq 
  402b42:	c3                   	retq   

0000000000402b43 <_ZSt16__introsort_loopIPilEvT_S1_T0_>:
  402b43:	55                   	push   %rbp
  402b44:	48 89 e5             	mov    %rsp,%rbp
  402b47:	48 83 ec 30          	sub    $0x30,%rsp
  402b4b:	48 89 7d e8          	mov    %rdi,-0x18(%rbp)
  402b4f:	48 89 75 e0          	mov    %rsi,-0x20(%rbp)
  402b53:	48 89 55 d8          	mov    %rdx,-0x28(%rbp)
  402b57:	eb 5b                	jmp    402bb4 <_ZSt16__introsort_loopIPilEvT_S1_T0_+0x71>
  402b59:	48 83 7d d8 00       	cmpq   $0x0,-0x28(%rbp)
  402b5e:	75 19                	jne    402b79 <_ZSt16__introsort_loopIPilEvT_S1_T0_+0x36>
  402b60:	48 8b 55 e0          	mov    -0x20(%rbp),%rdx
  402b64:	48 8b 4d e0          	mov    -0x20(%rbp),%rcx
  402b68:	48 8b 45 e8          	mov    -0x18(%rbp),%rax
  402b6c:	48 89 ce             	mov    %rcx,%rsi
  402b6f:	48 89 c7             	mov    %rax,%rdi
  402b72:	e8 eb 02 00 00       	callq  402e62 <_ZSt12partial_sortIPiEvT_S1_S1_>
  402b77:	eb 4f                	jmp    402bc8 <_ZSt16__introsort_loopIPilEvT_S1_T0_+0x85>
  402b79:	48 83 6d d8 01       	subq   $0x1,-0x28(%rbp)
  402b7e:	48 8b 55 e0          	mov    -0x20(%rbp),%rdx
  402b82:	48 8b 45 e8          	mov    -0x18(%rbp),%rax
  402b86:	48 89 d6             	mov    %rdx,%rsi
  402b89:	48 89 c7             	mov    %rax,%rdi
  402b8c:	e8 11 03 00 00       	callq  402ea2 <_ZSt27__unguarded_partition_pivotIPiET_S1_S1_>
  402b91:	48 89 45 f8          	mov    %rax,-0x8(%rbp)
  402b95:	48 8b 55 d8          	mov    -0x28(%rbp),%rdx
  402b99:	48 8b 4d e0          	mov    -0x20(%rbp),%rcx
  402b9d:	48 8b 45 f8          	mov    -0x8(%rbp),%rax
  402ba1:	48 89 ce             	mov    %rcx,%rsi
  402ba4:	48 89 c7             	mov    %rax,%rdi
  402ba7:	e8 97 ff ff ff       	callq  402b43 <_ZSt16__introsort_loopIPilEvT_S1_T0_>
  402bac:	48 8b 45 f8          	mov    -0x8(%rbp),%rax
  402bb0:	48 89 45 e0          	mov    %rax,-0x20(%rbp)
  402bb4:	48 8b 55 e0          	mov    -0x20(%rbp),%rdx
  402bb8:	48 8b 45 e8          	mov    -0x18(%rbp),%rax
  402bbc:	48 29 c2             	sub    %rax,%rdx
  402bbf:	48 89 d0             	mov    %rdx,%rax
  402bc2:	48 83 f8 43          	cmp    $0x43,%rax
  402bc6:	7f 91                	jg     402b59 <_ZSt16__introsort_loopIPilEvT_S1_T0_+0x16>
  402bc8:	c9                   	leaveq 
  402bc9:	c3                   	retq   

0000000000402bca <_ZSt22__final_insertion_sortIPiEvT_S1_>:
  402bca:	55                   	push   %rbp
  402bcb:	48 89 e5             	mov    %rsp,%rbp
  402bce:	48 83 ec 10          	sub    $0x10,%rsp
  402bd2:	48 89 7d f8          	mov    %rdi,-0x8(%rbp)
  402bd6:	48 89 75 f0          	mov    %rsi,-0x10(%rbp)
  402bda:	48 8b 55 f0          	mov    -0x10(%rbp),%rdx
  402bde:	48 8b 45 f8          	mov    -0x8(%rbp),%rax
  402be2:	48 29 c2             	sub    %rax,%rdx
  402be5:	48 89 d0             	mov    %rdx,%rax
  402be8:	48 83 f8 43          	cmp    $0x43,%rax
  402bec:	7e 30                	jle    402c1e <_ZSt22__final_insertion_sortIPiEvT_S1_+0x54>
  402bee:	48 8b 45 f8          	mov    -0x8(%rbp),%rax
  402bf2:	48 8d 50 40          	lea    0x40(%rax),%rdx
  402bf6:	48 8b 45 f8          	mov    -0x8(%rbp),%rax
  402bfa:	48 89 d6             	mov    %rdx,%rsi
  402bfd:	48 89 c7             	mov    %rax,%rdi
  402c00:	e8 2a 03 00 00       	callq  402f2f <_ZSt16__insertion_sortIPiEvT_S1_>
  402c05:	48 8b 45 f8          	mov    -0x8(%rbp),%rax
  402c09:	48 8d 50 40          	lea    0x40(%rax),%rdx
  402c0d:	48 8b 45 f0          	mov    -0x10(%rbp),%rax
  402c11:	48 89 c6             	mov    %rax,%rsi
  402c14:	48 89 d7             	mov    %rdx,%rdi
  402c17:	e8 ac 03 00 00       	callq  402fc8 <_ZSt26__unguarded_insertion_sortIPiEvT_S1_>
  402c1c:	eb 13                	jmp    402c31 <_ZSt22__final_insertion_sortIPiEvT_S1_+0x67>
  402c1e:	48 8b 55 f0          	mov    -0x10(%rbp),%rdx
  402c22:	48 8b 45 f8          	mov    -0x8(%rbp),%rax
  402c26:	48 89 d6             	mov    %rdx,%rsi
  402c29:	48 89 c7             	mov    %rax,%rdi
  402c2c:	e8 fe 02 00 00       	callq  402f2f <_ZSt16__insertion_sortIPiEvT_S1_>
  402c31:	c9                   	leaveq 
  402c32:	c3                   	retq   
  402c33:	90                   	nop

0000000000402c34 <_ZNSt26linear_congruential_engineImLm16807ELm0ELm2147483647EE4seedEm>:
  402c34:	55                   	push   %rbp
  402c35:	48 89 e5             	mov    %rsp,%rbp
  402c38:	48 83 ec 10          	sub    $0x10,%rsp
  402c3c:	48 89 7d f8          	mov    %rdi,-0x8(%rbp)
  402c40:	48 89 75 f0          	mov    %rsi,-0x10(%rbp)
  402c44:	bf 00 00 00 00       	mov    $0x0,%edi
  402c49:	e8 b1 03 00 00       	callq  402fff <_ZNSt8__detail5__modImLm2147483647ELm1ELm0EEET_S1_>
  402c4e:	48 85 c0             	test   %rax,%rax
  402c51:	75 18                	jne    402c6b <_ZNSt26linear_congruential_engineImLm16807ELm0ELm2147483647EE4seedEm+0x37>
  402c53:	48 8b 45 f0          	mov    -0x10(%rbp),%rax
  402c57:	48 89 c7             	mov    %rax,%rdi
  402c5a:	e8 a0 03 00 00       	callq  402fff <_ZNSt8__detail5__modImLm2147483647ELm1ELm0EEET_S1_>
  402c5f:	48 85 c0             	test   %rax,%rax
  402c62:	75 07                	jne    402c6b <_ZNSt26linear_congruential_engineImLm16807ELm0ELm2147483647EE4seedEm+0x37>
  402c64:	b8 01 00 00 00       	mov    $0x1,%eax
  402c69:	eb 05                	jmp    402c70 <_ZNSt26linear_congruential_engineImLm16807ELm0ELm2147483647EE4seedEm+0x3c>
  402c6b:	b8 00 00 00 00       	mov    $0x0,%eax
  402c70:	84 c0                	test   %al,%al
  402c72:	74 0d                	je     402c81 <_ZNSt26linear_congruential_engineImLm16807ELm0ELm2147483647EE4seedEm+0x4d>
  402c74:	48 8b 45 f8          	mov    -0x8(%rbp),%rax
  402c78:	48 c7 00 01 00 00 00 	movq   $0x1,(%rax)
  402c7f:	eb 13                	jmp    402c94 <_ZNSt26linear_congruential_engineImLm16807ELm0ELm2147483647EE4seedEm+0x60>
  402c81:	48 8b 45 f0          	mov    -0x10(%rbp),%rax
  402c85:	48 89 c7             	mov    %rax,%rdi
  402c88:	e8 72 03 00 00       	callq  402fff <_ZNSt8__detail5__modImLm2147483647ELm1ELm0EEET_S1_>
  402c8d:	48 8b 55 f8          	mov    -0x8(%rbp),%rdx
  402c91:	48 89 02             	mov    %rax,(%rdx)
  402c94:	c9                   	leaveq 
  402c95:	c3                   	retq   

0000000000402c96 <_ZNSt24uniform_int_distributionIiE10param_typeC1Eii>:
  402c96:	55                   	push   %rbp
  402c97:	48 89 e5             	mov    %rsp,%rbp
  402c9a:	48 89 7d f8          	mov    %rdi,-0x8(%rbp)
  402c9e:	89 75 f4             	mov    %esi,-0xc(%rbp)
  402ca1:	89 55 f0             	mov    %edx,-0x10(%rbp)
  402ca4:	48 8b 45 f8          	mov    -0x8(%rbp),%rax
  402ca8:	8b 55 f4             	mov    -0xc(%rbp),%edx
  402cab:	89 10                	mov    %edx,(%rax)
  402cad:	48 8b 45 f8          	mov    -0x8(%rbp),%rax
  402cb1:	8b 55 f0             	mov    -0x10(%rbp),%edx
  402cb4:	89 50 04             	mov    %edx,0x4(%rax)
  402cb7:	5d                   	pop    %rbp
  402cb8:	c3                   	retq   
  402cb9:	90                   	nop

0000000000402cba <_ZNSt24uniform_int_distributionIiEclISt26linear_congruential_engineImLm16807ELm0ELm2147483647EEEEiRT_RKNS0_10param_typeE>:
  402cba:	55                   	push   %rbp
  402cbb:	48 89 e5             	mov    %rsp,%rbp
  402cbe:	53                   	push   %rbx
  402cbf:	48 81 ec 88 00 00 00 	sub    $0x88,%rsp
  402cc6:	48 89 7d 88          	mov    %rdi,-0x78(%rbp)
  402cca:	48 89 75 80          	mov    %rsi,-0x80(%rbp)
  402cce:	48 89 95 78 ff ff ff 	mov    %rdx,-0x88(%rbp)
  402cd5:	48 c7 45 e0 01 00 00 	movq   $0x1,-0x20(%rbp)
  402cdc:	00 
  402cdd:	48 c7 45 d8 fe ff ff 	movq   $0x7ffffffe,-0x28(%rbp)
  402ce4:	7f 
  402ce5:	48 c7 45 d0 fd ff ff 	movq   $0x7ffffffd,-0x30(%rbp)
  402cec:	7f 
  402ced:	48 8b 85 78 ff ff ff 	mov    -0x88(%rbp),%rax
  402cf4:	48 89 c7             	mov    %rax,%rdi
  402cf7:	e8 2e 03 00 00       	callq  40302a <_ZNKSt24uniform_int_distributionIiE10param_type1bEv>
  402cfc:	48 63 d8             	movslq %eax,%rbx
  402cff:	48 8b 85 78 ff ff ff 	mov    -0x88(%rbp),%rax
  402d06:	48 89 c7             	mov    %rax,%rdi
  402d09:	e8 0c 03 00 00       	callq  40301a <_ZNKSt24uniform_int_distributionIiE10param_type1aEv>
  402d0e:	48 98                	cltq   
  402d10:	48 29 c3             	sub    %rax,%rbx
  402d13:	48 89 d8             	mov    %rbx,%rax
  402d16:	48 89 45 c8          	mov    %rax,-0x38(%rbp)
  402d1a:	48 81 7d c8 fc ff ff 	cmpq   $0x7ffffffc,-0x38(%rbp)
  402d21:	7f 
  402d22:	77 5f                	ja     402d83 <_ZNSt24uniform_int_distributionIiEclISt26linear_congruential_engineImLm16807ELm0ELm2147483647EEEEiRT_RKNS0_10param_typeE+0xc9>
  402d24:	48 8b 45 c8          	mov    -0x38(%rbp),%rax
  402d28:	48 83 c0 01          	add    $0x1,%rax
  402d2c:	48 89 45 c0          	mov    %rax,-0x40(%rbp)
  402d30:	b8 fd ff ff 7f       	mov    $0x7ffffffd,%eax
  402d35:	ba 00 00 00 00       	mov    $0x0,%edx
  402d3a:	48 f7 75 c0          	divq   -0x40(%rbp)
  402d3e:	48 89 45 b8          	mov    %rax,-0x48(%rbp)
  402d42:	48 8b 45 c0          	mov    -0x40(%rbp),%rax
  402d46:	48 0f af 45 b8       	imul   -0x48(%rbp),%rax
  402d4b:	48 89 45 b0          	mov    %rax,-0x50(%rbp)
  402d4f:	48 8b 45 80          	mov    -0x80(%rbp),%rax
  402d53:	48 89 c7             	mov    %rax,%rdi
  402d56:	e8 e1 02 00 00       	callq  40303c <_ZNSt26linear_congruential_engineImLm16807ELm0ELm2147483647EEclEv>
  402d5b:	48 83 e8 01          	sub    $0x1,%rax
  402d5f:	48 89 45 e8          	mov    %rax,-0x18(%rbp)
  402d63:	48 8b 45 e8          	mov    -0x18(%rbp),%rax
  402d67:	48 3b 45 b0          	cmp    -0x50(%rbp),%rax
  402d6b:	73 e2                	jae    402d4f <_ZNSt24uniform_int_distributionIiEclISt26linear_congruential_engineImLm16807ELm0ELm2147483647EEEEiRT_RKNS0_10param_typeE+0x95>
  402d6d:	48 8b 45 e8          	mov    -0x18(%rbp),%rax
  402d71:	ba 00 00 00 00       	mov    $0x0,%edx
  402d76:	48 f7 75 b8          	divq   -0x48(%rbp)
  402d7a:	48 89 45 e8          	mov    %rax,-0x18(%rbp)
  402d7e:	e9 be 00 00 00       	jmpq   402e41 <_ZNSt24uniform_int_distributionIiEclISt26linear_congruential_engineImLm16807ELm0ELm2147483647EEEEiRT_RKNS0_10param_typeE+0x187>
  402d83:	48 81 7d c8 fd ff ff 	cmpq   $0x7ffffffd,-0x38(%rbp)
  402d8a:	7f 
  402d8b:	0f 86 9c 00 00 00    	jbe    402e2d <_ZNSt24uniform_int_distributionIiEclISt26linear_congruential_engineImLm16807ELm0ELm2147483647EEEEiRT_RKNS0_10param_typeE+0x173>
  402d91:	48 c7 45 a8 fe ff ff 	movq   $0x7ffffffe,-0x58(%rbp)
  402d98:	7f 
  402d99:	48 8b 45 c8          	mov    -0x38(%rbp),%rax
  402d9d:	48 d1 e8             	shr    %rax
  402da0:	48 ba 09 00 00 00 02 	movabs $0x8000000200000009,%rdx
  402da7:	00 00 80 
  402daa:	48 f7 e2             	mul    %rdx
  402dad:	48 89 d0             	mov    %rdx,%rax
  402db0:	48 c1 e8 1d          	shr    $0x1d,%rax
  402db4:	89 c2                	mov    %eax,%edx
  402db6:	48 8d 45 90          	lea    -0x70(%rbp),%rax
  402dba:	be 00 00 00 00       	mov    $0x0,%esi
  402dbf:	48 89 c7             	mov    %rax,%rdi
  402dc2:	e8 cf fe ff ff       	callq  402c96 <_ZNSt24uniform_int_distributionIiE10param_typeC1Eii>
  402dc7:	48 8d 55 90          	lea    -0x70(%rbp),%rdx
  402dcb:	48 8b 4d 80          	mov    -0x80(%rbp),%rcx
  402dcf:	48 8b 45 88          	mov    -0x78(%rbp),%rax
  402dd3:	48 89 ce             	mov    %rcx,%rsi
  402dd6:	48 89 c7             	mov    %rax,%rdi
  402dd9:	e8 dc fe ff ff       	callq  402cba <_ZNSt24uniform_int_distributionIiEclISt26linear_congruential_engineImLm16807ELm0ELm2147483647EEEEiRT_RKNS0_10param_typeE>
  402dde:	48 98                	cltq   
  402de0:	48 01 c0             	add    %rax,%rax
  402de3:	48 89 c2             	mov    %rax,%rdx
  402de6:	48 c1 e2 1e          	shl    $0x1e,%rdx
  402dea:	48 29 c2             	sub    %rax,%rdx
  402ded:	48 89 d0             	mov    %rdx,%rax
  402df0:	48 89 45 a0          	mov    %rax,-0x60(%rbp)
  402df4:	48 8b 45 80          	mov    -0x80(%rbp),%rax
  402df8:	48 89 c7             	mov    %rax,%rdi
  402dfb:	e8 3c 02 00 00       	callq  40303c <_ZNSt26linear_congruential_engineImLm16807ELm0ELm2147483647EEclEv>
  402e00:	48 8b 55 a0          	mov    -0x60(%rbp),%rdx
  402e04:	48 01 d0             	add    %rdx,%rax
  402e07:	48 83 e8 01          	sub    $0x1,%rax
  402e0b:	48 89 45 e8          	mov    %rax,-0x18(%rbp)
  402e0f:	48 8b 45 e8          	mov    -0x18(%rbp),%rax
  402e13:	48 3b 45 c8          	cmp    -0x38(%rbp),%rax
  402e17:	0f 87 74 ff ff ff    	ja     402d91 <_ZNSt24uniform_int_distributionIiEclISt26linear_congruential_engineImLm16807ELm0ELm2147483647EEEEiRT_RKNS0_10param_typeE+0xd7>
  402e1d:	48 8b 45 e8          	mov    -0x18(%rbp),%rax
  402e21:	48 3b 45 a0          	cmp    -0x60(%rbp),%rax
  402e25:	0f 82 66 ff ff ff    	jb     402d91 <_ZNSt24uniform_int_distributionIiEclISt26linear_congruential_engineImLm16807ELm0ELm2147483647EEEEiRT_RKNS0_10param_typeE+0xd7>
  402e2b:	eb 14                	jmp    402e41 <_ZNSt24uniform_int_distributionIiEclISt26linear_congruential_engineImLm16807ELm0ELm2147483647EEEEiRT_RKNS0_10param_typeE+0x187>
  402e2d:	48 8b 45 80          	mov    -0x80(%rbp),%rax
  402e31:	48 89 c7             	mov    %rax,%rdi
  402e34:	e8 03 02 00 00       	callq  40303c <_ZNSt26linear_congruential_engineImLm16807ELm0ELm2147483647EEclEv>
  402e39:	48 83 e8 01          	sub    $0x1,%rax
  402e3d:	48 89 45 e8          	mov    %rax,-0x18(%rbp)
  402e41:	48 8b 85 78 ff ff ff 	mov    -0x88(%rbp),%rax
  402e48:	48 89 c7             	mov    %rax,%rdi
  402e4b:	e8 ca 01 00 00       	callq  40301a <_ZNKSt24uniform_int_distributionIiE10param_type1aEv>
  402e50:	89 c2                	mov    %eax,%edx
  402e52:	48 8b 45 e8          	mov    -0x18(%rbp),%rax
  402e56:	01 d0                	add    %edx,%eax
  402e58:	48 81 c4 88 00 00 00 	add    $0x88,%rsp
  402e5f:	5b                   	pop    %rbx
  402e60:	5d                   	pop    %rbp
  402e61:	c3                   	retq   

0000000000402e62 <_ZSt12partial_sortIPiEvT_S1_S1_>:
  402e62:	55                   	push   %rbp
  402e63:	48 89 e5             	mov    %rsp,%rbp
  402e66:	48 83 ec 20          	sub    $0x20,%rsp
  402e6a:	48 89 7d f8          	mov    %rdi,-0x8(%rbp)
  402e6e:	48 89 75 f0          	mov    %rsi,-0x10(%rbp)
  402e72:	48 89 55 e8          	mov    %rdx,-0x18(%rbp)
  402e76:	48 8b 55 e8          	mov    -0x18(%rbp),%rdx
  402e7a:	48 8b 4d f0          	mov    -0x10(%rbp),%rcx
  402e7e:	48 8b 45 f8          	mov    -0x8(%rbp),%rax
  402e82:	48 89 ce             	mov    %rcx,%rsi
  402e85:	48 89 c7             	mov    %rax,%rdi
  402e88:	e8 da 01 00 00       	callq  403067 <_ZSt13__heap_selectIPiEvT_S1_S1_>
  402e8d:	48 8b 55 f0          	mov    -0x10(%rbp),%rdx
  402e91:	48 8b 45 f8          	mov    -0x8(%rbp),%rax
  402e95:	48 89 d6             	mov    %rdx,%rsi
  402e98:	48 89 c7             	mov    %rax,%rdi
  402e9b:	e8 30 02 00 00       	callq  4030d0 <_ZSt9sort_heapIPiEvT_S1_>
  402ea0:	c9                   	leaveq 
  402ea1:	c3                   	retq   

0000000000402ea2 <_ZSt27__unguarded_partition_pivotIPiET_S1_S1_>:
  402ea2:	55                   	push   %rbp
  402ea3:	48 89 e5             	mov    %rsp,%rbp
  402ea6:	48 83 ec 20          	sub    $0x20,%rsp
  402eaa:	48 89 7d e8          	mov    %rdi,-0x18(%rbp)
  402eae:	48 89 75 e0          	mov    %rsi,-0x20(%rbp)
  402eb2:	48 8b 55 e0          	mov    -0x20(%rbp),%rdx
  402eb6:	48 8b 45 e8          	mov    -0x18(%rbp),%rax
  402eba:	48 29 c2             	sub    %rax,%rdx
  402ebd:	48 89 d0             	mov    %rdx,%rax
  402ec0:	48 c1 f8 02          	sar    $0x2,%rax
  402ec4:	48 89 c2             	mov    %rax,%rdx
  402ec7:	48 c1 ea 3f          	shr    $0x3f,%rdx
  402ecb:	48 01 d0             	add    %rdx,%rax
  402ece:	48 d1 f8             	sar    %rax
  402ed1:	48 8d 14 85 00 00 00 	lea    0x0(,%rax,4),%rdx
  402ed8:	00 
  402ed9:	48 8b 45 e8          	mov    -0x18(%rbp),%rax
  402edd:	48 01 d0             	add    %rdx,%rax
  402ee0:	48 89 45 f8          	mov    %rax,-0x8(%rbp)
  402ee4:	48 8b 45 e0          	mov    -0x20(%rbp),%rax
  402ee8:	48 8d 48 fc          	lea    -0x4(%rax),%rcx
  402eec:	48 8b 45 e8          	mov    -0x18(%rbp),%rax
  402ef0:	48 8d 70 04          	lea    0x4(%rax),%rsi
  402ef4:	48 8b 55 f8          	mov    -0x8(%rbp),%rdx
  402ef8:	48 8b 45 e8          	mov    -0x18(%rbp),%rax
  402efc:	48 89 c7             	mov    %rax,%rdi
  402eff:	e8 10 02 00 00       	callq  403114 <_ZSt22__move_median_to_firstIPiEvT_S1_S1_S1_>
  402f04:	48 8b 45 e8          	mov    -0x18(%rbp),%rax
  402f08:	48 8d 48 04          	lea    0x4(%rax),%rcx
  402f0c:	48 8b 55 e8          	mov    -0x18(%rbp),%rdx
  402f10:	48 8b 45 e0          	mov    -0x20(%rbp),%rax
  402f14:	48 89 c6             	mov    %rax,%rsi
  402f17:	48 89 cf             	mov    %rcx,%rdi
  402f1a:	e8 de 02 00 00       	callq  4031fd <_ZSt21__unguarded_partitionIPiiET_S1_S1_RKT0_>
  402f1f:	c9                   	leaveq 
  402f20:	c3                   	retq   

0000000000402f21 <_ZSt4moveIRiEONSt16remove_referenceIT_E4typeEOS2_>:
  402f21:	55                   	push   %rbp
  402f22:	48 89 e5             	mov    %rsp,%rbp
  402f25:	48 89 7d f8          	mov    %rdi,-0x8(%rbp)
  402f29:	48 8b 45 f8          	mov    -0x8(%rbp),%rax
  402f2d:	5d                   	pop    %rbp
  402f2e:	c3                   	retq   

0000000000402f2f <_ZSt16__insertion_sortIPiEvT_S1_>:
  402f2f:	55                   	push   %rbp
  402f30:	48 89 e5             	mov    %rsp,%rbp
  402f33:	48 83 ec 20          	sub    $0x20,%rsp
  402f37:	48 89 7d e8          	mov    %rdi,-0x18(%rbp)
  402f3b:	48 89 75 e0          	mov    %rsi,-0x20(%rbp)
  402f3f:	48 8b 45 e8          	mov    -0x18(%rbp),%rax
  402f43:	48 3b 45 e0          	cmp    -0x20(%rbp),%rax
  402f47:	75 02                	jne    402f4b <_ZSt16__insertion_sortIPiEvT_S1_+0x1c>
  402f49:	eb 7b                	jmp    402fc6 <_ZSt16__insertion_sortIPiEvT_S1_+0x97>
  402f4b:	48 8b 45 e8          	mov    -0x18(%rbp),%rax
  402f4f:	48 83 c0 04          	add    $0x4,%rax
  402f53:	48 89 45 f8          	mov    %rax,-0x8(%rbp)
  402f57:	eb 63                	jmp    402fbc <_ZSt16__insertion_sortIPiEvT_S1_+0x8d>
  402f59:	48 8b 45 f8          	mov    -0x8(%rbp),%rax
  402f5d:	8b 10                	mov    (%rax),%edx
  402f5f:	48 8b 45 e8          	mov    -0x18(%rbp),%rax
  402f63:	8b 00                	mov    (%rax),%eax
  402f65:	39 c2                	cmp    %eax,%edx
  402f67:	7d 42                	jge    402fab <_ZSt16__insertion_sortIPiEvT_S1_+0x7c>
  402f69:	48 8b 45 f8          	mov    -0x8(%rbp),%rax
  402f6d:	48 89 c7             	mov    %rax,%rdi
  402f70:	e8 ac ff ff ff       	callq  402f21 <_ZSt4moveIRiEONSt16remove_referenceIT_E4typeEOS2_>
  402f75:	8b 00                	mov    (%rax),%eax
  402f77:	89 45 f4             	mov    %eax,-0xc(%rbp)
  402f7a:	48 8b 45 f8          	mov    -0x8(%rbp),%rax
  402f7e:	48 8d 50 04          	lea    0x4(%rax),%rdx
  402f82:	48 8b 4d f8          	mov    -0x8(%rbp),%rcx
  402f86:	48 8b 45 e8          	mov    -0x18(%rbp),%rax
  402f8a:	48 89 ce             	mov    %rcx,%rsi
  402f8d:	48 89 c7             	mov    %rax,%rdi
  402f90:	e8 dc 02 00 00       	callq  403271 <_ZSt13move_backwardIPiS0_ET0_T_S2_S1_>
  402f95:	48 8d 45 f4          	lea    -0xc(%rbp),%rax
  402f99:	48 89 c7             	mov    %rax,%rdi
  402f9c:	e8 80 ff ff ff       	callq  402f21 <_ZSt4moveIRiEONSt16remove_referenceIT_E4typeEOS2_>
  402fa1:	8b 10                	mov    (%rax),%edx
  402fa3:	48 8b 45 e8          	mov    -0x18(%rbp),%rax
  402fa7:	89 10                	mov    %edx,(%rax)
  402fa9:	eb 0c                	jmp    402fb7 <_ZSt16__insertion_sortIPiEvT_S1_+0x88>
  402fab:	48 8b 45 f8          	mov    -0x8(%rbp),%rax
  402faf:	48 89 c7             	mov    %rax,%rdi
  402fb2:	e8 00 03 00 00       	callq  4032b7 <_ZSt25__unguarded_linear_insertIPiEvT_>
  402fb7:	48 83 45 f8 04       	addq   $0x4,-0x8(%rbp)
  402fbc:	48 8b 45 f8          	mov    -0x8(%rbp),%rax
  402fc0:	48 3b 45 e0          	cmp    -0x20(%rbp),%rax
  402fc4:	75 93                	jne    402f59 <_ZSt16__insertion_sortIPiEvT_S1_+0x2a>
  402fc6:	c9                   	leaveq 
  402fc7:	c3                   	retq   

0000000000402fc8 <_ZSt26__unguarded_insertion_sortIPiEvT_S1_>:
  402fc8:	55                   	push   %rbp
  402fc9:	48 89 e5             	mov    %rsp,%rbp
  402fcc:	48 83 ec 20          	sub    $0x20,%rsp
  402fd0:	48 89 7d e8          	mov    %rdi,-0x18(%rbp)
  402fd4:	48 89 75 e0          	mov    %rsi,-0x20(%rbp)
  402fd8:	48 8b 45 e8          	mov    -0x18(%rbp),%rax
  402fdc:	48 89 45 f8          	mov    %rax,-0x8(%rbp)
  402fe0:	eb 11                	jmp    402ff3 <_ZSt26__unguarded_insertion_sortIPiEvT_S1_+0x2b>
  402fe2:	48 8b 45 f8          	mov    -0x8(%rbp),%rax
  402fe6:	48 89 c7             	mov    %rax,%rdi
  402fe9:	e8 c9 02 00 00       	callq  4032b7 <_ZSt25__unguarded_linear_insertIPiEvT_>
  402fee:	48 83 45 f8 04       	addq   $0x4,-0x8(%rbp)
  402ff3:	48 8b 45 f8          	mov    -0x8(%rbp),%rax
  402ff7:	48 3b 45 e0          	cmp    -0x20(%rbp),%rax
  402ffb:	75 e5                	jne    402fe2 <_ZSt26__unguarded_insertion_sortIPiEvT_S1_+0x1a>
  402ffd:	c9                   	leaveq 
  402ffe:	c3                   	retq   

0000000000402fff <_ZNSt8__detail5__modImLm2147483647ELm1ELm0EEET_S1_>:
  402fff:	55                   	push   %rbp
  403000:	48 89 e5             	mov    %rsp,%rbp
  403003:	48 83 ec 10          	sub    $0x10,%rsp
  403007:	48 89 7d f8          	mov    %rdi,-0x8(%rbp)
  40300b:	48 8b 45 f8          	mov    -0x8(%rbp),%rax
  40300f:	48 89 c7             	mov    %rax,%rdi
  403012:	e8 10 03 00 00       	callq  403327 <_ZNSt8__detail4_ModImLm2147483647ELm1ELm0ELb1ELb1EE6__calcEm>
  403017:	c9                   	leaveq 
  403018:	c3                   	retq   
  403019:	90                   	nop

000000000040301a <_ZNKSt24uniform_int_distributionIiE10param_type1aEv>:
  40301a:	55                   	push   %rbp
  40301b:	48 89 e5             	mov    %rsp,%rbp
  40301e:	48 89 7d f8          	mov    %rdi,-0x8(%rbp)
  403022:	48 8b 45 f8          	mov    -0x8(%rbp),%rax
  403026:	8b 00                	mov    (%rax),%eax
  403028:	5d                   	pop    %rbp
  403029:	c3                   	retq   

000000000040302a <_ZNKSt24uniform_int_distributionIiE10param_type1bEv>:
  40302a:	55                   	push   %rbp
  40302b:	48 89 e5             	mov    %rsp,%rbp
  40302e:	48 89 7d f8          	mov    %rdi,-0x8(%rbp)
  403032:	48 8b 45 f8          	mov    -0x8(%rbp),%rax
  403036:	8b 40 04             	mov    0x4(%rax),%eax
  403039:	5d                   	pop    %rbp
  40303a:	c3                   	retq   
  40303b:	90                   	nop

000000000040303c <_ZNSt26linear_congruential_engineImLm16807ELm0ELm2147483647EEclEv>:
  40303c:	55                   	push   %rbp
  40303d:	48 89 e5             	mov    %rsp,%rbp
  403040:	48 83 ec 10          	sub    $0x10,%rsp
  403044:	48 89 7d f8          	mov    %rdi,-0x8(%rbp)
  403048:	48 8b 45 f8          	mov    -0x8(%rbp),%rax
  40304c:	48 8b 00             	mov    (%rax),%rax
  40304f:	48 89 c7             	mov    %rax,%rdi
  403052:	e8 21 03 00 00       	callq  403378 <_ZNSt8__detail5__modImLm2147483647ELm16807ELm0EEET_S1_>
  403057:	48 8b 55 f8          	mov    -0x8(%rbp),%rdx
  40305b:	48 89 02             	mov    %rax,(%rdx)
  40305e:	48 8b 45 f8          	mov    -0x8(%rbp),%rax
  403062:	48 8b 00             	mov    (%rax),%rax
  403065:	c9                   	leaveq 
  403066:	c3                   	retq   

0000000000403067 <_ZSt13__heap_selectIPiEvT_S1_S1_>:
  403067:	55                   	push   %rbp
  403068:	48 89 e5             	mov    %rsp,%rbp
  40306b:	48 83 ec 30          	sub    $0x30,%rsp
  40306f:	48 89 7d e8          	mov    %rdi,-0x18(%rbp)
  403073:	48 89 75 e0          	mov    %rsi,-0x20(%rbp)
  403077:	48 89 55 d8          	mov    %rdx,-0x28(%rbp)
  40307b:	48 8b 55 e0          	mov    -0x20(%rbp),%rdx
  40307f:	48 8b 45 e8          	mov    -0x18(%rbp),%rax
  403083:	48 89 d6             	mov    %rdx,%rsi
  403086:	48 89 c7             	mov    %rax,%rdi
  403089:	e8 04 03 00 00       	callq  403392 <_ZSt9make_heapIPiEvT_S1_>
  40308e:	48 8b 45 e0          	mov    -0x20(%rbp),%rax
  403092:	48 89 45 f8          	mov    %rax,-0x8(%rbp)
  403096:	eb 2c                	jmp    4030c4 <_ZSt13__heap_selectIPiEvT_S1_S1_+0x5d>
  403098:	48 8b 45 f8          	mov    -0x8(%rbp),%rax
  40309c:	8b 10                	mov    (%rax),%edx
  40309e:	48 8b 45 e8          	mov    -0x18(%rbp),%rax
  4030a2:	8b 00                	mov    (%rax),%eax
  4030a4:	39 c2                	cmp    %eax,%edx
  4030a6:	7d 17                	jge    4030bf <_ZSt13__heap_selectIPiEvT_S1_S1_+0x58>
  4030a8:	48 8b 55 f8          	mov    -0x8(%rbp),%rdx
  4030ac:	48 8b 4d e0          	mov    -0x20(%rbp),%rcx
  4030b0:	48 8b 45 e8          	mov    -0x18(%rbp),%rax
  4030b4:	48 89 ce             	mov    %rcx,%rsi
  4030b7:	48 89 c7             	mov    %rax,%rdi
  4030ba:	e8 7a 03 00 00       	callq  403439 <_ZSt10__pop_heapIPiEvT_S1_S1_>
  4030bf:	48 83 45 f8 04       	addq   $0x4,-0x8(%rbp)
  4030c4:	48 8b 45 f8          	mov    -0x8(%rbp),%rax
  4030c8:	48 3b 45 d8          	cmp    -0x28(%rbp),%rax
  4030cc:	72 ca                	jb     403098 <_ZSt13__heap_selectIPiEvT_S1_S1_+0x31>
  4030ce:	c9                   	leaveq 
  4030cf:	c3                   	retq   

00000000004030d0 <_ZSt9sort_heapIPiEvT_S1_>:
  4030d0:	55                   	push   %rbp
  4030d1:	48 89 e5             	mov    %rsp,%rbp
  4030d4:	48 83 ec 10          	sub    $0x10,%rsp
  4030d8:	48 89 7d f8          	mov    %rdi,-0x8(%rbp)
  4030dc:	48 89 75 f0          	mov    %rsi,-0x10(%rbp)
  4030e0:	eb 1c                	jmp    4030fe <_ZSt9sort_heapIPiEvT_S1_+0x2e>
  4030e2:	48 83 6d f0 04       	subq   $0x4,-0x10(%rbp)
  4030e7:	48 8b 55 f0          	mov    -0x10(%rbp),%rdx
  4030eb:	48 8b 4d f0          	mov    -0x10(%rbp),%rcx
  4030ef:	48 8b 45 f8          	mov    -0x8(%rbp),%rax
  4030f3:	48 89 ce             	mov    %rcx,%rsi
  4030f6:	48 89 c7             	mov    %rax,%rdi
  4030f9:	e8 3b 03 00 00       	callq  403439 <_ZSt10__pop_heapIPiEvT_S1_S1_>
  4030fe:	48 8b 55 f0          	mov    -0x10(%rbp),%rdx
  403102:	48 8b 45 f8          	mov    -0x8(%rbp),%rax
  403106:	48 29 c2             	sub    %rax,%rdx
  403109:	48 89 d0             	mov    %rdx,%rax
  40310c:	48 83 f8 07          	cmp    $0x7,%rax
  403110:	7f d0                	jg     4030e2 <_ZSt9sort_heapIPiEvT_S1_+0x12>
  403112:	c9                   	leaveq 
  403113:	c3                   	retq   

0000000000403114 <_ZSt22__move_median_to_firstIPiEvT_S1_S1_S1_>:
  403114:	55                   	push   %rbp
  403115:	48 89 e5             	mov    %rsp,%rbp
  403118:	48 83 ec 20          	sub    $0x20,%rsp
  40311c:	48 89 7d f8          	mov    %rdi,-0x8(%rbp)
  403120:	48 89 75 f0          	mov    %rsi,-0x10(%rbp)
  403124:	48 89 55 e8          	mov    %rdx,-0x18(%rbp)
  403128:	48 89 4d e0          	mov    %rcx,-0x20(%rbp)
  40312c:	48 8b 45 f0          	mov    -0x10(%rbp),%rax
  403130:	8b 10                	mov    (%rax),%edx
  403132:	48 8b 45 e8          	mov    -0x18(%rbp),%rax
  403136:	8b 00                	mov    (%rax),%eax
  403138:	39 c2                	cmp    %eax,%edx
  40313a:	7d 62                	jge    40319e <_ZSt22__move_median_to_firstIPiEvT_S1_S1_S1_+0x8a>
  40313c:	48 8b 45 e8          	mov    -0x18(%rbp),%rax
  403140:	8b 10                	mov    (%rax),%edx
  403142:	48 8b 45 e0          	mov    -0x20(%rbp),%rax
  403146:	8b 00                	mov    (%rax),%eax
  403148:	39 c2                	cmp    %eax,%edx
  40314a:	7d 18                	jge    403164 <_ZSt22__move_median_to_firstIPiEvT_S1_S1_S1_+0x50>
  40314c:	48 8b 55 e8          	mov    -0x18(%rbp),%rdx
  403150:	48 8b 45 f8          	mov    -0x8(%rbp),%rax
  403154:	48 89 d6             	mov    %rdx,%rsi
  403157:	48 89 c7             	mov    %rax,%rdi
  40315a:	e8 49 03 00 00       	callq  4034a8 <_ZSt9iter_swapIPiS0_EvT_T0_>
  40315f:	e9 97 00 00 00       	jmpq   4031fb <_ZSt22__move_median_to_firstIPiEvT_S1_S1_S1_+0xe7>
  403164:	48 8b 45 f0          	mov    -0x10(%rbp),%rax
  403168:	8b 10                	mov    (%rax),%edx
  40316a:	48 8b 45 e0          	mov    -0x20(%rbp),%rax
  40316e:	8b 00                	mov    (%rax),%eax
  403170:	39 c2                	cmp    %eax,%edx
  403172:	7d 15                	jge    403189 <_ZSt22__move_median_to_firstIPiEvT_S1_S1_S1_+0x75>
  403174:	48 8b 55 e0          	mov    -0x20(%rbp),%rdx
  403178:	48 8b 45 f8          	mov    -0x8(%rbp),%rax
  40317c:	48 89 d6             	mov    %rdx,%rsi
  40317f:	48 89 c7             	mov    %rax,%rdi
  403182:	e8 21 03 00 00       	callq  4034a8 <_ZSt9iter_swapIPiS0_EvT_T0_>
  403187:	eb 72                	jmp    4031fb <_ZSt22__move_median_to_firstIPiEvT_S1_S1_S1_+0xe7>
  403189:	48 8b 55 f0          	mov    -0x10(%rbp),%rdx
  40318d:	48 8b 45 f8          	mov    -0x8(%rbp),%rax
  403191:	48 89 d6             	mov    %rdx,%rsi
  403194:	48 89 c7             	mov    %rax,%rdi
  403197:	e8 0c 03 00 00       	callq  4034a8 <_ZSt9iter_swapIPiS0_EvT_T0_>
  40319c:	eb 5d                	jmp    4031fb <_ZSt22__move_median_to_firstIPiEvT_S1_S1_S1_+0xe7>
  40319e:	48 8b 45 f0          	mov    -0x10(%rbp),%rax
  4031a2:	8b 10                	mov    (%rax),%edx
  4031a4:	48 8b 45 e0          	mov    -0x20(%rbp),%rax
  4031a8:	8b 00                	mov    (%rax),%eax
  4031aa:	39 c2                	cmp    %eax,%edx
  4031ac:	7d 15                	jge    4031c3 <_ZSt22__move_median_to_firstIPiEvT_S1_S1_S1_+0xaf>
  4031ae:	48 8b 55 f0          	mov    -0x10(%rbp),%rdx
  4031b2:	48 8b 45 f8          	mov    -0x8(%rbp),%rax
  4031b6:	48 89 d6             	mov    %rdx,%rsi
  4031b9:	48 89 c7             	mov    %rax,%rdi
  4031bc:	e8 e7 02 00 00       	callq  4034a8 <_ZSt9iter_swapIPiS0_EvT_T0_>
  4031c1:	eb 38                	jmp    4031fb <_ZSt22__move_median_to_firstIPiEvT_S1_S1_S1_+0xe7>
  4031c3:	48 8b 45 e8          	mov    -0x18(%rbp),%rax
  4031c7:	8b 10                	mov    (%rax),%edx
  4031c9:	48 8b 45 e0          	mov    -0x20(%rbp),%rax
  4031cd:	8b 00                	mov    (%rax),%eax
  4031cf:	39 c2                	cmp    %eax,%edx
  4031d1:	7d 15                	jge    4031e8 <_ZSt22__move_median_to_firstIPiEvT_S1_S1_S1_+0xd4>
  4031d3:	48 8b 55 e0          	mov    -0x20(%rbp),%rdx
  4031d7:	48 8b 45 f8          	mov    -0x8(%rbp),%rax
  4031db:	48 89 d6             	mov    %rdx,%rsi
  4031de:	48 89 c7             	mov    %rax,%rdi
  4031e1:	e8 c2 02 00 00       	callq  4034a8 <_ZSt9iter_swapIPiS0_EvT_T0_>
  4031e6:	eb 13                	jmp    4031fb <_ZSt22__move_median_to_firstIPiEvT_S1_S1_S1_+0xe7>
  4031e8:	48 8b 55 e8          	mov    -0x18(%rbp),%rdx
  4031ec:	48 8b 45 f8          	mov    -0x8(%rbp),%rax
  4031f0:	48 89 d6             	mov    %rdx,%rsi
  4031f3:	48 89 c7             	mov    %rax,%rdi
  4031f6:	e8 ad 02 00 00       	callq  4034a8 <_ZSt9iter_swapIPiS0_EvT_T0_>
  4031fb:	c9                   	leaveq 
  4031fc:	c3                   	retq   

00000000004031fd <_ZSt21__unguarded_partitionIPiiET_S1_S1_RKT0_>:
  4031fd:	55                   	push   %rbp
  4031fe:	48 89 e5             	mov    %rsp,%rbp
  403201:	48 83 ec 20          	sub    $0x20,%rsp
  403205:	48 89 7d f8          	mov    %rdi,-0x8(%rbp)
  403209:	48 89 75 f0          	mov    %rsi,-0x10(%rbp)
  40320d:	48 89 55 e8          	mov    %rdx,-0x18(%rbp)
  403211:	eb 05                	jmp    403218 <_ZSt21__unguarded_partitionIPiiET_S1_S1_RKT0_+0x1b>
  403213:	48 83 45 f8 04       	addq   $0x4,-0x8(%rbp)
  403218:	48 8b 45 f8          	mov    -0x8(%rbp),%rax
  40321c:	8b 10                	mov    (%rax),%edx
  40321e:	48 8b 45 e8          	mov    -0x18(%rbp),%rax
  403222:	8b 00                	mov    (%rax),%eax
  403224:	39 c2                	cmp    %eax,%edx
  403226:	7c eb                	jl     403213 <_ZSt21__unguarded_partitionIPiiET_S1_S1_RKT0_+0x16>
  403228:	48 83 6d f0 04       	subq   $0x4,-0x10(%rbp)
  40322d:	eb 05                	jmp    403234 <_ZSt21__unguarded_partitionIPiiET_S1_S1_RKT0_+0x37>
  40322f:	48 83 6d f0 04       	subq   $0x4,-0x10(%rbp)
  403234:	48 8b 45 e8          	mov    -0x18(%rbp),%rax
  403238:	8b 10                	mov    (%rax),%edx
  40323a:	48 8b 45 f0          	mov    -0x10(%rbp),%rax
  40323e:	8b 00                	mov    (%rax),%eax
  403240:	39 c2                	cmp    %eax,%edx
  403242:	7c eb                	jl     40322f <_ZSt21__unguarded_partitionIPiiET_S1_S1_RKT0_+0x32>
  403244:	48 8b 45 f8          	mov    -0x8(%rbp),%rax
  403248:	48 3b 45 f0          	cmp    -0x10(%rbp),%rax
  40324c:	72 06                	jb     403254 <_ZSt21__unguarded_partitionIPiiET_S1_S1_RKT0_+0x57>
  40324e:	48 8b 45 f8          	mov    -0x8(%rbp),%rax
  403252:	eb 1b                	jmp    40326f <_ZSt21__unguarded_partitionIPiiET_S1_S1_RKT0_+0x72>
  403254:	48 8b 55 f0          	mov    -0x10(%rbp),%rdx
  403258:	48 8b 45 f8          	mov    -0x8(%rbp),%rax
  40325c:	48 89 d6             	mov    %rdx,%rsi
  40325f:	48 89 c7             	mov    %rax,%rdi
  403262:	e8 41 02 00 00       	callq  4034a8 <_ZSt9iter_swapIPiS0_EvT_T0_>
  403267:	48 83 45 f8 04       	addq   $0x4,-0x8(%rbp)
  40326c:	90                   	nop
  40326d:	eb a9                	jmp    403218 <_ZSt21__unguarded_partitionIPiiET_S1_S1_RKT0_+0x1b>
  40326f:	c9                   	leaveq 
  403270:	c3                   	retq   

0000000000403271 <_ZSt13move_backwardIPiS0_ET0_T_S2_S1_>:
  403271:	55                   	push   %rbp
  403272:	48 89 e5             	mov    %rsp,%rbp
  403275:	53                   	push   %rbx
  403276:	48 83 ec 28          	sub    $0x28,%rsp
  40327a:	48 89 7d e8          	mov    %rdi,-0x18(%rbp)
  40327e:	48 89 75 e0          	mov    %rsi,-0x20(%rbp)
  403282:	48 89 55 d8          	mov    %rdx,-0x28(%rbp)
  403286:	48 8b 45 e0          	mov    -0x20(%rbp),%rax
  40328a:	48 89 c7             	mov    %rax,%rdi
  40328d:	e8 3b 02 00 00       	callq  4034cd <_ZSt12__miter_baseIPiENSt11_Miter_baseIT_E13iterator_typeES2_>
  403292:	48 89 c3             	mov    %rax,%rbx
  403295:	48 8b 45 e8          	mov    -0x18(%rbp),%rax
  403299:	48 89 c7             	mov    %rax,%rdi
  40329c:	e8 2c 02 00 00       	callq  4034cd <_ZSt12__miter_baseIPiENSt11_Miter_baseIT_E13iterator_typeES2_>
  4032a1:	48 8b 55 d8          	mov    -0x28(%rbp),%rdx
  4032a5:	48 89 de             	mov    %rbx,%rsi
  4032a8:	48 89 c7             	mov    %rax,%rdi
  4032ab:	e8 37 02 00 00       	callq  4034e7 <_ZSt23__copy_move_backward_a2ILb1EPiS0_ET1_T0_S2_S1_>
  4032b0:	48 83 c4 28          	add    $0x28,%rsp
  4032b4:	5b                   	pop    %rbx
  4032b5:	5d                   	pop    %rbp
  4032b6:	c3                   	retq   

00000000004032b7 <_ZSt25__unguarded_linear_insertIPiEvT_>:
  4032b7:	55                   	push   %rbp
  4032b8:	48 89 e5             	mov    %rsp,%rbp
  4032bb:	48 83 ec 20          	sub    $0x20,%rsp
  4032bf:	48 89 7d e8          	mov    %rdi,-0x18(%rbp)
  4032c3:	48 8b 45 e8          	mov    -0x18(%rbp),%rax
  4032c7:	48 89 c7             	mov    %rax,%rdi
  4032ca:	e8 52 fc ff ff       	callq  402f21 <_ZSt4moveIRiEONSt16remove_referenceIT_E4typeEOS2_>
  4032cf:	8b 00                	mov    (%rax),%eax
  4032d1:	89 45 f4             	mov    %eax,-0xc(%rbp)
  4032d4:	48 8b 45 e8          	mov    -0x18(%rbp),%rax
  4032d8:	48 89 45 f8          	mov    %rax,-0x8(%rbp)
  4032dc:	48 83 6d f8 04       	subq   $0x4,-0x8(%rbp)
  4032e1:	eb 21                	jmp    403304 <_ZSt25__unguarded_linear_insertIPiEvT_+0x4d>
  4032e3:	48 8b 45 f8          	mov    -0x8(%rbp),%rax
  4032e7:	48 89 c7             	mov    %rax,%rdi
  4032ea:	e8 32 fc ff ff       	callq  402f21 <_ZSt4moveIRiEONSt16remove_referenceIT_E4typeEOS2_>
  4032ef:	8b 10                	mov    (%rax),%edx
  4032f1:	48 8b 45 e8          	mov    -0x18(%rbp),%rax
  4032f5:	89 10                	mov    %edx,(%rax)
  4032f7:	48 8b 45 f8          	mov    -0x8(%rbp),%rax
  4032fb:	48 89 45 e8          	mov    %rax,-0x18(%rbp)
  4032ff:	48 83 6d f8 04       	subq   $0x4,-0x8(%rbp)
  403304:	48 8b 45 f8          	mov    -0x8(%rbp),%rax
  403308:	8b 10                	mov    (%rax),%edx
  40330a:	8b 45 f4             	mov    -0xc(%rbp),%eax
  40330d:	39 c2                	cmp    %eax,%edx
  40330f:	7f d2                	jg     4032e3 <_ZSt25__unguarded_linear_insertIPiEvT_+0x2c>
  403311:	48 8d 45 f4          	lea    -0xc(%rbp),%rax
  403315:	48 89 c7             	mov    %rax,%rdi
  403318:	e8 04 fc ff ff       	callq  402f21 <_ZSt4moveIRiEONSt16remove_referenceIT_E4typeEOS2_>
  40331d:	8b 10                	mov    (%rax),%edx
  40331f:	48 8b 45 e8          	mov    -0x18(%rbp),%rax
  403323:	89 10                	mov    %edx,(%rax)
  403325:	c9                   	leaveq 
  403326:	c3                   	retq   

0000000000403327 <_ZNSt8__detail4_ModImLm2147483647ELm1ELm0ELb1ELb1EE6__calcEm>:
  403327:	55                   	push   %rbp
  403328:	48 89 e5             	mov    %rsp,%rbp
  40332b:	48 89 7d e8          	mov    %rdi,-0x18(%rbp)
  40332f:	48 8b 45 e8          	mov    -0x18(%rbp),%rax
  403333:	48 89 45 f8          	mov    %rax,-0x8(%rbp)
  403337:	48 8b 4d f8          	mov    -0x8(%rbp),%rcx
  40333b:	48 ba 05 00 00 00 02 	movabs $0x200000005,%rdx
  403342:	00 00 00 
  403345:	48 89 c8             	mov    %rcx,%rax
  403348:	48 f7 e2             	mul    %rdx
  40334b:	48 89 c8             	mov    %rcx,%rax
  40334e:	48 29 d0             	sub    %rdx,%rax
  403351:	48 d1 e8             	shr    %rax
  403354:	48 01 d0             	add    %rdx,%rax
  403357:	48 c1 e8 1e          	shr    $0x1e,%rax
  40335b:	48 89 c2             	mov    %rax,%rdx
  40335e:	48 89 d0             	mov    %rdx,%rax
  403361:	48 c1 e0 1f          	shl    $0x1f,%rax
  403365:	48 29 d0             	sub    %rdx,%rax
  403368:	48 29 c1             	sub    %rax,%rcx
  40336b:	48 89 c8             	mov    %rcx,%rax
  40336e:	48 89 45 f8          	mov    %rax,-0x8(%rbp)
  403372:	48 8b 45 f8          	mov    -0x8(%rbp),%rax
  403376:	5d                   	pop    %rbp
  403377:	c3                   	retq   

0000000000403378 <_ZNSt8__detail5__modImLm2147483647ELm16807ELm0EEET_S1_>:
  403378:	55                   	push   %rbp
  403379:	48 89 e5             	mov    %rsp,%rbp
  40337c:	48 83 ec 10          	sub    $0x10,%rsp
  403380:	48 89 7d f8          	mov    %rdi,-0x8(%rbp)
  403384:	48 8b 45 f8          	mov    -0x8(%rbp),%rax
  403388:	48 89 c7             	mov    %rax,%rdi
  40338b:	e8 af 01 00 00       	callq  40353f <_ZNSt8__detail4_ModImLm2147483647ELm16807ELm0ELb1ELb1EE6__calcEm>
  403390:	c9                   	leaveq 
  403391:	c3                   	retq   

0000000000403392 <_ZSt9make_heapIPiEvT_S1_>:
  403392:	55                   	push   %rbp
  403393:	48 89 e5             	mov    %rsp,%rbp
  403396:	48 83 ec 30          	sub    $0x30,%rsp
  40339a:	48 89 7d d8          	mov    %rdi,-0x28(%rbp)
  40339e:	48 89 75 d0          	mov    %rsi,-0x30(%rbp)
  4033a2:	48 8b 55 d0          	mov    -0x30(%rbp),%rdx
  4033a6:	48 8b 45 d8          	mov    -0x28(%rbp),%rax
  4033aa:	48 29 c2             	sub    %rax,%rdx
  4033ad:	48 89 d0             	mov    %rdx,%rax
  4033b0:	48 83 f8 07          	cmp    $0x7,%rax
  4033b4:	7f 02                	jg     4033b8 <_ZSt9make_heapIPiEvT_S1_+0x26>
  4033b6:	eb 7f                	jmp    403437 <_ZSt9make_heapIPiEvT_S1_+0xa5>
  4033b8:	48 8b 55 d0          	mov    -0x30(%rbp),%rdx
  4033bc:	48 8b 45 d8          	mov    -0x28(%rbp),%rax
  4033c0:	48 29 c2             	sub    %rax,%rdx
  4033c3:	48 89 d0             	mov    %rdx,%rax
  4033c6:	48 c1 f8 02          	sar    $0x2,%rax
  4033ca:	48 89 45 f0          	mov    %rax,-0x10(%rbp)
  4033ce:	48 8b 45 f0          	mov    -0x10(%rbp),%rax
  4033d2:	48 83 e8 02          	sub    $0x2,%rax
  4033d6:	48 89 c2             	mov    %rax,%rdx
  4033d9:	48 c1 ea 3f          	shr    $0x3f,%rdx
  4033dd:	48 01 d0             	add    %rdx,%rax
  4033e0:	48 d1 f8             	sar    %rax
  4033e3:	48 89 45 f8          	mov    %rax,-0x8(%rbp)
  4033e7:	48 8b 45 f8          	mov    -0x8(%rbp),%rax
  4033eb:	48 8d 14 85 00 00 00 	lea    0x0(,%rax,4),%rdx
  4033f2:	00 
  4033f3:	48 8b 45 d8          	mov    -0x28(%rbp),%rax
  4033f7:	48 01 d0             	add    %rdx,%rax
  4033fa:	48 89 c7             	mov    %rax,%rdi
  4033fd:	e8 1f fb ff ff       	callq  402f21 <_ZSt4moveIRiEONSt16remove_referenceIT_E4typeEOS2_>
  403402:	8b 00                	mov    (%rax),%eax
  403404:	89 45 ec             	mov    %eax,-0x14(%rbp)
  403407:	48 8d 45 ec          	lea    -0x14(%rbp),%rax
  40340b:	48 89 c7             	mov    %rax,%rdi
  40340e:	e8 0e fb ff ff       	callq  402f21 <_ZSt4moveIRiEONSt16remove_referenceIT_E4typeEOS2_>
  403413:	8b 08                	mov    (%rax),%ecx
  403415:	48 8b 55 f0          	mov    -0x10(%rbp),%rdx
  403419:	48 8b 75 f8          	mov    -0x8(%rbp),%rsi
  40341d:	48 8b 45 d8          	mov    -0x28(%rbp),%rax
  403421:	48 89 c7             	mov    %rax,%rdi
  403424:	e8 6e 01 00 00       	callq  403597 <_ZSt13__adjust_heapIPiliEvT_T0_S2_T1_>
  403429:	48 83 7d f8 00       	cmpq   $0x0,-0x8(%rbp)
  40342e:	74 07                	je     403437 <_ZSt9make_heapIPiEvT_S1_+0xa5>
  403430:	48 83 6d f8 01       	subq   $0x1,-0x8(%rbp)
  403435:	eb b0                	jmp    4033e7 <_ZSt9make_heapIPiEvT_S1_+0x55>
  403437:	c9                   	leaveq 
  403438:	c3                   	retq   

0000000000403439 <_ZSt10__pop_heapIPiEvT_S1_S1_>:
  403439:	55                   	push   %rbp
  40343a:	48 89 e5             	mov    %rsp,%rbp
  40343d:	48 83 ec 30          	sub    $0x30,%rsp
  403441:	48 89 7d e8          	mov    %rdi,-0x18(%rbp)
  403445:	48 89 75 e0          	mov    %rsi,-0x20(%rbp)
  403449:	48 89 55 d8          	mov    %rdx,-0x28(%rbp)
  40344d:	48 8b 45 d8          	mov    -0x28(%rbp),%rax
  403451:	48 89 c7             	mov    %rax,%rdi
  403454:	e8 c8 fa ff ff       	callq  402f21 <_ZSt4moveIRiEONSt16remove_referenceIT_E4typeEOS2_>
  403459:	8b 00                	mov    (%rax),%eax
  40345b:	89 45 fc             	mov    %eax,-0x4(%rbp)
  40345e:	48 8b 45 e8          	mov    -0x18(%rbp),%rax
  403462:	48 89 c7             	mov    %rax,%rdi
  403465:	e8 b7 fa ff ff       	callq  402f21 <_ZSt4moveIRiEONSt16remove_referenceIT_E4typeEOS2_>
  40346a:	8b 10                	mov    (%rax),%edx
  40346c:	48 8b 45 d8          	mov    -0x28(%rbp),%rax
  403470:	89 10                	mov    %edx,(%rax)
  403472:	48 8d 45 fc          	lea    -0x4(%rbp),%rax
  403476:	48 89 c7             	mov    %rax,%rdi
  403479:	e8 a3 fa ff ff       	callq  402f21 <_ZSt4moveIRiEONSt16remove_referenceIT_E4typeEOS2_>
  40347e:	8b 08                	mov    (%rax),%ecx
  403480:	48 8b 55 e0          	mov    -0x20(%rbp),%rdx
  403484:	48 8b 45 e8          	mov    -0x18(%rbp),%rax
  403488:	48 29 c2             	sub    %rax,%rdx
  40348b:	48 89 d0             	mov    %rdx,%rax
  40348e:	48 c1 f8 02          	sar    $0x2,%rax
  403492:	48 89 c2             	mov    %rax,%rdx
  403495:	48 8b 45 e8          	mov    -0x18(%rbp),%rax
  403499:	be 00 00 00 00       	mov    $0x0,%esi
  40349e:	48 89 c7             	mov    %rax,%rdi
  4034a1:	e8 f1 00 00 00       	callq  403597 <_ZSt13__adjust_heapIPiliEvT_T0_S2_T1_>
  4034a6:	c9                   	leaveq 
  4034a7:	c3                   	retq   

00000000004034a8 <_ZSt9iter_swapIPiS0_EvT_T0_>:
  4034a8:	55                   	push   %rbp
  4034a9:	48 89 e5             	mov    %rsp,%rbp
  4034ac:	48 83 ec 10          	sub    $0x10,%rsp
  4034b0:	48 89 7d f8          	mov    %rdi,-0x8(%rbp)
  4034b4:	48 89 75 f0          	mov    %rsi,-0x10(%rbp)
  4034b8:	48 8b 55 f0          	mov    -0x10(%rbp),%rdx
  4034bc:	48 8b 45 f8          	mov    -0x8(%rbp),%rax
  4034c0:	48 89 d6             	mov    %rdx,%rsi
  4034c3:	48 89 c7             	mov    %rax,%rdi
  4034c6:	e8 30 02 00 00       	callq  4036fb <_ZSt4swapIiEvRT_S1_>
  4034cb:	c9                   	leaveq 
  4034cc:	c3                   	retq   

00000000004034cd <_ZSt12__miter_baseIPiENSt11_Miter_baseIT_E13iterator_typeES2_>:
  4034cd:	55                   	push   %rbp
  4034ce:	48 89 e5             	mov    %rsp,%rbp
  4034d1:	48 83 ec 10          	sub    $0x10,%rsp
  4034d5:	48 89 7d f8          	mov    %rdi,-0x8(%rbp)
  4034d9:	48 8b 45 f8          	mov    -0x8(%rbp),%rax
  4034dd:	48 89 c7             	mov    %rax,%rdi
  4034e0:	e8 61 02 00 00       	callq  403746 <_ZNSt10_Iter_baseIPiLb0EE7_S_baseES0_>
  4034e5:	c9                   	leaveq 
  4034e6:	c3                   	retq   

00000000004034e7 <_ZSt23__copy_move_backward_a2ILb1EPiS0_ET1_T0_S2_S1_>:
  4034e7:	55                   	push   %rbp
  4034e8:	48 89 e5             	mov    %rsp,%rbp
  4034eb:	41 54                	push   %r12
  4034ed:	53                   	push   %rbx
  4034ee:	48 83 ec 20          	sub    $0x20,%rsp
  4034f2:	48 89 7d e8          	mov    %rdi,-0x18(%rbp)
  4034f6:	48 89 75 e0          	mov    %rsi,-0x20(%rbp)
  4034fa:	48 89 55 d8          	mov    %rdx,-0x28(%rbp)
  4034fe:	48 8b 45 d8          	mov    -0x28(%rbp),%rax
  403502:	48 89 c7             	mov    %rax,%rdi
  403505:	e8 4a 02 00 00       	callq  403754 <_ZSt12__niter_baseIPiENSt11_Niter_baseIT_E13iterator_typeES2_>
  40350a:	49 89 c4             	mov    %rax,%r12
  40350d:	48 8b 45 e0          	mov    -0x20(%rbp),%rax
  403511:	48 89 c7             	mov    %rax,%rdi
  403514:	e8 3b 02 00 00       	callq  403754 <_ZSt12__niter_baseIPiENSt11_Niter_baseIT_E13iterator_typeES2_>
  403519:	48 89 c3             	mov    %rax,%rbx
  40351c:	48 8b 45 e8          	mov    -0x18(%rbp),%rax
  403520:	48 89 c7             	mov    %rax,%rdi
  403523:	e8 2c 02 00 00       	callq  403754 <_ZSt12__niter_baseIPiENSt11_Niter_baseIT_E13iterator_typeES2_>
  403528:	4c 89 e2             	mov    %r12,%rdx
  40352b:	48 89 de             	mov    %rbx,%rsi
  40352e:	48 89 c7             	mov    %rax,%rdi
  403531:	e8 38 02 00 00       	callq  40376e <_ZSt22__copy_move_backward_aILb1EPiS0_ET1_T0_S2_S1_>
  403536:	48 83 c4 20          	add    $0x20,%rsp
  40353a:	5b                   	pop    %rbx
  40353b:	41 5c                	pop    %r12
  40353d:	5d                   	pop    %rbp
  40353e:	c3                   	retq   

000000000040353f <_ZNSt8__detail4_ModImLm2147483647ELm16807ELm0ELb1ELb1EE6__calcEm>:
  40353f:	55                   	push   %rbp
  403540:	48 89 e5             	mov    %rsp,%rbp
  403543:	48 89 7d e8          	mov    %rdi,-0x18(%rbp)
  403547:	48 8b 45 e8          	mov    -0x18(%rbp),%rax
  40354b:	48 69 c0 a7 41 00 00 	imul   $0x41a7,%rax,%rax
  403552:	48 89 45 f8          	mov    %rax,-0x8(%rbp)
  403556:	48 8b 4d f8          	mov    -0x8(%rbp),%rcx
  40355a:	48 ba 05 00 00 00 02 	movabs $0x200000005,%rdx
  403561:	00 00 00 
  403564:	48 89 c8             	mov    %rcx,%rax
  403567:	48 f7 e2             	mul    %rdx
  40356a:	48 89 c8             	mov    %rcx,%rax
  40356d:	48 29 d0             	sub    %rdx,%rax
  403570:	48 d1 e8             	shr    %rax
  403573:	48 01 d0             	add    %rdx,%rax
  403576:	48 c1 e8 1e          	shr    $0x1e,%rax
  40357a:	48 89 c2             	mov    %rax,%rdx
  40357d:	48 89 d0             	mov    %rdx,%rax
  403580:	48 c1 e0 1f          	shl    $0x1f,%rax
  403584:	48 29 d0             	sub    %rdx,%rax
  403587:	48 29 c1             	sub    %rax,%rcx
  40358a:	48 89 c8             	mov    %rcx,%rax
  40358d:	48 89 45 f8          	mov    %rax,-0x8(%rbp)
  403591:	48 8b 45 f8          	mov    -0x8(%rbp),%rax
  403595:	5d                   	pop    %rbp
  403596:	c3                   	retq   

0000000000403597 <_ZSt13__adjust_heapIPiliEvT_T0_S2_T1_>:
  403597:	55                   	push   %rbp
  403598:	48 89 e5             	mov    %rsp,%rbp
  40359b:	53                   	push   %rbx
  40359c:	48 83 ec 38          	sub    $0x38,%rsp
  4035a0:	48 89 7d d8          	mov    %rdi,-0x28(%rbp)
  4035a4:	48 89 75 d0          	mov    %rsi,-0x30(%rbp)
  4035a8:	48 89 55 c8          	mov    %rdx,-0x38(%rbp)
  4035ac:	89 4d c4             	mov    %ecx,-0x3c(%rbp)
  4035af:	48 8b 45 d0          	mov    -0x30(%rbp),%rax
  4035b3:	48 89 45 e0          	mov    %rax,-0x20(%rbp)
  4035b7:	48 8b 45 d0          	mov    -0x30(%rbp),%rax
  4035bb:	48 89 45 e8          	mov    %rax,-0x18(%rbp)
  4035bf:	eb 7d                	jmp    40363e <_ZSt13__adjust_heapIPiliEvT_T0_S2_T1_+0xa7>
  4035c1:	48 8b 45 e8          	mov    -0x18(%rbp),%rax
  4035c5:	48 83 c0 01          	add    $0x1,%rax
  4035c9:	48 01 c0             	add    %rax,%rax
  4035cc:	48 89 45 e8          	mov    %rax,-0x18(%rbp)
  4035d0:	48 8b 45 e8          	mov    -0x18(%rbp),%rax
  4035d4:	48 8d 14 85 00 00 00 	lea    0x0(,%rax,4),%rdx
  4035db:	00 
  4035dc:	48 8b 45 d8          	mov    -0x28(%rbp),%rax
  4035e0:	48 01 d0             	add    %rdx,%rax
  4035e3:	8b 10                	mov    (%rax),%edx
  4035e5:	48 8b 45 e8          	mov    -0x18(%rbp),%rax
  4035e9:	48 c1 e0 02          	shl    $0x2,%rax
  4035ed:	48 8d 48 fc          	lea    -0x4(%rax),%rcx
  4035f1:	48 8b 45 d8          	mov    -0x28(%rbp),%rax
  4035f5:	48 01 c8             	add    %rcx,%rax
  4035f8:	8b 00                	mov    (%rax),%eax
  4035fa:	39 c2                	cmp    %eax,%edx
  4035fc:	7d 05                	jge    403603 <_ZSt13__adjust_heapIPiliEvT_T0_S2_T1_+0x6c>
  4035fe:	48 83 6d e8 01       	subq   $0x1,-0x18(%rbp)
  403603:	48 8b 45 d0          	mov    -0x30(%rbp),%rax
  403607:	48 8d 14 85 00 00 00 	lea    0x0(,%rax,4),%rdx
  40360e:	00 
  40360f:	48 8b 45 d8          	mov    -0x28(%rbp),%rax
  403613:	48 8d 1c 02          	lea    (%rdx,%rax,1),%rbx
  403617:	48 8b 45 e8          	mov    -0x18(%rbp),%rax
  40361b:	48 8d 14 85 00 00 00 	lea    0x0(,%rax,4),%rdx
  403622:	00 
  403623:	48 8b 45 d8          	mov    -0x28(%rbp),%rax
  403627:	48 01 d0             	add    %rdx,%rax
  40362a:	48 89 c7             	mov    %rax,%rdi
  40362d:	e8 ef f8 ff ff       	callq  402f21 <_ZSt4moveIRiEONSt16remove_referenceIT_E4typeEOS2_>
  403632:	8b 00                	mov    (%rax),%eax
  403634:	89 03                	mov    %eax,(%rbx)
  403636:	48 8b 45 e8          	mov    -0x18(%rbp),%rax
  40363a:	48 89 45 d0          	mov    %rax,-0x30(%rbp)
  40363e:	48 8b 45 c8          	mov    -0x38(%rbp),%rax
  403642:	48 83 e8 01          	sub    $0x1,%rax
  403646:	48 89 c2             	mov    %rax,%rdx
  403649:	48 c1 ea 3f          	shr    $0x3f,%rdx
  40364d:	48 01 d0             	add    %rdx,%rax
  403650:	48 d1 f8             	sar    %rax
  403653:	48 3b 45 e8          	cmp    -0x18(%rbp),%rax
  403657:	0f 8f 64 ff ff ff    	jg     4035c1 <_ZSt13__adjust_heapIPiliEvT_T0_S2_T1_+0x2a>
  40365d:	48 8b 45 c8          	mov    -0x38(%rbp),%rax
  403661:	83 e0 01             	and    $0x1,%eax
  403664:	48 85 c0             	test   %rax,%rax
  403667:	75 69                	jne    4036d2 <_ZSt13__adjust_heapIPiliEvT_T0_S2_T1_+0x13b>
  403669:	48 8b 45 c8          	mov    -0x38(%rbp),%rax
  40366d:	48 83 e8 02          	sub    $0x2,%rax
  403671:	48 89 c2             	mov    %rax,%rdx
  403674:	48 c1 ea 3f          	shr    $0x3f,%rdx
  403678:	48 01 d0             	add    %rdx,%rax
  40367b:	48 d1 f8             	sar    %rax
  40367e:	48 3b 45 e8          	cmp    -0x18(%rbp),%rax
  403682:	75 4e                	jne    4036d2 <_ZSt13__adjust_heapIPiliEvT_T0_S2_T1_+0x13b>
  403684:	48 8b 45 e8          	mov    -0x18(%rbp),%rax
  403688:	48 83 c0 01          	add    $0x1,%rax
  40368c:	48 01 c0             	add    %rax,%rax
  40368f:	48 89 45 e8          	mov    %rax,-0x18(%rbp)
  403693:	48 8b 45 d0          	mov    -0x30(%rbp),%rax
  403697:	48 8d 14 85 00 00 00 	lea    0x0(,%rax,4),%rdx
  40369e:	00 
  40369f:	48 8b 45 d8          	mov    -0x28(%rbp),%rax
  4036a3:	48 8d 1c 02          	lea    (%rdx,%rax,1),%rbx
  4036a7:	48 8b 45 e8          	mov    -0x18(%rbp),%rax
  4036ab:	48 c1 e0 02          	shl    $0x2,%rax
  4036af:	48 8d 50 fc          	lea    -0x4(%rax),%rdx
  4036b3:	48 8b 45 d8          	mov    -0x28(%rbp),%rax
  4036b7:	48 01 d0             	add    %rdx,%rax
  4036ba:	48 89 c7             	mov    %rax,%rdi
  4036bd:	e8 5f f8 ff ff       	callq  402f21 <_ZSt4moveIRiEONSt16remove_referenceIT_E4typeEOS2_>
  4036c2:	8b 00                	mov    (%rax),%eax
  4036c4:	89 03                	mov    %eax,(%rbx)
  4036c6:	48 8b 45 e8          	mov    -0x18(%rbp),%rax
  4036ca:	48 83 e8 01          	sub    $0x1,%rax
  4036ce:	48 89 45 d0          	mov    %rax,-0x30(%rbp)
  4036d2:	48 8d 45 c4          	lea    -0x3c(%rbp),%rax
  4036d6:	48 89 c7             	mov    %rax,%rdi
  4036d9:	e8 43 f8 ff ff       	callq  402f21 <_ZSt4moveIRiEONSt16remove_referenceIT_E4typeEOS2_>
  4036de:	8b 08                	mov    (%rax),%ecx
  4036e0:	48 8b 55 e0          	mov    -0x20(%rbp),%rdx
  4036e4:	48 8b 75 d0          	mov    -0x30(%rbp),%rsi
  4036e8:	48 8b 45 d8          	mov    -0x28(%rbp),%rax
  4036ec:	48 89 c7             	mov    %rax,%rdi
  4036ef:	e8 ab 00 00 00       	callq  40379f <_ZSt11__push_heapIPiliEvT_T0_S2_T1_>
  4036f4:	48 83 c4 38          	add    $0x38,%rsp
  4036f8:	5b                   	pop    %rbx
  4036f9:	5d                   	pop    %rbp
  4036fa:	c3                   	retq   

00000000004036fb <_ZSt4swapIiEvRT_S1_>:
  4036fb:	55                   	push   %rbp
  4036fc:	48 89 e5             	mov    %rsp,%rbp
  4036ff:	48 83 ec 20          	sub    $0x20,%rsp
  403703:	48 89 7d e8          	mov    %rdi,-0x18(%rbp)
  403707:	48 89 75 e0          	mov    %rsi,-0x20(%rbp)
  40370b:	48 8b 45 e8          	mov    -0x18(%rbp),%rax
  40370f:	48 89 c7             	mov    %rax,%rdi
  403712:	e8 0a f8 ff ff       	callq  402f21 <_ZSt4moveIRiEONSt16remove_referenceIT_E4typeEOS2_>
  403717:	8b 00                	mov    (%rax),%eax
  403719:	89 45 fc             	mov    %eax,-0x4(%rbp)
  40371c:	48 8b 45 e0          	mov    -0x20(%rbp),%rax
  403720:	48 89 c7             	mov    %rax,%rdi
  403723:	e8 f9 f7 ff ff       	callq  402f21 <_ZSt4moveIRiEONSt16remove_referenceIT_E4typeEOS2_>
  403728:	8b 10                	mov    (%rax),%edx
  40372a:	48 8b 45 e8          	mov    -0x18(%rbp),%rax
  40372e:	89 10                	mov    %edx,(%rax)
  403730:	48 8d 45 fc          	lea    -0x4(%rbp),%rax
  403734:	48 89 c7             	mov    %rax,%rdi
  403737:	e8 e5 f7 ff ff       	callq  402f21 <_ZSt4moveIRiEONSt16remove_referenceIT_E4typeEOS2_>
  40373c:	8b 10                	mov    (%rax),%edx
  40373e:	48 8b 45 e0          	mov    -0x20(%rbp),%rax
  403742:	89 10                	mov    %edx,(%rax)
  403744:	c9                   	leaveq 
  403745:	c3                   	retq   

0000000000403746 <_ZNSt10_Iter_baseIPiLb0EE7_S_baseES0_>:
  403746:	55                   	push   %rbp
  403747:	48 89 e5             	mov    %rsp,%rbp
  40374a:	48 89 7d f8          	mov    %rdi,-0x8(%rbp)
  40374e:	48 8b 45 f8          	mov    -0x8(%rbp),%rax
  403752:	5d                   	pop    %rbp
  403753:	c3                   	retq   

0000000000403754 <_ZSt12__niter_baseIPiENSt11_Niter_baseIT_E13iterator_typeES2_>:
  403754:	55                   	push   %rbp
  403755:	48 89 e5             	mov    %rsp,%rbp
  403758:	48 83 ec 10          	sub    $0x10,%rsp
  40375c:	48 89 7d f8          	mov    %rdi,-0x8(%rbp)
  403760:	48 8b 45 f8          	mov    -0x8(%rbp),%rax
  403764:	48 89 c7             	mov    %rax,%rdi
  403767:	e8 da ff ff ff       	callq  403746 <_ZNSt10_Iter_baseIPiLb0EE7_S_baseES0_>
  40376c:	c9                   	leaveq 
  40376d:	c3                   	retq   

000000000040376e <_ZSt22__copy_move_backward_aILb1EPiS0_ET1_T0_S2_S1_>:
  40376e:	55                   	push   %rbp
  40376f:	48 89 e5             	mov    %rsp,%rbp
  403772:	48 83 ec 30          	sub    $0x30,%rsp
  403776:	48 89 7d e8          	mov    %rdi,-0x18(%rbp)
  40377a:	48 89 75 e0          	mov    %rsi,-0x20(%rbp)
  40377e:	48 89 55 d8          	mov    %rdx,-0x28(%rbp)
  403782:	c6 45 ff 01          	movb   $0x1,-0x1(%rbp)
  403786:	48 8b 55 d8          	mov    -0x28(%rbp),%rdx
  40378a:	48 8b 4d e0          	mov    -0x20(%rbp),%rcx
  40378e:	48 8b 45 e8          	mov    -0x18(%rbp),%rax
  403792:	48 89 ce             	mov    %rcx,%rsi
  403795:	48 89 c7             	mov    %rax,%rdi
  403798:	e8 da 00 00 00       	callq  403877 <_ZNSt20__copy_move_backwardILb1ELb1ESt26random_access_iterator_tagE13__copy_move_bIiEEPT_PKS3_S6_S4_>
  40379d:	c9                   	leaveq 
  40379e:	c3                   	retq   

000000000040379f <_ZSt11__push_heapIPiliEvT_T0_S2_T1_>:
  40379f:	55                   	push   %rbp
  4037a0:	48 89 e5             	mov    %rsp,%rbp
  4037a3:	53                   	push   %rbx
  4037a4:	48 83 ec 38          	sub    $0x38,%rsp
  4037a8:	48 89 7d d8          	mov    %rdi,-0x28(%rbp)
  4037ac:	48 89 75 d0          	mov    %rsi,-0x30(%rbp)
  4037b0:	48 89 55 c8          	mov    %rdx,-0x38(%rbp)
  4037b4:	89 4d c4             	mov    %ecx,-0x3c(%rbp)
  4037b7:	48 8b 45 d0          	mov    -0x30(%rbp),%rax
  4037bb:	48 83 e8 01          	sub    $0x1,%rax
  4037bf:	48 89 c2             	mov    %rax,%rdx
  4037c2:	48 c1 ea 3f          	shr    $0x3f,%rdx
  4037c6:	48 01 d0             	add    %rdx,%rax
  4037c9:	48 d1 f8             	sar    %rax
  4037cc:	48 89 45 e8          	mov    %rax,-0x18(%rbp)
  4037d0:	eb 54                	jmp    403826 <_ZSt11__push_heapIPiliEvT_T0_S2_T1_+0x87>
  4037d2:	48 8b 45 d0          	mov    -0x30(%rbp),%rax
  4037d6:	48 8d 14 85 00 00 00 	lea    0x0(,%rax,4),%rdx
  4037dd:	00 
  4037de:	48 8b 45 d8          	mov    -0x28(%rbp),%rax
  4037e2:	48 8d 1c 02          	lea    (%rdx,%rax,1),%rbx
  4037e6:	48 8b 45 e8          	mov    -0x18(%rbp),%rax
  4037ea:	48 8d 14 85 00 00 00 	lea    0x0(,%rax,4),%rdx
  4037f1:	00 
  4037f2:	48 8b 45 d8          	mov    -0x28(%rbp),%rax
  4037f6:	48 01 d0             	add    %rdx,%rax
  4037f9:	48 89 c7             	mov    %rax,%rdi
  4037fc:	e8 20 f7 ff ff       	callq  402f21 <_ZSt4moveIRiEONSt16remove_referenceIT_E4typeEOS2_>
  403801:	8b 00                	mov    (%rax),%eax
  403803:	89 03                	mov    %eax,(%rbx)
  403805:	48 8b 45 e8          	mov    -0x18(%rbp),%rax
  403809:	48 89 45 d0          	mov    %rax,-0x30(%rbp)
  40380d:	48 8b 45 d0          	mov    -0x30(%rbp),%rax
  403811:	48 83 e8 01          	sub    $0x1,%rax
  403815:	48 89 c2             	mov    %rax,%rdx
  403818:	48 c1 ea 3f          	shr    $0x3f,%rdx
  40381c:	48 01 d0             	add    %rdx,%rax
  40381f:	48 d1 f8             	sar    %rax
  403822:	48 89 45 e8          	mov    %rax,-0x18(%rbp)
  403826:	48 8b 45 d0          	mov    -0x30(%rbp),%rax
  40382a:	48 3b 45 c8          	cmp    -0x38(%rbp),%rax
  40382e:	7e 1c                	jle    40384c <_ZSt11__push_heapIPiliEvT_T0_S2_T1_+0xad>
  403830:	48 8b 45 e8          	mov    -0x18(%rbp),%rax
  403834:	48 8d 14 85 00 00 00 	lea    0x0(,%rax,4),%rdx
  40383b:	00 
  40383c:	48 8b 45 d8          	mov    -0x28(%rbp),%rax
  403840:	48 01 d0             	add    %rdx,%rax
  403843:	8b 10                	mov    (%rax),%edx
  403845:	8b 45 c4             	mov    -0x3c(%rbp),%eax
  403848:	39 c2                	cmp    %eax,%edx
  40384a:	7c 86                	jl     4037d2 <_ZSt11__push_heapIPiliEvT_T0_S2_T1_+0x33>
  40384c:	48 8b 45 d0          	mov    -0x30(%rbp),%rax
  403850:	48 8d 14 85 00 00 00 	lea    0x0(,%rax,4),%rdx
  403857:	00 
  403858:	48 8b 45 d8          	mov    -0x28(%rbp),%rax
  40385c:	48 8d 1c 02          	lea    (%rdx,%rax,1),%rbx
  403860:	48 8d 45 c4          	lea    -0x3c(%rbp),%rax
  403864:	48 89 c7             	mov    %rax,%rdi
  403867:	e8 b5 f6 ff ff       	callq  402f21 <_ZSt4moveIRiEONSt16remove_referenceIT_E4typeEOS2_>
  40386c:	8b 00                	mov    (%rax),%eax
  40386e:	89 03                	mov    %eax,(%rbx)
  403870:	48 83 c4 38          	add    $0x38,%rsp
  403874:	5b                   	pop    %rbx
  403875:	5d                   	pop    %rbp
  403876:	c3                   	retq   

0000000000403877 <_ZNSt20__copy_move_backwardILb1ELb1ESt26random_access_iterator_tagE13__copy_move_bIiEEPT_PKS3_S6_S4_>:
  403877:	55                   	push   %rbp
  403878:	48 89 e5             	mov    %rsp,%rbp
  40387b:	48 83 ec 30          	sub    $0x30,%rsp
  40387f:	48 89 7d e8          	mov    %rdi,-0x18(%rbp)
  403883:	48 89 75 e0          	mov    %rsi,-0x20(%rbp)
  403887:	48 89 55 d8          	mov    %rdx,-0x28(%rbp)
  40388b:	48 8b 55 e0          	mov    -0x20(%rbp),%rdx
  40388f:	48 8b 45 e8          	mov    -0x18(%rbp),%rax
  403893:	48 29 c2             	sub    %rax,%rdx
  403896:	48 89 d0             	mov    %rdx,%rax
  403899:	48 c1 f8 02          	sar    $0x2,%rax
  40389d:	48 89 45 f8          	mov    %rax,-0x8(%rbp)
  4038a1:	48 83 7d f8 00       	cmpq   $0x0,-0x8(%rbp)
  4038a6:	74 30                	je     4038d8 <_ZNSt20__copy_move_backwardILb1ELb1ESt26random_access_iterator_tagE13__copy_move_bIiEEPT_PKS3_S6_S4_+0x61>
  4038a8:	48 8b 45 f8          	mov    -0x8(%rbp),%rax
  4038ac:	48 8d 14 85 00 00 00 	lea    0x0(,%rax,4),%rdx
  4038b3:	00 
  4038b4:	48 8b 45 f8          	mov    -0x8(%rbp),%rax
  4038b8:	48 c1 e0 02          	shl    $0x2,%rax
  4038bc:	48 f7 d8             	neg    %rax
  4038bf:	48 89 c1             	mov    %rax,%rcx
  4038c2:	48 8b 45 d8          	mov    -0x28(%rbp),%rax
  4038c6:	48 01 c1             	add    %rax,%rcx
  4038c9:	48 8b 45 e8          	mov    -0x18(%rbp),%rax
  4038cd:	48 89 c6             	mov    %rax,%rsi
  4038d0:	48 89 cf             	mov    %rcx,%rdi
  4038d3:	e8 38 cf ff ff       	callq  400810 <memmove@plt>
  4038d8:	48 8b 45 f8          	mov    -0x8(%rbp),%rax
  4038dc:	48 c1 e0 02          	shl    $0x2,%rax
  4038e0:	48 f7 d8             	neg    %rax
  4038e3:	48 89 c2             	mov    %rax,%rdx
  4038e6:	48 8b 45 d8          	mov    -0x28(%rbp),%rax
  4038ea:	48 01 d0             	add    %rdx,%rax
  4038ed:	c9                   	leaveq 
  4038ee:	c3                   	retq   
  4038ef:	90                   	nop

00000000004038f0 <__libc_csu_init>:
  4038f0:	41 57                	push   %r15
  4038f2:	41 56                	push   %r14
  4038f4:	41 89 ff             	mov    %edi,%r15d
  4038f7:	41 55                	push   %r13
  4038f9:	41 54                	push   %r12
  4038fb:	4c 8d 25 c6 14 20 00 	lea    0x2014c6(%rip),%r12        # 604dc8 <__frame_dummy_init_array_entry>
  403902:	55                   	push   %rbp
  403903:	48 8d 2d c6 14 20 00 	lea    0x2014c6(%rip),%rbp        # 604dd0 <__init_array_end>
  40390a:	53                   	push   %rbx
  40390b:	49 89 f6             	mov    %rsi,%r14
  40390e:	49 89 d5             	mov    %rdx,%r13
  403911:	4c 29 e5             	sub    %r12,%rbp
  403914:	48 83 ec 08          	sub    $0x8,%rsp
  403918:	48 c1 fd 03          	sar    $0x3,%rbp
  40391c:	e8 0f ce ff ff       	callq  400730 <_init>
  403921:	48 85 ed             	test   %rbp,%rbp
  403924:	74 20                	je     403946 <__libc_csu_init+0x56>
  403926:	31 db                	xor    %ebx,%ebx
  403928:	0f 1f 84 00 00 00 00 	nopl   0x0(%rax,%rax,1)
  40392f:	00 
  403930:	4c 89 ea             	mov    %r13,%rdx
  403933:	4c 89 f6             	mov    %r14,%rsi
  403936:	44 89 ff             	mov    %r15d,%edi
  403939:	41 ff 14 dc          	callq  *(%r12,%rbx,8)
  40393d:	48 83 c3 01          	add    $0x1,%rbx
  403941:	48 39 dd             	cmp    %rbx,%rbp
  403944:	75 ea                	jne    403930 <__libc_csu_init+0x40>
  403946:	48 83 c4 08          	add    $0x8,%rsp
  40394a:	5b                   	pop    %rbx
  40394b:	5d                   	pop    %rbp
  40394c:	41 5c                	pop    %r12
  40394e:	41 5d                	pop    %r13
  403950:	41 5e                	pop    %r14
  403952:	41 5f                	pop    %r15
  403954:	c3                   	retq   
  403955:	90                   	nop
  403956:	66 2e 0f 1f 84 00 00 	nopw   %cs:0x0(%rax,%rax,1)
  40395d:	00 00 00 

0000000000403960 <__libc_csu_fini>:
  403960:	f3 c3                	repz retq 

Disassembly of section .fini:

0000000000403964 <_fini>:
  403964:	48 83 ec 08          	sub    $0x8,%rsp
  403968:	48 83 c4 08          	add    $0x8,%rsp
  40396c:	c3                   	retq   
